ARM GAS  C:\Users\Owner\AppData\Local\Temp\ccIGAJWk.s 			page 1


   1              		.syntax unified
   2              		.cpu cortex-m3
   3              		.fpu softvfp
   4              		.eabi_attribute 20, 1
   5              		.eabi_attribute 21, 1
   6              		.eabi_attribute 23, 3
   7              		.eabi_attribute 24, 1
   8              		.eabi_attribute 25, 1
   9              		.eabi_attribute 26, 1
  10              		.eabi_attribute 30, 6
  11              		.eabi_attribute 34, 1
  12              		.eabi_attribute 18, 4
  13              		.thumb
  14              		.file	"CyFlash.c"
  15              		.text
  16              	.Ltext0:
  17              		.cfi_sections	.debug_frame
  18              		.comm	dieTemperature,2,4
  19              		.bss
  20              		.align	2
  21              	rowBuffer:
  22 0000 00000000 		.space	4
  23              		.section	.text.CyFlash_Start,"ax",%progbits
  24              		.align	2
  25              		.global	CyFlash_Start
  26              		.thumb
  27              		.thumb_func
  28              		.type	CyFlash_Start, %function
  29              	CyFlash_Start:
  30              	.LFB0:
  31              		.file 1 ".\\Generated_Source\\PSoC5\\CyFlash.c"
   1:.\Generated_Source\PSoC5/CyFlash.c **** /*******************************************************************************
   2:.\Generated_Source\PSoC5/CyFlash.c **** * File Name: CyFlash.c
   3:.\Generated_Source\PSoC5/CyFlash.c **** * Version 4.10
   4:.\Generated_Source\PSoC5/CyFlash.c **** *
   5:.\Generated_Source\PSoC5/CyFlash.c **** *  Description:
   6:.\Generated_Source\PSoC5/CyFlash.c **** *   Provides an API for the FLASH/EEPROM.
   7:.\Generated_Source\PSoC5/CyFlash.c **** *
   8:.\Generated_Source\PSoC5/CyFlash.c **** *  Note:
   9:.\Generated_Source\PSoC5/CyFlash.c **** *   This code is endian agnostic.
  10:.\Generated_Source\PSoC5/CyFlash.c **** *
  11:.\Generated_Source\PSoC5/CyFlash.c **** *  Note:
  12:.\Generated_Source\PSoC5/CyFlash.c **** *   Documentation of the API's in this file is located in the
  13:.\Generated_Source\PSoC5/CyFlash.c **** *   System Reference Guide provided with PSoC Creator.
  14:.\Generated_Source\PSoC5/CyFlash.c **** *
  15:.\Generated_Source\PSoC5/CyFlash.c **** ********************************************************************************
  16:.\Generated_Source\PSoC5/CyFlash.c **** * Copyright 2008-2014, Cypress Semiconductor Corporation. All rights reserved.
  17:.\Generated_Source\PSoC5/CyFlash.c **** * You may use this file only in accordance with the license, terms, conditions,
  18:.\Generated_Source\PSoC5/CyFlash.c **** * disclaimers, and limitations in the end user license agreement accompanying
  19:.\Generated_Source\PSoC5/CyFlash.c **** * the software package with which this file was provided.
  20:.\Generated_Source\PSoC5/CyFlash.c **** *******************************************************************************/
  21:.\Generated_Source\PSoC5/CyFlash.c **** 
  22:.\Generated_Source\PSoC5/CyFlash.c **** #include "CyFlash.h"
  23:.\Generated_Source\PSoC5/CyFlash.c **** 
  24:.\Generated_Source\PSoC5/CyFlash.c **** 
  25:.\Generated_Source\PSoC5/CyFlash.c **** /*******************************************************************************
  26:.\Generated_Source\PSoC5/CyFlash.c **** * Holds the die temperature, updated by CySetTemp(). Used for flash writing.
ARM GAS  C:\Users\Owner\AppData\Local\Temp\ccIGAJWk.s 			page 2


  27:.\Generated_Source\PSoC5/CyFlash.c **** * The first byte is the sign of the temperature (0 = negative, 1 = positive).
  28:.\Generated_Source\PSoC5/CyFlash.c **** * The second byte is the magnitude.
  29:.\Generated_Source\PSoC5/CyFlash.c **** *******************************************************************************/
  30:.\Generated_Source\PSoC5/CyFlash.c **** uint8 dieTemperature[CY_FLASH_DIE_TEMP_DATA_SIZE];
  31:.\Generated_Source\PSoC5/CyFlash.c **** 
  32:.\Generated_Source\PSoC5/CyFlash.c **** #if(CYDEV_ECC_ENABLE == 0)
  33:.\Generated_Source\PSoC5/CyFlash.c ****     static uint8 * rowBuffer = 0;
  34:.\Generated_Source\PSoC5/CyFlash.c **** #endif  /* (CYDEV_ECC_ENABLE == 0) */
  35:.\Generated_Source\PSoC5/CyFlash.c **** 
  36:.\Generated_Source\PSoC5/CyFlash.c **** 
  37:.\Generated_Source\PSoC5/CyFlash.c **** static cystatus CySetTempInt(void);
  38:.\Generated_Source\PSoC5/CyFlash.c **** 
  39:.\Generated_Source\PSoC5/CyFlash.c **** 
  40:.\Generated_Source\PSoC5/CyFlash.c **** /*******************************************************************************
  41:.\Generated_Source\PSoC5/CyFlash.c **** * Function Name: CyFlash_Start
  42:.\Generated_Source\PSoC5/CyFlash.c **** ********************************************************************************
  43:.\Generated_Source\PSoC5/CyFlash.c **** *
  44:.\Generated_Source\PSoC5/CyFlash.c **** * Summary:
  45:.\Generated_Source\PSoC5/CyFlash.c **** *  Enable the Flash.
  46:.\Generated_Source\PSoC5/CyFlash.c **** *
  47:.\Generated_Source\PSoC5/CyFlash.c **** * Parameters:
  48:.\Generated_Source\PSoC5/CyFlash.c **** *  None
  49:.\Generated_Source\PSoC5/CyFlash.c **** *
  50:.\Generated_Source\PSoC5/CyFlash.c **** * Return:
  51:.\Generated_Source\PSoC5/CyFlash.c **** *  None
  52:.\Generated_Source\PSoC5/CyFlash.c **** *
  53:.\Generated_Source\PSoC5/CyFlash.c **** *******************************************************************************/
  54:.\Generated_Source\PSoC5/CyFlash.c **** void CyFlash_Start(void) 
  55:.\Generated_Source\PSoC5/CyFlash.c **** {
  32              		.loc 1 55 0
  33              		.cfi_startproc
  34              		@ args = 0, pretend = 0, frame = 0
  35              		@ frame_needed = 1, uses_anonymous_args = 0
  36 0000 80B5     		push	{r7, lr}
  37              		.cfi_def_cfa_offset 8
  38              		.cfi_offset 7, -8
  39              		.cfi_offset 14, -4
  40 0002 00AF     		add	r7, sp, #0
  41              		.cfi_def_cfa_register 7
  56:.\Generated_Source\PSoC5/CyFlash.c ****     /* Active Power Mode */
  57:.\Generated_Source\PSoC5/CyFlash.c ****     *CY_FLASH_PM_ACT_EEFLASH_PTR |= CY_FLASH_PM_FLASH_MASK;
  42              		.loc 1 57 0
  43 0004 094B     		ldr	r3, .L2
  44 0006 094A     		ldr	r2, .L2
  45 0008 1278     		ldrb	r2, [r2]
  46 000a D2B2     		uxtb	r2, r2
  47 000c 42F00102 		orr	r2, r2, #1
  48 0010 D2B2     		uxtb	r2, r2
  49 0012 1A70     		strb	r2, [r3]
  58:.\Generated_Source\PSoC5/CyFlash.c **** 
  59:.\Generated_Source\PSoC5/CyFlash.c ****     /* Standby Power Mode */
  60:.\Generated_Source\PSoC5/CyFlash.c ****     *CY_FLASH_PM_ALTACT_EEFLASH_PTR |= CY_FLASH_PM_FLASH_MASK;
  50              		.loc 1 60 0
  51 0014 064B     		ldr	r3, .L2+4
  52 0016 064A     		ldr	r2, .L2+4
  53 0018 1278     		ldrb	r2, [r2]
  54 001a D2B2     		uxtb	r2, r2
ARM GAS  C:\Users\Owner\AppData\Local\Temp\ccIGAJWk.s 			page 3


  55 001c 42F00102 		orr	r2, r2, #1
  56 0020 D2B2     		uxtb	r2, r2
  57 0022 1A70     		strb	r2, [r3]
  61:.\Generated_Source\PSoC5/CyFlash.c **** 
  62:.\Generated_Source\PSoC5/CyFlash.c ****     CyDelayUs(CY_FLASH_EE_STARTUP_DELAY);
  58              		.loc 1 62 0
  59 0024 0520     		movs	r0, #5
  60 0026 FFF7FEFF 		bl	CyDelayUs
  63:.\Generated_Source\PSoC5/CyFlash.c **** }
  61              		.loc 1 63 0
  62 002a 80BD     		pop	{r7, pc}
  63              	.L3:
  64              		.align	2
  65              	.L2:
  66 002c AC430040 		.word	1073759148
  67 0030 BC430040 		.word	1073759164
  68              		.cfi_endproc
  69              	.LFE0:
  70              		.size	CyFlash_Start, .-CyFlash_Start
  71              		.section	.text.CyFlash_Stop,"ax",%progbits
  72              		.align	2
  73              		.global	CyFlash_Stop
  74              		.thumb
  75              		.thumb_func
  76              		.type	CyFlash_Stop, %function
  77              	CyFlash_Stop:
  78              	.LFB1:
  64:.\Generated_Source\PSoC5/CyFlash.c **** 
  65:.\Generated_Source\PSoC5/CyFlash.c **** 
  66:.\Generated_Source\PSoC5/CyFlash.c **** /*******************************************************************************
  67:.\Generated_Source\PSoC5/CyFlash.c **** * Function Name: CyFlash_Stop
  68:.\Generated_Source\PSoC5/CyFlash.c **** ********************************************************************************
  69:.\Generated_Source\PSoC5/CyFlash.c **** *
  70:.\Generated_Source\PSoC5/CyFlash.c **** * Summary:
  71:.\Generated_Source\PSoC5/CyFlash.c **** *  Disable the Flash.
  72:.\Generated_Source\PSoC5/CyFlash.c **** *
  73:.\Generated_Source\PSoC5/CyFlash.c **** * Parameters:
  74:.\Generated_Source\PSoC5/CyFlash.c **** *  None
  75:.\Generated_Source\PSoC5/CyFlash.c **** *
  76:.\Generated_Source\PSoC5/CyFlash.c **** * Return:
  77:.\Generated_Source\PSoC5/CyFlash.c **** *  None
  78:.\Generated_Source\PSoC5/CyFlash.c **** *
  79:.\Generated_Source\PSoC5/CyFlash.c **** * Side Effects:
  80:.\Generated_Source\PSoC5/CyFlash.c **** *  This setting is ignored as long as the CPU is currently running.  This will
  81:.\Generated_Source\PSoC5/CyFlash.c **** *  only take effect when the CPU is later disabled.
  82:.\Generated_Source\PSoC5/CyFlash.c **** *
  83:.\Generated_Source\PSoC5/CyFlash.c **** *******************************************************************************/
  84:.\Generated_Source\PSoC5/CyFlash.c **** void CyFlash_Stop(void) 
  85:.\Generated_Source\PSoC5/CyFlash.c **** {
  79              		.loc 1 85 0
  80              		.cfi_startproc
  81              		@ args = 0, pretend = 0, frame = 0
  82              		@ frame_needed = 1, uses_anonymous_args = 0
  83              		@ link register save eliminated.
  84 0000 80B4     		push	{r7}
  85              		.cfi_def_cfa_offset 4
  86              		.cfi_offset 7, -4
ARM GAS  C:\Users\Owner\AppData\Local\Temp\ccIGAJWk.s 			page 4


  87 0002 00AF     		add	r7, sp, #0
  88              		.cfi_def_cfa_register 7
  86:.\Generated_Source\PSoC5/CyFlash.c ****     /* Active Power Mode */
  87:.\Generated_Source\PSoC5/CyFlash.c ****     *CY_FLASH_PM_ACT_EEFLASH_PTR &= ((uint8)(~CY_FLASH_PM_FLASH_MASK));
  89              		.loc 1 87 0
  90 0004 094B     		ldr	r3, .L5
  91 0006 094A     		ldr	r2, .L5
  92 0008 1278     		ldrb	r2, [r2]
  93 000a D2B2     		uxtb	r2, r2
  94 000c 22F00102 		bic	r2, r2, #1
  95 0010 D2B2     		uxtb	r2, r2
  96 0012 1A70     		strb	r2, [r3]
  88:.\Generated_Source\PSoC5/CyFlash.c **** 
  89:.\Generated_Source\PSoC5/CyFlash.c ****     /* Standby Power Mode */
  90:.\Generated_Source\PSoC5/CyFlash.c ****     *CY_FLASH_PM_ALTACT_EEFLASH_PTR &= ((uint8)(~CY_FLASH_PM_FLASH_MASK));
  97              		.loc 1 90 0
  98 0014 064B     		ldr	r3, .L5+4
  99 0016 064A     		ldr	r2, .L5+4
 100 0018 1278     		ldrb	r2, [r2]
 101 001a D2B2     		uxtb	r2, r2
 102 001c 22F00102 		bic	r2, r2, #1
 103 0020 D2B2     		uxtb	r2, r2
 104 0022 1A70     		strb	r2, [r3]
  91:.\Generated_Source\PSoC5/CyFlash.c **** }
 105              		.loc 1 91 0
 106 0024 BD46     		mov	sp, r7
 107              		@ sp needed
 108 0026 5DF8047B 		ldr	r7, [sp], #4
 109 002a 7047     		bx	lr
 110              	.L6:
 111              		.align	2
 112              	.L5:
 113 002c AC430040 		.word	1073759148
 114 0030 BC430040 		.word	1073759164
 115              		.cfi_endproc
 116              	.LFE1:
 117              		.size	CyFlash_Stop, .-CyFlash_Stop
 118              		.section	.text.CySetTempInt,"ax",%progbits
 119              		.align	2
 120              		.thumb
 121              		.thumb_func
 122              		.type	CySetTempInt, %function
 123              	CySetTempInt:
 124              	.LFB2:
  92:.\Generated_Source\PSoC5/CyFlash.c **** 
  93:.\Generated_Source\PSoC5/CyFlash.c **** 
  94:.\Generated_Source\PSoC5/CyFlash.c **** /*******************************************************************************
  95:.\Generated_Source\PSoC5/CyFlash.c **** * Function Name: CySetTempInt
  96:.\Generated_Source\PSoC5/CyFlash.c **** ********************************************************************************
  97:.\Generated_Source\PSoC5/CyFlash.c **** *
  98:.\Generated_Source\PSoC5/CyFlash.c **** * Summary:
  99:.\Generated_Source\PSoC5/CyFlash.c **** *  Sends a command to the SPC to read the die temperature. Sets a global value
 100:.\Generated_Source\PSoC5/CyFlash.c **** *  used by the Write function. This function must be called once before
 101:.\Generated_Source\PSoC5/CyFlash.c **** *  executing a series of Flash writing functions.
 102:.\Generated_Source\PSoC5/CyFlash.c **** *
 103:.\Generated_Source\PSoC5/CyFlash.c **** * Parameters:
 104:.\Generated_Source\PSoC5/CyFlash.c **** *  None
ARM GAS  C:\Users\Owner\AppData\Local\Temp\ccIGAJWk.s 			page 5


 105:.\Generated_Source\PSoC5/CyFlash.c **** *
 106:.\Generated_Source\PSoC5/CyFlash.c **** * Return:
 107:.\Generated_Source\PSoC5/CyFlash.c **** *  status:
 108:.\Generated_Source\PSoC5/CyFlash.c **** *   CYRET_SUCCESS - if successful
 109:.\Generated_Source\PSoC5/CyFlash.c **** *   CYRET_LOCKED  - if Flash writing already in use
 110:.\Generated_Source\PSoC5/CyFlash.c **** *   CYRET_UNKNOWN - if there was an SPC error
 111:.\Generated_Source\PSoC5/CyFlash.c **** *
 112:.\Generated_Source\PSoC5/CyFlash.c **** *******************************************************************************/
 113:.\Generated_Source\PSoC5/CyFlash.c **** static cystatus CySetTempInt(void) 
 114:.\Generated_Source\PSoC5/CyFlash.c **** {
 125              		.loc 1 114 0
 126              		.cfi_startproc
 127              		@ args = 0, pretend = 0, frame = 8
 128              		@ frame_needed = 1, uses_anonymous_args = 0
 129 0000 80B5     		push	{r7, lr}
 130              		.cfi_def_cfa_offset 8
 131              		.cfi_offset 7, -8
 132              		.cfi_offset 14, -4
 133 0002 82B0     		sub	sp, sp, #8
 134              		.cfi_def_cfa_offset 16
 135 0004 00AF     		add	r7, sp, #0
 136              		.cfi_def_cfa_register 7
 115:.\Generated_Source\PSoC5/CyFlash.c ****     cystatus status;
 116:.\Generated_Source\PSoC5/CyFlash.c **** 
 117:.\Generated_Source\PSoC5/CyFlash.c ****     /* Make sure SPC is powered */
 118:.\Generated_Source\PSoC5/CyFlash.c ****     CySpcStart();
 137              		.loc 1 118 0
 138 0006 FFF7FEFF 		bl	CySpcStart
 119:.\Generated_Source\PSoC5/CyFlash.c **** 
 120:.\Generated_Source\PSoC5/CyFlash.c ****     /* Plan for failure. */
 121:.\Generated_Source\PSoC5/CyFlash.c ****     status = CYRET_UNKNOWN;
 139              		.loc 1 121 0
 140 000a 4FF0FF33 		mov	r3, #-1
 141 000e 7B60     		str	r3, [r7, #4]
 122:.\Generated_Source\PSoC5/CyFlash.c **** 
 123:.\Generated_Source\PSoC5/CyFlash.c ****     if(CySpcLock() == CYRET_SUCCESS)
 142              		.loc 1 123 0
 143 0010 FFF7FEFF 		bl	CySpcLock
 144 0014 0346     		mov	r3, r0
 145 0016 002B     		cmp	r3, #0
 146 0018 24D1     		bne	.L8
 124:.\Generated_Source\PSoC5/CyFlash.c ****     {
 125:.\Generated_Source\PSoC5/CyFlash.c ****         /* Write the command. */
 126:.\Generated_Source\PSoC5/CyFlash.c ****         if(CYRET_STARTED == CySpcGetTemp(CY_TEMP_NUMBER_OF_SAMPLES))
 147              		.loc 1 126 0
 148 001a 0120     		movs	r0, #1
 149 001c FFF7FEFF 		bl	CySpcGetTemp
 150 0020 0346     		mov	r3, r0
 151 0022 072B     		cmp	r3, #7
 152 0024 1BD1     		bne	.L9
 153              	.L13:
 127:.\Generated_Source\PSoC5/CyFlash.c ****         {
 128:.\Generated_Source\PSoC5/CyFlash.c ****             do
 129:.\Generated_Source\PSoC5/CyFlash.c ****             {
 130:.\Generated_Source\PSoC5/CyFlash.c ****                 if(CySpcReadData(dieTemperature, CY_FLASH_DIE_TEMP_DATA_SIZE) == CY_FLASH_DIE_TEMP_
 154              		.loc 1 130 0
 155 0026 1348     		ldr	r0, .L16
ARM GAS  C:\Users\Owner\AppData\Local\Temp\ccIGAJWk.s 			page 6


 156 0028 0221     		movs	r1, #2
 157 002a FFF7FEFF 		bl	CySpcReadData
 158 002e 0346     		mov	r3, r0
 159 0030 022B     		cmp	r3, #2
 160 0032 0DD1     		bne	.L10
 131:.\Generated_Source\PSoC5/CyFlash.c ****                 {
 132:.\Generated_Source\PSoC5/CyFlash.c ****                     status = CYRET_SUCCESS;
 161              		.loc 1 132 0
 162 0034 0023     		movs	r3, #0
 163 0036 7B60     		str	r3, [r7, #4]
 133:.\Generated_Source\PSoC5/CyFlash.c **** 
 134:.\Generated_Source\PSoC5/CyFlash.c ****                     while(CY_SPC_BUSY)
 164              		.loc 1 134 0
 165 0038 02E0     		b	.L11
 166              	.L12:
 135:.\Generated_Source\PSoC5/CyFlash.c ****                     {
 136:.\Generated_Source\PSoC5/CyFlash.c ****                         /* Spin until idle. */
 137:.\Generated_Source\PSoC5/CyFlash.c ****                         CyDelayUs(1u);
 167              		.loc 1 137 0
 168 003a 0120     		movs	r0, #1
 169 003c FFF7FEFF 		bl	CyDelayUs
 170              	.L11:
 134:.\Generated_Source\PSoC5/CyFlash.c ****                     while(CY_SPC_BUSY)
 171              		.loc 1 134 0 discriminator 1
 172 0040 0D4B     		ldr	r3, .L16+4
 173 0042 1B78     		ldrb	r3, [r3]
 174 0044 DBB2     		uxtb	r3, r3
 175 0046 03F00203 		and	r3, r3, #2
 176 004a 002B     		cmp	r3, #0
 177 004c F5D0     		beq	.L12
 138:.\Generated_Source\PSoC5/CyFlash.c ****                     }
 139:.\Generated_Source\PSoC5/CyFlash.c ****                     break;
 178              		.loc 1 139 0
 179 004e 06E0     		b	.L9
 180              	.L10:
 140:.\Generated_Source\PSoC5/CyFlash.c ****                 }
 141:.\Generated_Source\PSoC5/CyFlash.c **** 
 142:.\Generated_Source\PSoC5/CyFlash.c ****             } while(CY_SPC_BUSY);
 181              		.loc 1 142 0
 182 0050 094B     		ldr	r3, .L16+4
 183 0052 1B78     		ldrb	r3, [r3]
 184 0054 DBB2     		uxtb	r3, r3
 185 0056 03F00203 		and	r3, r3, #2
 186 005a 002B     		cmp	r3, #0
 187 005c E3D0     		beq	.L13
 188              	.L9:
 143:.\Generated_Source\PSoC5/CyFlash.c ****         }
 144:.\Generated_Source\PSoC5/CyFlash.c **** 
 145:.\Generated_Source\PSoC5/CyFlash.c ****         CySpcUnlock();
 189              		.loc 1 145 0
 190 005e FFF7FEFF 		bl	CySpcUnlock
 191 0062 01E0     		b	.L14
 192              	.L8:
 146:.\Generated_Source\PSoC5/CyFlash.c ****     }
 147:.\Generated_Source\PSoC5/CyFlash.c ****     else
 148:.\Generated_Source\PSoC5/CyFlash.c ****     {
 149:.\Generated_Source\PSoC5/CyFlash.c ****         status = CYRET_LOCKED;
ARM GAS  C:\Users\Owner\AppData\Local\Temp\ccIGAJWk.s 			page 7


 193              		.loc 1 149 0
 194 0064 0423     		movs	r3, #4
 195 0066 7B60     		str	r3, [r7, #4]
 196              	.L14:
 150:.\Generated_Source\PSoC5/CyFlash.c ****     }
 151:.\Generated_Source\PSoC5/CyFlash.c **** 
 152:.\Generated_Source\PSoC5/CyFlash.c ****     return (status);
 197              		.loc 1 152 0
 198 0068 7B68     		ldr	r3, [r7, #4]
 153:.\Generated_Source\PSoC5/CyFlash.c **** }
 199              		.loc 1 153 0
 200 006a 1846     		mov	r0, r3
 201 006c 0837     		adds	r7, r7, #8
 202 006e BD46     		mov	sp, r7
 203              		@ sp needed
 204 0070 80BD     		pop	{r7, pc}
 205              	.L17:
 206 0072 00BF     		.align	2
 207              	.L16:
 208 0074 00000000 		.word	dieTemperature
 209 0078 22470040 		.word	1073760034
 210              		.cfi_endproc
 211              	.LFE2:
 212              		.size	CySetTempInt, .-CySetTempInt
 213              		.section	.text.CySetTemp,"ax",%progbits
 214              		.align	2
 215              		.global	CySetTemp
 216              		.thumb
 217              		.thumb_func
 218              		.type	CySetTemp, %function
 219              	CySetTemp:
 220              	.LFB3:
 154:.\Generated_Source\PSoC5/CyFlash.c **** 
 155:.\Generated_Source\PSoC5/CyFlash.c **** 
 156:.\Generated_Source\PSoC5/CyFlash.c **** /*******************************************************************************
 157:.\Generated_Source\PSoC5/CyFlash.c **** * Function Name: CySetTemp
 158:.\Generated_Source\PSoC5/CyFlash.c **** ********************************************************************************
 159:.\Generated_Source\PSoC5/CyFlash.c **** *
 160:.\Generated_Source\PSoC5/CyFlash.c **** * Summary:
 161:.\Generated_Source\PSoC5/CyFlash.c **** *  This is a wraparound for CySetTempInt(). It is used to return the second
 162:.\Generated_Source\PSoC5/CyFlash.c **** *  successful read of the temperature value.
 163:.\Generated_Source\PSoC5/CyFlash.c **** *
 164:.\Generated_Source\PSoC5/CyFlash.c **** * Parameters:
 165:.\Generated_Source\PSoC5/CyFlash.c **** *  None
 166:.\Generated_Source\PSoC5/CyFlash.c **** *
 167:.\Generated_Source\PSoC5/CyFlash.c **** * Return:
 168:.\Generated_Source\PSoC5/CyFlash.c **** *  status:
 169:.\Generated_Source\PSoC5/CyFlash.c **** *   CYRET_SUCCESS if successful.
 170:.\Generated_Source\PSoC5/CyFlash.c **** *   CYRET_LOCKED  if Flash writing already in use
 171:.\Generated_Source\PSoC5/CyFlash.c **** *   CYRET_UNKNOWN if there was an SPC error.
 172:.\Generated_Source\PSoC5/CyFlash.c **** *
 173:.\Generated_Source\PSoC5/CyFlash.c **** *  uint8 dieTemperature[2]:
 174:.\Generated_Source\PSoC5/CyFlash.c **** *   Holds the die temperature for the flash writing algorithm. The first byte is
 175:.\Generated_Source\PSoC5/CyFlash.c **** *   the sign of the temperature (0 = negative, 1 = positive). The second byte is
 176:.\Generated_Source\PSoC5/CyFlash.c **** *   the magnitude.
 177:.\Generated_Source\PSoC5/CyFlash.c **** *
 178:.\Generated_Source\PSoC5/CyFlash.c **** *******************************************************************************/
ARM GAS  C:\Users\Owner\AppData\Local\Temp\ccIGAJWk.s 			page 8


 179:.\Generated_Source\PSoC5/CyFlash.c **** cystatus CySetTemp(void) 
 180:.\Generated_Source\PSoC5/CyFlash.c **** {
 221              		.loc 1 180 0
 222              		.cfi_startproc
 223              		@ args = 0, pretend = 0, frame = 8
 224              		@ frame_needed = 1, uses_anonymous_args = 0
 225 0000 80B5     		push	{r7, lr}
 226              		.cfi_def_cfa_offset 8
 227              		.cfi_offset 7, -8
 228              		.cfi_offset 14, -4
 229 0002 82B0     		sub	sp, sp, #8
 230              		.cfi_def_cfa_offset 16
 231 0004 00AF     		add	r7, sp, #0
 232              		.cfi_def_cfa_register 7
 181:.\Generated_Source\PSoC5/CyFlash.c ****     cystatus status = CySetTempInt();
 233              		.loc 1 181 0
 234 0006 FFF7FEFF 		bl	CySetTempInt
 235 000a 7860     		str	r0, [r7, #4]
 182:.\Generated_Source\PSoC5/CyFlash.c **** 
 183:.\Generated_Source\PSoC5/CyFlash.c ****     if(status == CYRET_SUCCESS)
 236              		.loc 1 183 0
 237 000c 7B68     		ldr	r3, [r7, #4]
 238 000e 002B     		cmp	r3, #0
 239 0010 02D1     		bne	.L19
 184:.\Generated_Source\PSoC5/CyFlash.c ****     {
 185:.\Generated_Source\PSoC5/CyFlash.c ****         status = CySetTempInt();
 240              		.loc 1 185 0
 241 0012 FFF7FEFF 		bl	CySetTempInt
 242 0016 7860     		str	r0, [r7, #4]
 243              	.L19:
 186:.\Generated_Source\PSoC5/CyFlash.c ****     }
 187:.\Generated_Source\PSoC5/CyFlash.c **** 
 188:.\Generated_Source\PSoC5/CyFlash.c ****     return (status);
 244              		.loc 1 188 0
 245 0018 7B68     		ldr	r3, [r7, #4]
 189:.\Generated_Source\PSoC5/CyFlash.c **** }
 246              		.loc 1 189 0
 247 001a 1846     		mov	r0, r3
 248 001c 0837     		adds	r7, r7, #8
 249 001e BD46     		mov	sp, r7
 250              		@ sp needed
 251 0020 80BD     		pop	{r7, pc}
 252              		.cfi_endproc
 253              	.LFE3:
 254              		.size	CySetTemp, .-CySetTemp
 255 0022 00BF     		.section	.text.CySetFlashEEBuffer,"ax",%progbits
 256              		.align	2
 257              		.global	CySetFlashEEBuffer
 258              		.thumb
 259              		.thumb_func
 260              		.type	CySetFlashEEBuffer, %function
 261              	CySetFlashEEBuffer:
 262              	.LFB4:
 190:.\Generated_Source\PSoC5/CyFlash.c **** 
 191:.\Generated_Source\PSoC5/CyFlash.c **** 
 192:.\Generated_Source\PSoC5/CyFlash.c **** /*******************************************************************************
 193:.\Generated_Source\PSoC5/CyFlash.c **** * Function Name: CySetFlashEEBuffer
ARM GAS  C:\Users\Owner\AppData\Local\Temp\ccIGAJWk.s 			page 9


 194:.\Generated_Source\PSoC5/CyFlash.c **** ********************************************************************************
 195:.\Generated_Source\PSoC5/CyFlash.c **** *
 196:.\Generated_Source\PSoC5/CyFlash.c **** * Summary:
 197:.\Generated_Source\PSoC5/CyFlash.c **** *  Sets the user supplied temporary buffer to store SPC data while performing
 198:.\Generated_Source\PSoC5/CyFlash.c **** *  Flash and EEPROM commands. This buffer is only necessary when the Flash ECC is
 199:.\Generated_Source\PSoC5/CyFlash.c **** *  disabled.
 200:.\Generated_Source\PSoC5/CyFlash.c **** *
 201:.\Generated_Source\PSoC5/CyFlash.c **** * Parameters:
 202:.\Generated_Source\PSoC5/CyFlash.c **** *  buffer:
 203:.\Generated_Source\PSoC5/CyFlash.c **** *   The address of a block of memory to store temporary memory. The size of the block
 204:.\Generated_Source\PSoC5/CyFlash.c **** *   of memory is CYDEV_FLS_ROW_SIZE + CYDEV_ECC_ROW_SIZE.
 205:.\Generated_Source\PSoC5/CyFlash.c **** *
 206:.\Generated_Source\PSoC5/CyFlash.c **** * Return:
 207:.\Generated_Source\PSoC5/CyFlash.c **** *  status:
 208:.\Generated_Source\PSoC5/CyFlash.c **** *   CYRET_SUCCESS if successful.
 209:.\Generated_Source\PSoC5/CyFlash.c **** *   CYRET_BAD_PARAM if the buffer is NULL
 210:.\Generated_Source\PSoC5/CyFlash.c **** *
 211:.\Generated_Source\PSoC5/CyFlash.c **** *******************************************************************************/
 212:.\Generated_Source\PSoC5/CyFlash.c **** cystatus CySetFlashEEBuffer(uint8 * buffer) 
 213:.\Generated_Source\PSoC5/CyFlash.c **** {
 263              		.loc 1 213 0
 264              		.cfi_startproc
 265              		@ args = 0, pretend = 0, frame = 16
 266              		@ frame_needed = 1, uses_anonymous_args = 0
 267 0000 80B5     		push	{r7, lr}
 268              		.cfi_def_cfa_offset 8
 269              		.cfi_offset 7, -8
 270              		.cfi_offset 14, -4
 271 0002 84B0     		sub	sp, sp, #16
 272              		.cfi_def_cfa_offset 24
 273 0004 00AF     		add	r7, sp, #0
 274              		.cfi_def_cfa_register 7
 275 0006 7860     		str	r0, [r7, #4]
 214:.\Generated_Source\PSoC5/CyFlash.c ****     cystatus status = CYRET_SUCCESS;
 276              		.loc 1 214 0
 277 0008 0023     		movs	r3, #0
 278 000a FB60     		str	r3, [r7, #12]
 215:.\Generated_Source\PSoC5/CyFlash.c **** 
 216:.\Generated_Source\PSoC5/CyFlash.c ****     CySpcStart();
 279              		.loc 1 216 0
 280 000c FFF7FEFF 		bl	CySpcStart
 217:.\Generated_Source\PSoC5/CyFlash.c **** 
 218:.\Generated_Source\PSoC5/CyFlash.c ****     #if(CYDEV_ECC_ENABLE == 0)
 219:.\Generated_Source\PSoC5/CyFlash.c **** 
 220:.\Generated_Source\PSoC5/CyFlash.c ****         if(NULL == buffer)
 281              		.loc 1 220 0
 282 0010 7B68     		ldr	r3, [r7, #4]
 283 0012 002B     		cmp	r3, #0
 284 0014 06D1     		bne	.L22
 221:.\Generated_Source\PSoC5/CyFlash.c ****         {
 222:.\Generated_Source\PSoC5/CyFlash.c ****             rowBuffer = rowBuffer;
 285              		.loc 1 222 0
 286 0016 0E4B     		ldr	r3, .L26
 287 0018 1A68     		ldr	r2, [r3]
 288 001a 0D4B     		ldr	r3, .L26
 289 001c 1A60     		str	r2, [r3]
 223:.\Generated_Source\PSoC5/CyFlash.c ****             status = CYRET_BAD_PARAM;
ARM GAS  C:\Users\Owner\AppData\Local\Temp\ccIGAJWk.s 			page 10


 290              		.loc 1 223 0
 291 001e 0123     		movs	r3, #1
 292 0020 FB60     		str	r3, [r7, #12]
 293 0022 10E0     		b	.L23
 294              	.L22:
 224:.\Generated_Source\PSoC5/CyFlash.c ****         }
 225:.\Generated_Source\PSoC5/CyFlash.c ****         else if(CySpcLock() != CYRET_SUCCESS)
 295              		.loc 1 225 0
 296 0024 FFF7FEFF 		bl	CySpcLock
 297 0028 0346     		mov	r3, r0
 298 002a 002B     		cmp	r3, #0
 299 002c 06D0     		beq	.L24
 226:.\Generated_Source\PSoC5/CyFlash.c ****         {
 227:.\Generated_Source\PSoC5/CyFlash.c ****             rowBuffer = rowBuffer;
 300              		.loc 1 227 0
 301 002e 084B     		ldr	r3, .L26
 302 0030 1A68     		ldr	r2, [r3]
 303 0032 074B     		ldr	r3, .L26
 304 0034 1A60     		str	r2, [r3]
 228:.\Generated_Source\PSoC5/CyFlash.c ****             status = CYRET_LOCKED;
 305              		.loc 1 228 0
 306 0036 0423     		movs	r3, #4
 307 0038 FB60     		str	r3, [r7, #12]
 308 003a 04E0     		b	.L23
 309              	.L24:
 229:.\Generated_Source\PSoC5/CyFlash.c ****         }
 230:.\Generated_Source\PSoC5/CyFlash.c ****         else
 231:.\Generated_Source\PSoC5/CyFlash.c ****         {
 232:.\Generated_Source\PSoC5/CyFlash.c ****             rowBuffer = buffer;
 310              		.loc 1 232 0
 311 003c 044B     		ldr	r3, .L26
 312 003e 7A68     		ldr	r2, [r7, #4]
 313 0040 1A60     		str	r2, [r3]
 233:.\Generated_Source\PSoC5/CyFlash.c ****             CySpcUnlock();
 314              		.loc 1 233 0
 315 0042 FFF7FEFF 		bl	CySpcUnlock
 316              	.L23:
 234:.\Generated_Source\PSoC5/CyFlash.c ****         }
 235:.\Generated_Source\PSoC5/CyFlash.c **** 
 236:.\Generated_Source\PSoC5/CyFlash.c ****     #else
 237:.\Generated_Source\PSoC5/CyFlash.c **** 
 238:.\Generated_Source\PSoC5/CyFlash.c ****         /* To suppress warning */
 239:.\Generated_Source\PSoC5/CyFlash.c ****         buffer = buffer;
 240:.\Generated_Source\PSoC5/CyFlash.c **** 
 241:.\Generated_Source\PSoC5/CyFlash.c ****     #endif  /* (CYDEV_ECC_ENABLE == 0u) */
 242:.\Generated_Source\PSoC5/CyFlash.c **** 
 243:.\Generated_Source\PSoC5/CyFlash.c ****     return(status);
 317              		.loc 1 243 0
 318 0046 FB68     		ldr	r3, [r7, #12]
 244:.\Generated_Source\PSoC5/CyFlash.c **** }
 319              		.loc 1 244 0
 320 0048 1846     		mov	r0, r3
 321 004a 1037     		adds	r7, r7, #16
 322 004c BD46     		mov	sp, r7
 323              		@ sp needed
 324 004e 80BD     		pop	{r7, pc}
 325              	.L27:
ARM GAS  C:\Users\Owner\AppData\Local\Temp\ccIGAJWk.s 			page 11


 326              		.align	2
 327              	.L26:
 328 0050 00000000 		.word	rowBuffer
 329              		.cfi_endproc
 330              	.LFE4:
 331              		.size	CySetFlashEEBuffer, .-CySetFlashEEBuffer
 332              		.section	.text.CyWriteRowData,"ax",%progbits
 333              		.align	2
 334              		.global	CyWriteRowData
 335              		.thumb
 336              		.thumb_func
 337              		.type	CyWriteRowData, %function
 338              	CyWriteRowData:
 339              	.LFB5:
 245:.\Generated_Source\PSoC5/CyFlash.c **** 
 246:.\Generated_Source\PSoC5/CyFlash.c **** 
 247:.\Generated_Source\PSoC5/CyFlash.c **** #if(CYDEV_ECC_ENABLE == 1)
 248:.\Generated_Source\PSoC5/CyFlash.c **** 
 249:.\Generated_Source\PSoC5/CyFlash.c ****     /*******************************************************************************
 250:.\Generated_Source\PSoC5/CyFlash.c ****     * Function Name: CyWriteRowData
 251:.\Generated_Source\PSoC5/CyFlash.c ****     ********************************************************************************
 252:.\Generated_Source\PSoC5/CyFlash.c ****     *
 253:.\Generated_Source\PSoC5/CyFlash.c ****     * Summary:
 254:.\Generated_Source\PSoC5/CyFlash.c ****     *  Sends a command to the SPC to load and program a row of data in
 255:.\Generated_Source\PSoC5/CyFlash.c ****     *  Flash or EEPROM.
 256:.\Generated_Source\PSoC5/CyFlash.c ****     *
 257:.\Generated_Source\PSoC5/CyFlash.c ****     * Parameters:
 258:.\Generated_Source\PSoC5/CyFlash.c ****     *  arrayID:    ID of the array to write.
 259:.\Generated_Source\PSoC5/CyFlash.c ****     *   The type of write, Flash or EEPROM, is determined from the array ID.
 260:.\Generated_Source\PSoC5/CyFlash.c ****     *   The arrays in the part are sequential starting at the first ID for the
 261:.\Generated_Source\PSoC5/CyFlash.c ****     *   specific memory type. The array ID for the Flash memory lasts from 0x00 to
 262:.\Generated_Source\PSoC5/CyFlash.c ****     *   0x3F and for the EEPROM memory it lasts from 0x40 to 0x7F.
 263:.\Generated_Source\PSoC5/CyFlash.c ****     *  rowAddress: rowAddress of flash row to program.
 264:.\Generated_Source\PSoC5/CyFlash.c ****     *  rowData:    Array of bytes to write.
 265:.\Generated_Source\PSoC5/CyFlash.c ****     *
 266:.\Generated_Source\PSoC5/CyFlash.c ****     * Return:
 267:.\Generated_Source\PSoC5/CyFlash.c ****     *  status:
 268:.\Generated_Source\PSoC5/CyFlash.c ****     *   CYRET_SUCCESS if successful.
 269:.\Generated_Source\PSoC5/CyFlash.c ****     *   CYRET_LOCKED if the SPC is already in use.
 270:.\Generated_Source\PSoC5/CyFlash.c ****     *   CYRET_CANCELED if command not accepted
 271:.\Generated_Source\PSoC5/CyFlash.c ****     *   CYRET_UNKNOWN if there was an SPC error.
 272:.\Generated_Source\PSoC5/CyFlash.c ****     *
 273:.\Generated_Source\PSoC5/CyFlash.c ****     *******************************************************************************/
 274:.\Generated_Source\PSoC5/CyFlash.c ****     cystatus CyWriteRowData(uint8 arrayId, uint16 rowAddress, const uint8 * rowData) 
 275:.\Generated_Source\PSoC5/CyFlash.c ****     {
 276:.\Generated_Source\PSoC5/CyFlash.c ****         uint16 rowSize;
 277:.\Generated_Source\PSoC5/CyFlash.c ****         cystatus status;
 278:.\Generated_Source\PSoC5/CyFlash.c **** 
 279:.\Generated_Source\PSoC5/CyFlash.c ****         rowSize = (arrayId > CY_SPC_LAST_FLASH_ARRAYID) ? CYDEV_EEPROM_ROW_SIZE : CYDEV_FLS_ROW_SIZ
 280:.\Generated_Source\PSoC5/CyFlash.c ****         status = CyWriteRowFull(arrayId, rowAddress, rowData, rowSize);
 281:.\Generated_Source\PSoC5/CyFlash.c **** 
 282:.\Generated_Source\PSoC5/CyFlash.c ****         return(status);
 283:.\Generated_Source\PSoC5/CyFlash.c ****     }
 284:.\Generated_Source\PSoC5/CyFlash.c **** 
 285:.\Generated_Source\PSoC5/CyFlash.c **** #else
 286:.\Generated_Source\PSoC5/CyFlash.c **** 
 287:.\Generated_Source\PSoC5/CyFlash.c ****     /*******************************************************************************
ARM GAS  C:\Users\Owner\AppData\Local\Temp\ccIGAJWk.s 			page 12


 288:.\Generated_Source\PSoC5/CyFlash.c ****     * Function Name: CyWriteRowData
 289:.\Generated_Source\PSoC5/CyFlash.c ****     ********************************************************************************
 290:.\Generated_Source\PSoC5/CyFlash.c ****     *
 291:.\Generated_Source\PSoC5/CyFlash.c ****     * Summary:
 292:.\Generated_Source\PSoC5/CyFlash.c ****     *   Sends a command to the SPC to load and program a row of data in
 293:.\Generated_Source\PSoC5/CyFlash.c ****     *   Flash or EEPROM.
 294:.\Generated_Source\PSoC5/CyFlash.c ****     *
 295:.\Generated_Source\PSoC5/CyFlash.c ****     * Parameters:
 296:.\Generated_Source\PSoC5/CyFlash.c ****     *  arrayID      : ID of the array to write.
 297:.\Generated_Source\PSoC5/CyFlash.c ****     *   The type of write, Flash or EEPROM, is determined from the array ID.
 298:.\Generated_Source\PSoC5/CyFlash.c ****     *   The arrays in the part are sequential starting at the first ID for the
 299:.\Generated_Source\PSoC5/CyFlash.c ****     *   specific memory type. The array ID for the Flash memory lasts from 0x00 to
 300:.\Generated_Source\PSoC5/CyFlash.c ****     *   0x3F and for the EEPROM memory it lasts from 0x40 to 0x7F.
 301:.\Generated_Source\PSoC5/CyFlash.c ****     *  rowAddress   : rowAddress of flash row to program.
 302:.\Generated_Source\PSoC5/CyFlash.c ****     *  rowData      : Array of bytes to write.
 303:.\Generated_Source\PSoC5/CyFlash.c ****     *
 304:.\Generated_Source\PSoC5/CyFlash.c ****     * Return:
 305:.\Generated_Source\PSoC5/CyFlash.c ****     *  status:
 306:.\Generated_Source\PSoC5/CyFlash.c ****     *   CYRET_SUCCESS if successful.
 307:.\Generated_Source\PSoC5/CyFlash.c ****     *   CYRET_LOCKED if the SPC is already in use.
 308:.\Generated_Source\PSoC5/CyFlash.c ****     *   CYRET_CANCELED if command not accepted
 309:.\Generated_Source\PSoC5/CyFlash.c ****     *   CYRET_UNKNOWN if there was an SPC error.
 310:.\Generated_Source\PSoC5/CyFlash.c ****     *
 311:.\Generated_Source\PSoC5/CyFlash.c ****     *******************************************************************************/
 312:.\Generated_Source\PSoC5/CyFlash.c ****     cystatus CyWriteRowData(uint8 arrayId, uint16 rowAddress, const uint8 * rowData) 
 313:.\Generated_Source\PSoC5/CyFlash.c ****     {
 340              		.loc 1 313 0
 341              		.cfi_startproc
 342              		@ args = 0, pretend = 0, frame = 24
 343              		@ frame_needed = 1, uses_anonymous_args = 0
 344 0000 80B5     		push	{r7, lr}
 345              		.cfi_def_cfa_offset 8
 346              		.cfi_offset 7, -8
 347              		.cfi_offset 14, -4
 348 0002 86B0     		sub	sp, sp, #24
 349              		.cfi_def_cfa_offset 32
 350 0004 00AF     		add	r7, sp, #0
 351              		.cfi_def_cfa_register 7
 352 0006 0B46     		mov	r3, r1
 353 0008 3A60     		str	r2, [r7]
 354 000a 0246     		mov	r2, r0
 355 000c FA71     		strb	r2, [r7, #7]
 356 000e BB80     		strh	r3, [r7, #4]	@ movhi
 314:.\Generated_Source\PSoC5/CyFlash.c ****         uint8 i;
 315:.\Generated_Source\PSoC5/CyFlash.c ****         uint32 offset;
 316:.\Generated_Source\PSoC5/CyFlash.c ****         uint16 rowSize;
 317:.\Generated_Source\PSoC5/CyFlash.c ****         cystatus status;
 318:.\Generated_Source\PSoC5/CyFlash.c **** 
 319:.\Generated_Source\PSoC5/CyFlash.c ****         /* Check whether rowBuffer pointer has been initialized by CySetFlashEEBuffer() */
 320:.\Generated_Source\PSoC5/CyFlash.c ****         if(NULL != rowBuffer)
 357              		.loc 1 320 0
 358 0010 214B     		ldr	r3, .L36
 359 0012 1B68     		ldr	r3, [r3]
 360 0014 002B     		cmp	r3, #0
 361 0016 36D0     		beq	.L29
 321:.\Generated_Source\PSoC5/CyFlash.c ****         {
 322:.\Generated_Source\PSoC5/CyFlash.c ****             if(arrayId > CY_SPC_LAST_FLASH_ARRAYID)
ARM GAS  C:\Users\Owner\AppData\Local\Temp\ccIGAJWk.s 			page 13


 362              		.loc 1 322 0
 363 0018 FB79     		ldrb	r3, [r7, #7]	@ zero_extendqisi2
 364 001a 3F2B     		cmp	r3, #63
 365 001c 02D9     		bls	.L30
 323:.\Generated_Source\PSoC5/CyFlash.c ****             {
 324:.\Generated_Source\PSoC5/CyFlash.c ****                 rowSize = CYDEV_EEPROM_ROW_SIZE;
 366              		.loc 1 324 0
 367 001e 1023     		movs	r3, #16
 368 0020 BB82     		strh	r3, [r7, #20]	@ movhi
 369 0022 1FE0     		b	.L31
 370              	.L30:
 325:.\Generated_Source\PSoC5/CyFlash.c ****             }
 326:.\Generated_Source\PSoC5/CyFlash.c ****             else
 327:.\Generated_Source\PSoC5/CyFlash.c ****             {
 328:.\Generated_Source\PSoC5/CyFlash.c ****                 rowSize = CYDEV_FLS_ROW_SIZE + CYDEV_ECC_ROW_SIZE;
 371              		.loc 1 328 0
 372 0024 4FF49073 		mov	r3, #288
 373 0028 BB82     		strh	r3, [r7, #20]	@ movhi
 329:.\Generated_Source\PSoC5/CyFlash.c **** 
 330:.\Generated_Source\PSoC5/CyFlash.c ****                 /* Save ECC area. */
 331:.\Generated_Source\PSoC5/CyFlash.c ****                 offset = CYDEV_ECC_BASE +
 332:.\Generated_Source\PSoC5/CyFlash.c ****                         ((uint32)arrayId * CYDEV_ECC_SECTOR_SIZE) +
 374              		.loc 1 332 0
 375 002a FB79     		ldrb	r3, [r7, #7]	@ zero_extendqisi2
 376 002c 03F51033 		add	r3, r3, #147456
 377 0030 1A02     		lsls	r2, r3, #8
 333:.\Generated_Source\PSoC5/CyFlash.c ****                         ((uint32)rowAddress * CYDEV_ECC_ROW_SIZE);
 378              		.loc 1 333 0
 379 0032 BB88     		ldrh	r3, [r7, #4]
 332:.\Generated_Source\PSoC5/CyFlash.c ****                         ((uint32)arrayId * CYDEV_ECC_SECTOR_SIZE) +
 380              		.loc 1 332 0
 381 0034 1344     		add	r3, r3, r2
 331:.\Generated_Source\PSoC5/CyFlash.c ****                 offset = CYDEV_ECC_BASE +
 382              		.loc 1 331 0
 383 0036 5B01     		lsls	r3, r3, #5
 384 0038 FB60     		str	r3, [r7, #12]
 334:.\Generated_Source\PSoC5/CyFlash.c **** 
 335:.\Generated_Source\PSoC5/CyFlash.c ****                 for(i = 0u; i < CYDEV_ECC_ROW_SIZE; i++)
 385              		.loc 1 335 0
 386 003a 0023     		movs	r3, #0
 387 003c FB75     		strb	r3, [r7, #23]
 388 003e 0EE0     		b	.L32
 389              	.L33:
 336:.\Generated_Source\PSoC5/CyFlash.c ****                 {
 337:.\Generated_Source\PSoC5/CyFlash.c ****                     *(rowBuffer + CYDEV_FLS_ROW_SIZE + i) = CY_GET_XTND_REG8((void CYFAR *)(offset 
 390              		.loc 1 337 0 discriminator 2
 391 0040 154B     		ldr	r3, .L36
 392 0042 1A68     		ldr	r2, [r3]
 393 0044 FB7D     		ldrb	r3, [r7, #23]	@ zero_extendqisi2
 394 0046 03F58073 		add	r3, r3, #256
 395 004a 1344     		add	r3, r3, r2
 396 004c F97D     		ldrb	r1, [r7, #23]	@ zero_extendqisi2
 397 004e FA68     		ldr	r2, [r7, #12]
 398 0050 0A44     		add	r2, r2, r1
 399 0052 1278     		ldrb	r2, [r2]
 400 0054 D2B2     		uxtb	r2, r2
 401 0056 1A70     		strb	r2, [r3]
ARM GAS  C:\Users\Owner\AppData\Local\Temp\ccIGAJWk.s 			page 14


 335:.\Generated_Source\PSoC5/CyFlash.c ****                 for(i = 0u; i < CYDEV_ECC_ROW_SIZE; i++)
 402              		.loc 1 335 0 discriminator 2
 403 0058 FB7D     		ldrb	r3, [r7, #23]	@ zero_extendqisi2
 404 005a 0133     		adds	r3, r3, #1
 405 005c FB75     		strb	r3, [r7, #23]
 406              	.L32:
 335:.\Generated_Source\PSoC5/CyFlash.c ****                 for(i = 0u; i < CYDEV_ECC_ROW_SIZE; i++)
 407              		.loc 1 335 0 is_stmt 0 discriminator 1
 408 005e FB7D     		ldrb	r3, [r7, #23]	@ zero_extendqisi2
 409 0060 1F2B     		cmp	r3, #31
 410 0062 EDD9     		bls	.L33
 411              	.L31:
 338:.\Generated_Source\PSoC5/CyFlash.c ****                 }
 339:.\Generated_Source\PSoC5/CyFlash.c ****             }
 340:.\Generated_Source\PSoC5/CyFlash.c **** 
 341:.\Generated_Source\PSoC5/CyFlash.c ****             /* Copy rowdata to temporary buffer. */
 342:.\Generated_Source\PSoC5/CyFlash.c ****         #if(CY_PSOC3)
 343:.\Generated_Source\PSoC5/CyFlash.c ****             (void) memcpy((void *) rowBuffer, (void *)((uint32) rowData), (int16) CYDEV_FLS_ROW_SIZ
 344:.\Generated_Source\PSoC5/CyFlash.c ****         #else
 345:.\Generated_Source\PSoC5/CyFlash.c ****             (void) memcpy((void *) rowBuffer, (const void *) rowData, CYDEV_FLS_ROW_SIZE);
 412              		.loc 1 345 0 is_stmt 1 discriminator 1
 413 0064 0C4B     		ldr	r3, .L36
 414 0066 1B68     		ldr	r3, [r3]
 415 0068 1846     		mov	r0, r3
 416 006a 3968     		ldr	r1, [r7]
 417 006c 4FF48072 		mov	r2, #256
 418 0070 FFF7FEFF 		bl	memcpy
 346:.\Generated_Source\PSoC5/CyFlash.c ****         #endif  /* (CY_PSOC3) */
 347:.\Generated_Source\PSoC5/CyFlash.c **** 
 348:.\Generated_Source\PSoC5/CyFlash.c ****             status = CyWriteRowFull(arrayId, rowAddress, rowBuffer, rowSize);
 419              		.loc 1 348 0 discriminator 1
 420 0074 084B     		ldr	r3, .L36
 421 0076 1A68     		ldr	r2, [r3]
 422 0078 F879     		ldrb	r0, [r7, #7]	@ zero_extendqisi2
 423 007a B988     		ldrh	r1, [r7, #4]
 424 007c BB8A     		ldrh	r3, [r7, #20]
 425 007e FFF7FEFF 		bl	CyWriteRowFull
 426 0082 3861     		str	r0, [r7, #16]
 427 0084 02E0     		b	.L34
 428              	.L29:
 349:.\Generated_Source\PSoC5/CyFlash.c ****         }
 350:.\Generated_Source\PSoC5/CyFlash.c ****         else
 351:.\Generated_Source\PSoC5/CyFlash.c ****         {
 352:.\Generated_Source\PSoC5/CyFlash.c ****             status = CYRET_UNKNOWN;
 429              		.loc 1 352 0
 430 0086 4FF0FF33 		mov	r3, #-1
 431 008a 3B61     		str	r3, [r7, #16]
 432              	.L34:
 353:.\Generated_Source\PSoC5/CyFlash.c ****         }
 354:.\Generated_Source\PSoC5/CyFlash.c **** 
 355:.\Generated_Source\PSoC5/CyFlash.c ****         return(status);
 433              		.loc 1 355 0
 434 008c 3B69     		ldr	r3, [r7, #16]
 356:.\Generated_Source\PSoC5/CyFlash.c ****     }
 435              		.loc 1 356 0
 436 008e 1846     		mov	r0, r3
 437 0090 1837     		adds	r7, r7, #24
ARM GAS  C:\Users\Owner\AppData\Local\Temp\ccIGAJWk.s 			page 15


 438 0092 BD46     		mov	sp, r7
 439              		@ sp needed
 440 0094 80BD     		pop	{r7, pc}
 441              	.L37:
 442 0096 00BF     		.align	2
 443              	.L36:
 444 0098 00000000 		.word	rowBuffer
 445              		.cfi_endproc
 446              	.LFE5:
 447              		.size	CyWriteRowData, .-CyWriteRowData
 448              		.section	.text.CyWriteRowFull,"ax",%progbits
 449              		.align	2
 450              		.global	CyWriteRowFull
 451              		.thumb
 452              		.thumb_func
 453              		.type	CyWriteRowFull, %function
 454              	CyWriteRowFull:
 455              	.LFB6:
 357:.\Generated_Source\PSoC5/CyFlash.c **** 
 358:.\Generated_Source\PSoC5/CyFlash.c **** #endif /* (CYDEV_ECC_ENABLE == 0u) */
 359:.\Generated_Source\PSoC5/CyFlash.c **** 
 360:.\Generated_Source\PSoC5/CyFlash.c **** 
 361:.\Generated_Source\PSoC5/CyFlash.c **** #if ((CYDEV_ECC_ENABLE == 0u) && (CYDEV_CONFIGURATION_ECC == 0u))
 362:.\Generated_Source\PSoC5/CyFlash.c **** 
 363:.\Generated_Source\PSoC5/CyFlash.c ****     /*******************************************************************************
 364:.\Generated_Source\PSoC5/CyFlash.c ****     * Function Name: CyWriteRowConfig
 365:.\Generated_Source\PSoC5/CyFlash.c ****     ********************************************************************************
 366:.\Generated_Source\PSoC5/CyFlash.c ****     *
 367:.\Generated_Source\PSoC5/CyFlash.c ****     * Summary:
 368:.\Generated_Source\PSoC5/CyFlash.c ****     *  Sends a command to the SPC to load and program a row of config data in the Flash.
 369:.\Generated_Source\PSoC5/CyFlash.c ****     *  This function is only valid for Flash array IDs (not for EEPROM).
 370:.\Generated_Source\PSoC5/CyFlash.c ****     *
 371:.\Generated_Source\PSoC5/CyFlash.c ****     * Parameters:
 372:.\Generated_Source\PSoC5/CyFlash.c ****     *  arrayId:      ID of the array to write
 373:.\Generated_Source\PSoC5/CyFlash.c ****     *   The arrays in the part are sequential starting at the first ID for the
 374:.\Generated_Source\PSoC5/CyFlash.c ****     *   specific memory type. The array ID for the Flash memory lasts
 375:.\Generated_Source\PSoC5/CyFlash.c ****     *   from 0x00 to 0x3F.
 376:.\Generated_Source\PSoC5/CyFlash.c ****     *  rowAddress:   The address of the sector to erase.
 377:.\Generated_Source\PSoC5/CyFlash.c ****     *  rowECC:       The array of bytes to write.
 378:.\Generated_Source\PSoC5/CyFlash.c ****     *
 379:.\Generated_Source\PSoC5/CyFlash.c ****     * Return:
 380:.\Generated_Source\PSoC5/CyFlash.c ****     *  status:
 381:.\Generated_Source\PSoC5/CyFlash.c ****     *   CYRET_SUCCESS if successful.
 382:.\Generated_Source\PSoC5/CyFlash.c ****     *   CYRET_LOCKED if the SPC is already in use.
 383:.\Generated_Source\PSoC5/CyFlash.c ****     *   CYRET_CANCELED if command not accepted
 384:.\Generated_Source\PSoC5/CyFlash.c ****     *   CYRET_UNKNOWN if there was an SPC error.
 385:.\Generated_Source\PSoC5/CyFlash.c ****     *
 386:.\Generated_Source\PSoC5/CyFlash.c ****     *******************************************************************************/
 387:.\Generated_Source\PSoC5/CyFlash.c ****     cystatus CyWriteRowConfig(uint8 arrayId, uint16 rowAddress, const uint8 * rowECC)\
 388:.\Generated_Source\PSoC5/CyFlash.c ****     
 389:.\Generated_Source\PSoC5/CyFlash.c ****     {
 390:.\Generated_Source\PSoC5/CyFlash.c ****         uint32 offset;
 391:.\Generated_Source\PSoC5/CyFlash.c ****         uint16 i;
 392:.\Generated_Source\PSoC5/CyFlash.c ****         cystatus status;
 393:.\Generated_Source\PSoC5/CyFlash.c **** 
 394:.\Generated_Source\PSoC5/CyFlash.c ****         /* Check whether rowBuffer pointer has been initialized by CySetFlashEEBuffer() */
 395:.\Generated_Source\PSoC5/CyFlash.c ****         if(NULL != rowBuffer)
ARM GAS  C:\Users\Owner\AppData\Local\Temp\ccIGAJWk.s 			page 16


 396:.\Generated_Source\PSoC5/CyFlash.c ****         {
 397:.\Generated_Source\PSoC5/CyFlash.c ****             /* Read existing flash data. */
 398:.\Generated_Source\PSoC5/CyFlash.c ****             offset = ((uint32)arrayId * CYDEV_FLS_SECTOR_SIZE) +
 399:.\Generated_Source\PSoC5/CyFlash.c ****                      ((uint32)rowAddress * CYDEV_FLS_ROW_SIZE);
 400:.\Generated_Source\PSoC5/CyFlash.c **** 
 401:.\Generated_Source\PSoC5/CyFlash.c ****             #if (CYDEV_FLS_BASE != 0u)
 402:.\Generated_Source\PSoC5/CyFlash.c ****                 offset += CYDEV_FLS_BASE;
 403:.\Generated_Source\PSoC5/CyFlash.c ****             #endif  /* (CYDEV_FLS_BASE != 0u) */
 404:.\Generated_Source\PSoC5/CyFlash.c **** 
 405:.\Generated_Source\PSoC5/CyFlash.c ****             for (i = 0u; i < CYDEV_FLS_ROW_SIZE; i++)
 406:.\Generated_Source\PSoC5/CyFlash.c ****             {
 407:.\Generated_Source\PSoC5/CyFlash.c ****                 rowBuffer[i] = CY_GET_XTND_REG8((void CYFAR *)(offset + i));
 408:.\Generated_Source\PSoC5/CyFlash.c ****             }
 409:.\Generated_Source\PSoC5/CyFlash.c **** 
 410:.\Generated_Source\PSoC5/CyFlash.c ****             #if(CY_PSOC3)
 411:.\Generated_Source\PSoC5/CyFlash.c ****                 (void) memcpy((void *)&rowBuffer[CYDEV_FLS_ROW_SIZE],
 412:.\Generated_Source\PSoC5/CyFlash.c ****                               (void *)(uint32)rowECC,
 413:.\Generated_Source\PSoC5/CyFlash.c ****                               (int16)CYDEV_ECC_ROW_SIZE);
 414:.\Generated_Source\PSoC5/CyFlash.c ****             #else
 415:.\Generated_Source\PSoC5/CyFlash.c ****                 (void) memcpy((void *)&rowBuffer[CYDEV_FLS_ROW_SIZE],
 416:.\Generated_Source\PSoC5/CyFlash.c ****                               (const void *)rowECC,
 417:.\Generated_Source\PSoC5/CyFlash.c ****                               CYDEV_ECC_ROW_SIZE);
 418:.\Generated_Source\PSoC5/CyFlash.c ****             #endif  /* (CY_PSOC3) */
 419:.\Generated_Source\PSoC5/CyFlash.c **** 
 420:.\Generated_Source\PSoC5/CyFlash.c ****             status = CyWriteRowFull(arrayId, rowAddress, rowBuffer, CYDEV_FLS_ROW_SIZE + CYDEV_ECC_
 421:.\Generated_Source\PSoC5/CyFlash.c ****         }
 422:.\Generated_Source\PSoC5/CyFlash.c ****         else
 423:.\Generated_Source\PSoC5/CyFlash.c ****         {
 424:.\Generated_Source\PSoC5/CyFlash.c ****             status = CYRET_UNKNOWN;
 425:.\Generated_Source\PSoC5/CyFlash.c ****         }
 426:.\Generated_Source\PSoC5/CyFlash.c **** 
 427:.\Generated_Source\PSoC5/CyFlash.c ****         return (status);
 428:.\Generated_Source\PSoC5/CyFlash.c ****     }
 429:.\Generated_Source\PSoC5/CyFlash.c **** 
 430:.\Generated_Source\PSoC5/CyFlash.c **** #endif  /* ((CYDEV_ECC_ENABLE == 0u) && (CYDEV_CONFIGURATION_ECC == 0u)) */
 431:.\Generated_Source\PSoC5/CyFlash.c **** 
 432:.\Generated_Source\PSoC5/CyFlash.c **** 
 433:.\Generated_Source\PSoC5/CyFlash.c **** 
 434:.\Generated_Source\PSoC5/CyFlash.c **** /*******************************************************************************
 435:.\Generated_Source\PSoC5/CyFlash.c **** * Function Name: CyWriteRowFull
 436:.\Generated_Source\PSoC5/CyFlash.c **** ********************************************************************************
 437:.\Generated_Source\PSoC5/CyFlash.c **** * Summary:
 438:.\Generated_Source\PSoC5/CyFlash.c **** *  Sends a command to the SPC to load and program a row of data in the Flash.
 439:.\Generated_Source\PSoC5/CyFlash.c **** *  rowData array is expected to contain Flash and ECC data if needed.
 440:.\Generated_Source\PSoC5/CyFlash.c **** *
 441:.\Generated_Source\PSoC5/CyFlash.c **** * Parameters:
 442:.\Generated_Source\PSoC5/CyFlash.c **** *  arrayId:    FLASH or EEPROM array id.
 443:.\Generated_Source\PSoC5/CyFlash.c **** *  rowData:    Pointer to a row of data to write.
 444:.\Generated_Source\PSoC5/CyFlash.c **** *  rowNumber:  Zero based number of the row.
 445:.\Generated_Source\PSoC5/CyFlash.c **** *  rowSize:    Size of the row.
 446:.\Generated_Source\PSoC5/CyFlash.c **** *
 447:.\Generated_Source\PSoC5/CyFlash.c **** * Return:
 448:.\Generated_Source\PSoC5/CyFlash.c **** *  CYRET_SUCCESS if successful.
 449:.\Generated_Source\PSoC5/CyFlash.c **** *  CYRET_LOCKED if the SPC is already in use.
 450:.\Generated_Source\PSoC5/CyFlash.c **** *  CYRET_CANCELED if command not accepted
 451:.\Generated_Source\PSoC5/CyFlash.c **** *  CYRET_UNKNOWN if there was an SPC error.
 452:.\Generated_Source\PSoC5/CyFlash.c **** *
ARM GAS  C:\Users\Owner\AppData\Local\Temp\ccIGAJWk.s 			page 17


 453:.\Generated_Source\PSoC5/CyFlash.c **** *******************************************************************************/
 454:.\Generated_Source\PSoC5/CyFlash.c **** cystatus CyWriteRowFull(uint8 arrayId, uint16 rowNumber, const uint8* rowData, uint16 rowSize) \
 455:.\Generated_Source\PSoC5/CyFlash.c ****         
 456:.\Generated_Source\PSoC5/CyFlash.c **** {
 456              		.loc 1 456 0
 457              		.cfi_startproc
 458              		@ args = 0, pretend = 0, frame = 24
 459              		@ frame_needed = 1, uses_anonymous_args = 0
 460 0000 80B5     		push	{r7, lr}
 461              		.cfi_def_cfa_offset 8
 462              		.cfi_offset 7, -8
 463              		.cfi_offset 14, -4
 464 0002 86B0     		sub	sp, sp, #24
 465              		.cfi_def_cfa_offset 32
 466 0004 00AF     		add	r7, sp, #0
 467              		.cfi_def_cfa_register 7
 468 0006 BA60     		str	r2, [r7, #8]
 469 0008 0246     		mov	r2, r0
 470 000a FA73     		strb	r2, [r7, #15]
 471 000c 0A46     		mov	r2, r1	@ movhi
 472 000e BA81     		strh	r2, [r7, #12]	@ movhi
 473 0010 FB80     		strh	r3, [r7, #6]	@ movhi
 457:.\Generated_Source\PSoC5/CyFlash.c ****     cystatus status;
 458:.\Generated_Source\PSoC5/CyFlash.c **** 
 459:.\Generated_Source\PSoC5/CyFlash.c ****     if(CySpcLock() == CYRET_SUCCESS)
 474              		.loc 1 459 0
 475 0012 FFF7FEFF 		bl	CySpcLock
 476 0016 0346     		mov	r3, r0
 477 0018 002B     		cmp	r3, #0
 478 001a 5AD1     		bne	.L39
 460:.\Generated_Source\PSoC5/CyFlash.c ****     {
 461:.\Generated_Source\PSoC5/CyFlash.c ****         /* Load row data into SPC internal latch */
 462:.\Generated_Source\PSoC5/CyFlash.c ****         status = CySpcLoadRow(arrayId, rowData, rowSize);
 479              		.loc 1 462 0
 480 001c FA7B     		ldrb	r2, [r7, #15]	@ zero_extendqisi2
 481 001e FB88     		ldrh	r3, [r7, #6]
 482 0020 1046     		mov	r0, r2
 483 0022 B968     		ldr	r1, [r7, #8]
 484 0024 1A46     		mov	r2, r3
 485 0026 FFF7FEFF 		bl	CySpcLoadRow
 486 002a 7861     		str	r0, [r7, #20]
 463:.\Generated_Source\PSoC5/CyFlash.c **** 
 464:.\Generated_Source\PSoC5/CyFlash.c ****         if(CYRET_STARTED == status)
 487              		.loc 1 464 0
 488 002c 7B69     		ldr	r3, [r7, #20]
 489 002e 072B     		cmp	r3, #7
 490 0030 4CD1     		bne	.L40
 465:.\Generated_Source\PSoC5/CyFlash.c ****         {
 466:.\Generated_Source\PSoC5/CyFlash.c ****             while(CY_SPC_BUSY)
 491              		.loc 1 466 0
 492 0032 02E0     		b	.L41
 493              	.L42:
 467:.\Generated_Source\PSoC5/CyFlash.c ****             {
 468:.\Generated_Source\PSoC5/CyFlash.c ****                 /* Wait for SPC to finish and get SPC status */
 469:.\Generated_Source\PSoC5/CyFlash.c ****                 CyDelayUs(1u);
 494              		.loc 1 469 0
 495 0034 0120     		movs	r0, #1
ARM GAS  C:\Users\Owner\AppData\Local\Temp\ccIGAJWk.s 			page 18


 496 0036 FFF7FEFF 		bl	CyDelayUs
 497              	.L41:
 466:.\Generated_Source\PSoC5/CyFlash.c ****             while(CY_SPC_BUSY)
 498              		.loc 1 466 0 discriminator 1
 499 003a 294B     		ldr	r3, .L50
 500 003c 1B78     		ldrb	r3, [r3]
 501 003e DBB2     		uxtb	r3, r3
 502 0040 03F00203 		and	r3, r3, #2
 503 0044 002B     		cmp	r3, #0
 504 0046 F5D0     		beq	.L42
 470:.\Generated_Source\PSoC5/CyFlash.c ****             }
 471:.\Generated_Source\PSoC5/CyFlash.c **** 
 472:.\Generated_Source\PSoC5/CyFlash.c ****             /* Hide SPC status */
 473:.\Generated_Source\PSoC5/CyFlash.c ****             if(CY_SPC_STATUS_SUCCESS == CY_SPC_READ_STATUS)
 505              		.loc 1 473 0
 506 0048 254B     		ldr	r3, .L50
 507 004a 1B78     		ldrb	r3, [r3]
 508 004c DBB2     		uxtb	r3, r3
 509 004e 03F00203 		and	r3, r3, #2
 510 0052 002B     		cmp	r3, #0
 511 0054 09D0     		beq	.L43
 512              		.loc 1 473 0 is_stmt 0 discriminator 1
 513 0056 224B     		ldr	r3, .L50
 514 0058 1B78     		ldrb	r3, [r3]
 515 005a DBB2     		uxtb	r3, r3
 516 005c 9B08     		lsrs	r3, r3, #2
 517 005e DBB2     		uxtb	r3, r3
 518 0060 002B     		cmp	r3, #0
 519 0062 02D1     		bne	.L43
 474:.\Generated_Source\PSoC5/CyFlash.c ****             {
 475:.\Generated_Source\PSoC5/CyFlash.c ****                 status = CYRET_SUCCESS;
 520              		.loc 1 475 0 is_stmt 1
 521 0064 0023     		movs	r3, #0
 522 0066 7B61     		str	r3, [r7, #20]
 523 0068 02E0     		b	.L44
 524              	.L43:
 476:.\Generated_Source\PSoC5/CyFlash.c ****             }
 477:.\Generated_Source\PSoC5/CyFlash.c ****             else
 478:.\Generated_Source\PSoC5/CyFlash.c ****             {
 479:.\Generated_Source\PSoC5/CyFlash.c ****                 status = CYRET_UNKNOWN;
 525              		.loc 1 479 0
 526 006a 4FF0FF33 		mov	r3, #-1
 527 006e 7B61     		str	r3, [r7, #20]
 528              	.L44:
 480:.\Generated_Source\PSoC5/CyFlash.c ****             }
 481:.\Generated_Source\PSoC5/CyFlash.c **** 
 482:.\Generated_Source\PSoC5/CyFlash.c ****             if(CYRET_SUCCESS == status)
 529              		.loc 1 482 0
 530 0070 7B69     		ldr	r3, [r7, #20]
 531 0072 002B     		cmp	r3, #0
 532 0074 2AD1     		bne	.L40
 483:.\Generated_Source\PSoC5/CyFlash.c ****             {
 484:.\Generated_Source\PSoC5/CyFlash.c ****                 /* Erase and program flash with data from SPC interval latch */
 485:.\Generated_Source\PSoC5/CyFlash.c ****                 status = CySpcWriteRow(arrayId, rowNumber, dieTemperature[0u], dieTemperature[1u]);
 533              		.loc 1 485 0
 534 0076 1B4B     		ldr	r3, .L50+4
 535 0078 1A78     		ldrb	r2, [r3]	@ zero_extendqisi2
ARM GAS  C:\Users\Owner\AppData\Local\Temp\ccIGAJWk.s 			page 19


 536 007a 1A4B     		ldr	r3, .L50+4
 537 007c 5B78     		ldrb	r3, [r3, #1]	@ zero_extendqisi2
 538 007e F87B     		ldrb	r0, [r7, #15]	@ zero_extendqisi2
 539 0080 B989     		ldrh	r1, [r7, #12]
 540 0082 FFF7FEFF 		bl	CySpcWriteRow
 541 0086 7861     		str	r0, [r7, #20]
 486:.\Generated_Source\PSoC5/CyFlash.c **** 
 487:.\Generated_Source\PSoC5/CyFlash.c ****                 if(CYRET_STARTED == status)
 542              		.loc 1 487 0
 543 0088 7B69     		ldr	r3, [r7, #20]
 544 008a 072B     		cmp	r3, #7
 545 008c 1ED1     		bne	.L40
 488:.\Generated_Source\PSoC5/CyFlash.c ****                 {
 489:.\Generated_Source\PSoC5/CyFlash.c ****                     while(CY_SPC_BUSY)
 546              		.loc 1 489 0
 547 008e 02E0     		b	.L45
 548              	.L46:
 490:.\Generated_Source\PSoC5/CyFlash.c ****                     {
 491:.\Generated_Source\PSoC5/CyFlash.c ****                         /* Wait for SPC to finish and get SPC status */
 492:.\Generated_Source\PSoC5/CyFlash.c ****                         CyDelayUs(1u);
 549              		.loc 1 492 0
 550 0090 0120     		movs	r0, #1
 551 0092 FFF7FEFF 		bl	CyDelayUs
 552              	.L45:
 489:.\Generated_Source\PSoC5/CyFlash.c ****                     while(CY_SPC_BUSY)
 553              		.loc 1 489 0 discriminator 1
 554 0096 124B     		ldr	r3, .L50
 555 0098 1B78     		ldrb	r3, [r3]
 556 009a DBB2     		uxtb	r3, r3
 557 009c 03F00203 		and	r3, r3, #2
 558 00a0 002B     		cmp	r3, #0
 559 00a2 F5D0     		beq	.L46
 493:.\Generated_Source\PSoC5/CyFlash.c ****                     }
 494:.\Generated_Source\PSoC5/CyFlash.c **** 
 495:.\Generated_Source\PSoC5/CyFlash.c ****                     /* Hide SPC status */
 496:.\Generated_Source\PSoC5/CyFlash.c ****                     if(CY_SPC_STATUS_SUCCESS == CY_SPC_READ_STATUS)
 560              		.loc 1 496 0
 561 00a4 0E4B     		ldr	r3, .L50
 562 00a6 1B78     		ldrb	r3, [r3]
 563 00a8 DBB2     		uxtb	r3, r3
 564 00aa 03F00203 		and	r3, r3, #2
 565 00ae 002B     		cmp	r3, #0
 566 00b0 09D0     		beq	.L47
 567              		.loc 1 496 0 is_stmt 0 discriminator 1
 568 00b2 0B4B     		ldr	r3, .L50
 569 00b4 1B78     		ldrb	r3, [r3]
 570 00b6 DBB2     		uxtb	r3, r3
 571 00b8 9B08     		lsrs	r3, r3, #2
 572 00ba DBB2     		uxtb	r3, r3
 573 00bc 002B     		cmp	r3, #0
 574 00be 02D1     		bne	.L47
 497:.\Generated_Source\PSoC5/CyFlash.c ****                     {
 498:.\Generated_Source\PSoC5/CyFlash.c ****                         status = CYRET_SUCCESS;
 575              		.loc 1 498 0 is_stmt 1
 576 00c0 0023     		movs	r3, #0
 577 00c2 7B61     		str	r3, [r7, #20]
 578 00c4 02E0     		b	.L40
ARM GAS  C:\Users\Owner\AppData\Local\Temp\ccIGAJWk.s 			page 20


 579              	.L47:
 499:.\Generated_Source\PSoC5/CyFlash.c ****                     }
 500:.\Generated_Source\PSoC5/CyFlash.c ****                     else
 501:.\Generated_Source\PSoC5/CyFlash.c ****                     {
 502:.\Generated_Source\PSoC5/CyFlash.c ****                         status = CYRET_UNKNOWN;
 580              		.loc 1 502 0
 581 00c6 4FF0FF33 		mov	r3, #-1
 582 00ca 7B61     		str	r3, [r7, #20]
 583              	.L40:
 503:.\Generated_Source\PSoC5/CyFlash.c ****                     }
 504:.\Generated_Source\PSoC5/CyFlash.c ****                 }
 505:.\Generated_Source\PSoC5/CyFlash.c ****             }
 506:.\Generated_Source\PSoC5/CyFlash.c **** 
 507:.\Generated_Source\PSoC5/CyFlash.c ****         }
 508:.\Generated_Source\PSoC5/CyFlash.c **** 
 509:.\Generated_Source\PSoC5/CyFlash.c ****         CySpcUnlock();
 584              		.loc 1 509 0
 585 00cc FFF7FEFF 		bl	CySpcUnlock
 586 00d0 01E0     		b	.L48
 587              	.L39:
 510:.\Generated_Source\PSoC5/CyFlash.c ****     }
 511:.\Generated_Source\PSoC5/CyFlash.c ****     else
 512:.\Generated_Source\PSoC5/CyFlash.c ****     {
 513:.\Generated_Source\PSoC5/CyFlash.c ****         status = CYRET_LOCKED;
 588              		.loc 1 513 0
 589 00d2 0423     		movs	r3, #4
 590 00d4 7B61     		str	r3, [r7, #20]
 591              	.L48:
 514:.\Generated_Source\PSoC5/CyFlash.c ****     }
 515:.\Generated_Source\PSoC5/CyFlash.c **** 
 516:.\Generated_Source\PSoC5/CyFlash.c ****     return(status);
 592              		.loc 1 516 0
 593 00d6 7B69     		ldr	r3, [r7, #20]
 517:.\Generated_Source\PSoC5/CyFlash.c **** }
 594              		.loc 1 517 0
 595 00d8 1846     		mov	r0, r3
 596 00da 1837     		adds	r7, r7, #24
 597 00dc BD46     		mov	sp, r7
 598              		@ sp needed
 599 00de 80BD     		pop	{r7, pc}
 600              	.L51:
 601              		.align	2
 602              	.L50:
 603 00e0 22470040 		.word	1073760034
 604 00e4 00000000 		.word	dieTemperature
 605              		.cfi_endproc
 606              	.LFE6:
 607              		.size	CyWriteRowFull, .-CyWriteRowFull
 608              		.section	.text.CyFlash_SetWaitCycles,"ax",%progbits
 609              		.align	2
 610              		.global	CyFlash_SetWaitCycles
 611              		.thumb
 612              		.thumb_func
 613              		.type	CyFlash_SetWaitCycles, %function
 614              	CyFlash_SetWaitCycles:
 615              	.LFB7:
 518:.\Generated_Source\PSoC5/CyFlash.c **** 
ARM GAS  C:\Users\Owner\AppData\Local\Temp\ccIGAJWk.s 			page 21


 519:.\Generated_Source\PSoC5/CyFlash.c **** 
 520:.\Generated_Source\PSoC5/CyFlash.c **** /*******************************************************************************
 521:.\Generated_Source\PSoC5/CyFlash.c **** * Function Name: CyFlash_SetWaitCycles
 522:.\Generated_Source\PSoC5/CyFlash.c **** ********************************************************************************
 523:.\Generated_Source\PSoC5/CyFlash.c **** *
 524:.\Generated_Source\PSoC5/CyFlash.c **** * Summary:
 525:.\Generated_Source\PSoC5/CyFlash.c **** *  Sets the number of clock cycles the cache will wait before it samples data
 526:.\Generated_Source\PSoC5/CyFlash.c **** *  coming back from the Flash. This function must be called before increasing the CPU
 527:.\Generated_Source\PSoC5/CyFlash.c **** *  clock frequency. It can optionally be called after lowering the CPU clock
 528:.\Generated_Source\PSoC5/CyFlash.c **** *  frequency in order to improve the CPU performance.
 529:.\Generated_Source\PSoC5/CyFlash.c **** *
 530:.\Generated_Source\PSoC5/CyFlash.c **** * Parameters:
 531:.\Generated_Source\PSoC5/CyFlash.c **** *  uint8 freq:
 532:.\Generated_Source\PSoC5/CyFlash.c **** *   Frequency of operation in Megahertz.
 533:.\Generated_Source\PSoC5/CyFlash.c **** *
 534:.\Generated_Source\PSoC5/CyFlash.c **** * Return:
 535:.\Generated_Source\PSoC5/CyFlash.c **** *  None
 536:.\Generated_Source\PSoC5/CyFlash.c **** *
 537:.\Generated_Source\PSoC5/CyFlash.c **** *******************************************************************************/
 538:.\Generated_Source\PSoC5/CyFlash.c **** void CyFlash_SetWaitCycles(uint8 freq) 
 539:.\Generated_Source\PSoC5/CyFlash.c **** {
 616              		.loc 1 539 0
 617              		.cfi_startproc
 618              		@ args = 0, pretend = 0, frame = 16
 619              		@ frame_needed = 1, uses_anonymous_args = 0
 620 0000 80B5     		push	{r7, lr}
 621              		.cfi_def_cfa_offset 8
 622              		.cfi_offset 7, -8
 623              		.cfi_offset 14, -4
 624 0002 84B0     		sub	sp, sp, #16
 625              		.cfi_def_cfa_offset 24
 626 0004 00AF     		add	r7, sp, #0
 627              		.cfi_def_cfa_register 7
 628 0006 0346     		mov	r3, r0
 629 0008 FB71     		strb	r3, [r7, #7]
 540:.\Generated_Source\PSoC5/CyFlash.c ****     uint8 interruptState;
 541:.\Generated_Source\PSoC5/CyFlash.c **** 
 542:.\Generated_Source\PSoC5/CyFlash.c ****     /* Save current global interrupt enable and disable it */
 543:.\Generated_Source\PSoC5/CyFlash.c ****     interruptState = CyEnterCriticalSection();
 630              		.loc 1 543 0
 631 000a FFF7FEFF 		bl	CyEnterCriticalSection
 632 000e 0346     		mov	r3, r0
 633 0010 FB73     		strb	r3, [r7, #15]
 544:.\Generated_Source\PSoC5/CyFlash.c **** 
 545:.\Generated_Source\PSoC5/CyFlash.c ****     /***************************************************************************
 546:.\Generated_Source\PSoC5/CyFlash.c ****     * The number of clock cycles the cache will wait before it samples data
 547:.\Generated_Source\PSoC5/CyFlash.c ****     * coming back from the Flash must be equal or greater to to the CPU frequency
 548:.\Generated_Source\PSoC5/CyFlash.c ****     * outlined in clock cycles.
 549:.\Generated_Source\PSoC5/CyFlash.c ****     ***************************************************************************/
 550:.\Generated_Source\PSoC5/CyFlash.c **** 
 551:.\Generated_Source\PSoC5/CyFlash.c ****     #if (CY_PSOC3)
 552:.\Generated_Source\PSoC5/CyFlash.c **** 
 553:.\Generated_Source\PSoC5/CyFlash.c ****         if (freq <= 22u)
 554:.\Generated_Source\PSoC5/CyFlash.c ****         {
 555:.\Generated_Source\PSoC5/CyFlash.c ****             *CY_FLASH_CONTROL_PTR = ((*CY_FLASH_CONTROL_PTR & ((uint8)(~CY_FLASH_CYCLES_MASK))) |
 556:.\Generated_Source\PSoC5/CyFlash.c ****                 ((uint8)(CY_FLASH_LESSER_OR_EQUAL_22MHz << CY_FLASH_CYCLES_MASK_SHIFT)));
 557:.\Generated_Source\PSoC5/CyFlash.c ****         }
ARM GAS  C:\Users\Owner\AppData\Local\Temp\ccIGAJWk.s 			page 22


 558:.\Generated_Source\PSoC5/CyFlash.c ****         else if (freq <= 44u)
 559:.\Generated_Source\PSoC5/CyFlash.c ****         {
 560:.\Generated_Source\PSoC5/CyFlash.c ****             *CY_FLASH_CONTROL_PTR = ((*CY_FLASH_CONTROL_PTR & ((uint8)(~CY_FLASH_CYCLES_MASK))) |
 561:.\Generated_Source\PSoC5/CyFlash.c ****                 ((uint8)(CY_FLASH_LESSER_OR_EQUAL_44MHz << CY_FLASH_CYCLES_MASK_SHIFT)));
 562:.\Generated_Source\PSoC5/CyFlash.c ****         }
 563:.\Generated_Source\PSoC5/CyFlash.c ****         else
 564:.\Generated_Source\PSoC5/CyFlash.c ****         {
 565:.\Generated_Source\PSoC5/CyFlash.c ****             *CY_FLASH_CONTROL_PTR = ((*CY_FLASH_CONTROL_PTR & ((uint8)(~CY_FLASH_CYCLES_MASK))) |
 566:.\Generated_Source\PSoC5/CyFlash.c ****                 ((uint8)(CY_FLASH_GREATER_44MHz << CY_FLASH_CYCLES_MASK_SHIFT)));
 567:.\Generated_Source\PSoC5/CyFlash.c ****         }
 568:.\Generated_Source\PSoC5/CyFlash.c **** 
 569:.\Generated_Source\PSoC5/CyFlash.c ****     #endif  /* (CY_PSOC3) */
 570:.\Generated_Source\PSoC5/CyFlash.c **** 
 571:.\Generated_Source\PSoC5/CyFlash.c **** 
 572:.\Generated_Source\PSoC5/CyFlash.c ****     #if (CY_PSOC5)
 573:.\Generated_Source\PSoC5/CyFlash.c **** 
 574:.\Generated_Source\PSoC5/CyFlash.c ****         if (freq <= 16u)
 634              		.loc 1 574 0
 635 0012 FB79     		ldrb	r3, [r7, #7]	@ zero_extendqisi2
 636 0014 102B     		cmp	r3, #16
 637 0016 0DD8     		bhi	.L53
 575:.\Generated_Source\PSoC5/CyFlash.c ****         {
 576:.\Generated_Source\PSoC5/CyFlash.c ****             *CY_FLASH_CONTROL_PTR = ((*CY_FLASH_CONTROL_PTR & ((uint8)(~CY_FLASH_CYCLES_MASK))) |
 638              		.loc 1 576 0
 639 0018 1C4B     		ldr	r3, .L57
 640 001a 1C4A     		ldr	r2, .L57
 641 001c 1278     		ldrb	r2, [r2]
 642 001e D2B2     		uxtb	r2, r2
 643 0020 D2B2     		uxtb	r2, r2
 644 0022 02F03F02 		and	r2, r2, #63
 645 0026 D2B2     		uxtb	r2, r2
 646 0028 42F04002 		orr	r2, r2, #64
 647 002c D2B2     		uxtb	r2, r2
 648 002e D2B2     		uxtb	r2, r2
 649 0030 1A70     		strb	r2, [r3]
 650 0032 24E0     		b	.L54
 651              	.L53:
 577:.\Generated_Source\PSoC5/CyFlash.c ****                 ((uint8)(CY_FLASH_LESSER_OR_EQUAL_16MHz << CY_FLASH_CYCLES_MASK_SHIFT)));
 578:.\Generated_Source\PSoC5/CyFlash.c ****         }
 579:.\Generated_Source\PSoC5/CyFlash.c ****         else if (freq <= 33u)
 652              		.loc 1 579 0
 653 0034 FB79     		ldrb	r3, [r7, #7]	@ zero_extendqisi2
 654 0036 212B     		cmp	r3, #33
 655 0038 0DD8     		bhi	.L55
 580:.\Generated_Source\PSoC5/CyFlash.c ****         {
 581:.\Generated_Source\PSoC5/CyFlash.c ****             *CY_FLASH_CONTROL_PTR = ((*CY_FLASH_CONTROL_PTR & ((uint8)(~CY_FLASH_CYCLES_MASK))) |
 656              		.loc 1 581 0
 657 003a 144B     		ldr	r3, .L57
 658 003c 134A     		ldr	r2, .L57
 659 003e 1278     		ldrb	r2, [r2]
 660 0040 D2B2     		uxtb	r2, r2
 661 0042 D2B2     		uxtb	r2, r2
 662 0044 02F03F02 		and	r2, r2, #63
 663 0048 D2B2     		uxtb	r2, r2
 664 004a 62F07F02 		orn	r2, r2, #127
 665 004e D2B2     		uxtb	r2, r2
 666 0050 D2B2     		uxtb	r2, r2
ARM GAS  C:\Users\Owner\AppData\Local\Temp\ccIGAJWk.s 			page 23


 667 0052 1A70     		strb	r2, [r3]
 668 0054 13E0     		b	.L54
 669              	.L55:
 582:.\Generated_Source\PSoC5/CyFlash.c ****                 ((uint8)(CY_FLASH_LESSER_OR_EQUAL_33MHz << CY_FLASH_CYCLES_MASK_SHIFT)));
 583:.\Generated_Source\PSoC5/CyFlash.c ****         }
 584:.\Generated_Source\PSoC5/CyFlash.c ****         else if (freq <= 50u)
 670              		.loc 1 584 0
 671 0056 FB79     		ldrb	r3, [r7, #7]	@ zero_extendqisi2
 672 0058 322B     		cmp	r3, #50
 673 005a 08D8     		bhi	.L56
 585:.\Generated_Source\PSoC5/CyFlash.c ****         {
 586:.\Generated_Source\PSoC5/CyFlash.c ****             *CY_FLASH_CONTROL_PTR = ((*CY_FLASH_CONTROL_PTR & ((uint8)(~CY_FLASH_CYCLES_MASK))) |
 674              		.loc 1 586 0
 675 005c 0B4B     		ldr	r3, .L57
 676 005e 0B4A     		ldr	r2, .L57
 677 0060 1278     		ldrb	r2, [r2]
 678 0062 D2B2     		uxtb	r2, r2
 679 0064 62F03F02 		orn	r2, r2, #63
 680 0068 D2B2     		uxtb	r2, r2
 681 006a 1A70     		strb	r2, [r3]
 682 006c 07E0     		b	.L54
 683              	.L56:
 587:.\Generated_Source\PSoC5/CyFlash.c ****                 ((uint8)(CY_FLASH_LESSER_OR_EQUAL_50MHz << CY_FLASH_CYCLES_MASK_SHIFT)));
 588:.\Generated_Source\PSoC5/CyFlash.c ****         }
 589:.\Generated_Source\PSoC5/CyFlash.c ****         else
 590:.\Generated_Source\PSoC5/CyFlash.c ****         {
 591:.\Generated_Source\PSoC5/CyFlash.c ****             *CY_FLASH_CONTROL_PTR = ((*CY_FLASH_CONTROL_PTR & ((uint8)(~CY_FLASH_CYCLES_MASK))) |
 684              		.loc 1 591 0
 685 006e 074B     		ldr	r3, .L57
 686 0070 064A     		ldr	r2, .L57
 687 0072 1278     		ldrb	r2, [r2]
 688 0074 D2B2     		uxtb	r2, r2
 689 0076 02F03F02 		and	r2, r2, #63
 690 007a D2B2     		uxtb	r2, r2
 691 007c 1A70     		strb	r2, [r3]
 692              	.L54:
 592:.\Generated_Source\PSoC5/CyFlash.c ****                 ((uint8)(CY_FLASH_GREATER_51MHz << CY_FLASH_CYCLES_MASK_SHIFT)));
 593:.\Generated_Source\PSoC5/CyFlash.c ****         }
 594:.\Generated_Source\PSoC5/CyFlash.c **** 
 595:.\Generated_Source\PSoC5/CyFlash.c ****     #endif  /* (CY_PSOC5) */
 596:.\Generated_Source\PSoC5/CyFlash.c **** 
 597:.\Generated_Source\PSoC5/CyFlash.c ****     /* Restore global interrupt enable state */
 598:.\Generated_Source\PSoC5/CyFlash.c ****     CyExitCriticalSection(interruptState);
 693              		.loc 1 598 0
 694 007e FB7B     		ldrb	r3, [r7, #15]	@ zero_extendqisi2
 695 0080 1846     		mov	r0, r3
 696 0082 FFF7FEFF 		bl	CyExitCriticalSection
 599:.\Generated_Source\PSoC5/CyFlash.c **** }
 697              		.loc 1 599 0
 698 0086 1037     		adds	r7, r7, #16
 699 0088 BD46     		mov	sp, r7
 700              		@ sp needed
 701 008a 80BD     		pop	{r7, pc}
 702              	.L58:
 703              		.align	2
 704              	.L57:
 705 008c 00480040 		.word	1073760256
ARM GAS  C:\Users\Owner\AppData\Local\Temp\ccIGAJWk.s 			page 24


 706              		.cfi_endproc
 707              	.LFE7:
 708              		.size	CyFlash_SetWaitCycles, .-CyFlash_SetWaitCycles
 709              		.section	.text.CyEEPROM_Start,"ax",%progbits
 710              		.align	2
 711              		.global	CyEEPROM_Start
 712              		.thumb
 713              		.thumb_func
 714              		.type	CyEEPROM_Start, %function
 715              	CyEEPROM_Start:
 716              	.LFB8:
 600:.\Generated_Source\PSoC5/CyFlash.c **** 
 601:.\Generated_Source\PSoC5/CyFlash.c **** 
 602:.\Generated_Source\PSoC5/CyFlash.c **** /*******************************************************************************
 603:.\Generated_Source\PSoC5/CyFlash.c **** * Function Name: CyEEPROM_Start
 604:.\Generated_Source\PSoC5/CyFlash.c **** ********************************************************************************
 605:.\Generated_Source\PSoC5/CyFlash.c **** *
 606:.\Generated_Source\PSoC5/CyFlash.c **** * Summary:
 607:.\Generated_Source\PSoC5/CyFlash.c **** *  Enable the EEPROM.
 608:.\Generated_Source\PSoC5/CyFlash.c **** *
 609:.\Generated_Source\PSoC5/CyFlash.c **** * Parameters:
 610:.\Generated_Source\PSoC5/CyFlash.c **** *  None
 611:.\Generated_Source\PSoC5/CyFlash.c **** *
 612:.\Generated_Source\PSoC5/CyFlash.c **** * Return:
 613:.\Generated_Source\PSoC5/CyFlash.c **** *  None
 614:.\Generated_Source\PSoC5/CyFlash.c **** *
 615:.\Generated_Source\PSoC5/CyFlash.c **** *******************************************************************************/
 616:.\Generated_Source\PSoC5/CyFlash.c **** void CyEEPROM_Start(void) 
 617:.\Generated_Source\PSoC5/CyFlash.c **** {
 717              		.loc 1 617 0
 718              		.cfi_startproc
 719              		@ args = 0, pretend = 0, frame = 0
 720              		@ frame_needed = 1, uses_anonymous_args = 0
 721              		@ link register save eliminated.
 722 0000 80B4     		push	{r7}
 723              		.cfi_def_cfa_offset 4
 724              		.cfi_offset 7, -4
 725 0002 00AF     		add	r7, sp, #0
 726              		.cfi_def_cfa_register 7
 618:.\Generated_Source\PSoC5/CyFlash.c ****     /* Active Power Mode */
 619:.\Generated_Source\PSoC5/CyFlash.c ****     *CY_FLASH_PM_ACT_EEFLASH_PTR |= CY_FLASH_PM_EE_MASK;
 727              		.loc 1 619 0
 728 0004 094B     		ldr	r3, .L60
 729 0006 094A     		ldr	r2, .L60
 730 0008 1278     		ldrb	r2, [r2]
 731 000a D2B2     		uxtb	r2, r2
 732 000c 42F01002 		orr	r2, r2, #16
 733 0010 D2B2     		uxtb	r2, r2
 734 0012 1A70     		strb	r2, [r3]
 620:.\Generated_Source\PSoC5/CyFlash.c **** 
 621:.\Generated_Source\PSoC5/CyFlash.c ****     /* Standby Power Mode */
 622:.\Generated_Source\PSoC5/CyFlash.c ****     *CY_FLASH_PM_ALTACT_EEFLASH_PTR |= CY_FLASH_PM_EE_MASK;
 735              		.loc 1 622 0
 736 0014 064B     		ldr	r3, .L60+4
 737 0016 064A     		ldr	r2, .L60+4
 738 0018 1278     		ldrb	r2, [r2]
 739 001a D2B2     		uxtb	r2, r2
ARM GAS  C:\Users\Owner\AppData\Local\Temp\ccIGAJWk.s 			page 25


 740 001c 42F01002 		orr	r2, r2, #16
 741 0020 D2B2     		uxtb	r2, r2
 742 0022 1A70     		strb	r2, [r3]
 623:.\Generated_Source\PSoC5/CyFlash.c **** }
 743              		.loc 1 623 0
 744 0024 BD46     		mov	sp, r7
 745              		@ sp needed
 746 0026 5DF8047B 		ldr	r7, [sp], #4
 747 002a 7047     		bx	lr
 748              	.L61:
 749              		.align	2
 750              	.L60:
 751 002c AC430040 		.word	1073759148
 752 0030 BC430040 		.word	1073759164
 753              		.cfi_endproc
 754              	.LFE8:
 755              		.size	CyEEPROM_Start, .-CyEEPROM_Start
 756              		.section	.text.CyEEPROM_Stop,"ax",%progbits
 757              		.align	2
 758              		.global	CyEEPROM_Stop
 759              		.thumb
 760              		.thumb_func
 761              		.type	CyEEPROM_Stop, %function
 762              	CyEEPROM_Stop:
 763              	.LFB9:
 624:.\Generated_Source\PSoC5/CyFlash.c **** 
 625:.\Generated_Source\PSoC5/CyFlash.c **** 
 626:.\Generated_Source\PSoC5/CyFlash.c **** /*******************************************************************************
 627:.\Generated_Source\PSoC5/CyFlash.c **** * Function Name: CyEEPROM_Stop
 628:.\Generated_Source\PSoC5/CyFlash.c **** ********************************************************************************
 629:.\Generated_Source\PSoC5/CyFlash.c **** *
 630:.\Generated_Source\PSoC5/CyFlash.c **** * Summary:
 631:.\Generated_Source\PSoC5/CyFlash.c **** *  Disable the EEPROM.
 632:.\Generated_Source\PSoC5/CyFlash.c **** *
 633:.\Generated_Source\PSoC5/CyFlash.c **** * Parameters:
 634:.\Generated_Source\PSoC5/CyFlash.c **** *  None
 635:.\Generated_Source\PSoC5/CyFlash.c **** *
 636:.\Generated_Source\PSoC5/CyFlash.c **** * Return:
 637:.\Generated_Source\PSoC5/CyFlash.c **** *  None
 638:.\Generated_Source\PSoC5/CyFlash.c **** *
 639:.\Generated_Source\PSoC5/CyFlash.c **** *******************************************************************************/
 640:.\Generated_Source\PSoC5/CyFlash.c **** void CyEEPROM_Stop (void) 
 641:.\Generated_Source\PSoC5/CyFlash.c **** {
 764              		.loc 1 641 0
 765              		.cfi_startproc
 766              		@ args = 0, pretend = 0, frame = 0
 767              		@ frame_needed = 1, uses_anonymous_args = 0
 768              		@ link register save eliminated.
 769 0000 80B4     		push	{r7}
 770              		.cfi_def_cfa_offset 4
 771              		.cfi_offset 7, -4
 772 0002 00AF     		add	r7, sp, #0
 773              		.cfi_def_cfa_register 7
 642:.\Generated_Source\PSoC5/CyFlash.c ****     /* Active Power Mode */
 643:.\Generated_Source\PSoC5/CyFlash.c ****     *CY_FLASH_PM_ACT_EEFLASH_PTR &= ((uint8)(~CY_FLASH_PM_EE_MASK));
 774              		.loc 1 643 0
 775 0004 094B     		ldr	r3, .L63
ARM GAS  C:\Users\Owner\AppData\Local\Temp\ccIGAJWk.s 			page 26


 776 0006 094A     		ldr	r2, .L63
 777 0008 1278     		ldrb	r2, [r2]
 778 000a D2B2     		uxtb	r2, r2
 779 000c 22F01002 		bic	r2, r2, #16
 780 0010 D2B2     		uxtb	r2, r2
 781 0012 1A70     		strb	r2, [r3]
 644:.\Generated_Source\PSoC5/CyFlash.c **** 
 645:.\Generated_Source\PSoC5/CyFlash.c ****     /* Standby Power Mode */
 646:.\Generated_Source\PSoC5/CyFlash.c ****     *CY_FLASH_PM_ALTACT_EEFLASH_PTR &= ((uint8)(~CY_FLASH_PM_EE_MASK));
 782              		.loc 1 646 0
 783 0014 064B     		ldr	r3, .L63+4
 784 0016 064A     		ldr	r2, .L63+4
 785 0018 1278     		ldrb	r2, [r2]
 786 001a D2B2     		uxtb	r2, r2
 787 001c 22F01002 		bic	r2, r2, #16
 788 0020 D2B2     		uxtb	r2, r2
 789 0022 1A70     		strb	r2, [r3]
 647:.\Generated_Source\PSoC5/CyFlash.c **** }
 790              		.loc 1 647 0
 791 0024 BD46     		mov	sp, r7
 792              		@ sp needed
 793 0026 5DF8047B 		ldr	r7, [sp], #4
 794 002a 7047     		bx	lr
 795              	.L64:
 796              		.align	2
 797              	.L63:
 798 002c AC430040 		.word	1073759148
 799 0030 BC430040 		.word	1073759164
 800              		.cfi_endproc
 801              	.LFE9:
 802              		.size	CyEEPROM_Stop, .-CyEEPROM_Stop
 803              		.section	.text.CyEEPROM_ReadReserve,"ax",%progbits
 804              		.align	2
 805              		.global	CyEEPROM_ReadReserve
 806              		.thumb
 807              		.thumb_func
 808              		.type	CyEEPROM_ReadReserve, %function
 809              	CyEEPROM_ReadReserve:
 810              	.LFB10:
 648:.\Generated_Source\PSoC5/CyFlash.c **** 
 649:.\Generated_Source\PSoC5/CyFlash.c **** 
 650:.\Generated_Source\PSoC5/CyFlash.c **** /*******************************************************************************
 651:.\Generated_Source\PSoC5/CyFlash.c **** * Function Name: CyEEPROM_ReadReserve
 652:.\Generated_Source\PSoC5/CyFlash.c **** ********************************************************************************
 653:.\Generated_Source\PSoC5/CyFlash.c **** *
 654:.\Generated_Source\PSoC5/CyFlash.c **** * Summary:
 655:.\Generated_Source\PSoC5/CyFlash.c **** *  Request access to the EEPROM for reading and wait until access is available.
 656:.\Generated_Source\PSoC5/CyFlash.c **** *
 657:.\Generated_Source\PSoC5/CyFlash.c **** * Parameters:
 658:.\Generated_Source\PSoC5/CyFlash.c **** *  None
 659:.\Generated_Source\PSoC5/CyFlash.c **** *
 660:.\Generated_Source\PSoC5/CyFlash.c **** * Return:
 661:.\Generated_Source\PSoC5/CyFlash.c **** *  None
 662:.\Generated_Source\PSoC5/CyFlash.c **** *
 663:.\Generated_Source\PSoC5/CyFlash.c **** *******************************************************************************/
 664:.\Generated_Source\PSoC5/CyFlash.c **** void CyEEPROM_ReadReserve(void) 
 665:.\Generated_Source\PSoC5/CyFlash.c **** {
ARM GAS  C:\Users\Owner\AppData\Local\Temp\ccIGAJWk.s 			page 27


 811              		.loc 1 665 0
 812              		.cfi_startproc
 813              		@ args = 0, pretend = 0, frame = 0
 814              		@ frame_needed = 1, uses_anonymous_args = 0
 815              		@ link register save eliminated.
 816 0000 80B4     		push	{r7}
 817              		.cfi_def_cfa_offset 4
 818              		.cfi_offset 7, -4
 819 0002 00AF     		add	r7, sp, #0
 820              		.cfi_def_cfa_register 7
 666:.\Generated_Source\PSoC5/CyFlash.c ****     /* Make request for PHUB to have access */
 667:.\Generated_Source\PSoC5/CyFlash.c ****     CY_FLASH_EE_SCR_REG |= CY_FLASH_EE_SCR_AHB_EE_REQ;
 821              		.loc 1 667 0
 822 0004 094B     		ldr	r3, .L67
 823 0006 094A     		ldr	r2, .L67
 824 0008 1278     		ldrb	r2, [r2]
 825 000a D2B2     		uxtb	r2, r2
 826 000c 42F00102 		orr	r2, r2, #1
 827 0010 D2B2     		uxtb	r2, r2
 828 0012 1A70     		strb	r2, [r3]
 668:.\Generated_Source\PSoC5/CyFlash.c **** 
 669:.\Generated_Source\PSoC5/CyFlash.c ****     while (0u == (CY_FLASH_EE_SCR_REG & CY_FLASH_EE_SCR_AHB_EE_ACK))
 829              		.loc 1 669 0
 830 0014 00BF     		nop
 831              	.L66:
 832              		.loc 1 669 0 is_stmt 0 discriminator 1
 833 0016 054B     		ldr	r3, .L67
 834 0018 1B78     		ldrb	r3, [r3]
 835 001a DBB2     		uxtb	r3, r3
 836 001c 03F00203 		and	r3, r3, #2
 837 0020 002B     		cmp	r3, #0
 838 0022 F8D0     		beq	.L66
 670:.\Generated_Source\PSoC5/CyFlash.c ****     {
 671:.\Generated_Source\PSoC5/CyFlash.c ****         /* Wait for acknowledgement from PHUB */
 672:.\Generated_Source\PSoC5/CyFlash.c ****     }
 673:.\Generated_Source\PSoC5/CyFlash.c **** }
 839              		.loc 1 673 0 is_stmt 1
 840 0024 BD46     		mov	sp, r7
 841              		@ sp needed
 842 0026 5DF8047B 		ldr	r7, [sp], #4
 843 002a 7047     		bx	lr
 844              	.L68:
 845              		.align	2
 846              	.L67:
 847 002c 02470040 		.word	1073760002
 848              		.cfi_endproc
 849              	.LFE10:
 850              		.size	CyEEPROM_ReadReserve, .-CyEEPROM_ReadReserve
 851              		.section	.text.CyEEPROM_ReadRelease,"ax",%progbits
 852              		.align	2
 853              		.global	CyEEPROM_ReadRelease
 854              		.thumb
 855              		.thumb_func
 856              		.type	CyEEPROM_ReadRelease, %function
 857              	CyEEPROM_ReadRelease:
 858              	.LFB11:
 674:.\Generated_Source\PSoC5/CyFlash.c **** 
ARM GAS  C:\Users\Owner\AppData\Local\Temp\ccIGAJWk.s 			page 28


 675:.\Generated_Source\PSoC5/CyFlash.c **** 
 676:.\Generated_Source\PSoC5/CyFlash.c **** /*******************************************************************************
 677:.\Generated_Source\PSoC5/CyFlash.c **** * Function Name: CyEEPROM_ReadRelease
 678:.\Generated_Source\PSoC5/CyFlash.c **** ********************************************************************************
 679:.\Generated_Source\PSoC5/CyFlash.c **** *
 680:.\Generated_Source\PSoC5/CyFlash.c **** * Summary:
 681:.\Generated_Source\PSoC5/CyFlash.c **** *  Release the read reservation of the EEPROM.
 682:.\Generated_Source\PSoC5/CyFlash.c **** *
 683:.\Generated_Source\PSoC5/CyFlash.c **** * Parameters:
 684:.\Generated_Source\PSoC5/CyFlash.c **** *  None
 685:.\Generated_Source\PSoC5/CyFlash.c **** *
 686:.\Generated_Source\PSoC5/CyFlash.c **** * Return:
 687:.\Generated_Source\PSoC5/CyFlash.c **** *  None
 688:.\Generated_Source\PSoC5/CyFlash.c **** *
 689:.\Generated_Source\PSoC5/CyFlash.c **** *******************************************************************************/
 690:.\Generated_Source\PSoC5/CyFlash.c **** void CyEEPROM_ReadRelease(void) 
 691:.\Generated_Source\PSoC5/CyFlash.c **** {
 859              		.loc 1 691 0
 860              		.cfi_startproc
 861              		@ args = 0, pretend = 0, frame = 0
 862              		@ frame_needed = 1, uses_anonymous_args = 0
 863              		@ link register save eliminated.
 864 0000 80B4     		push	{r7}
 865              		.cfi_def_cfa_offset 4
 866              		.cfi_offset 7, -4
 867 0002 00AF     		add	r7, sp, #0
 868              		.cfi_def_cfa_register 7
 692:.\Generated_Source\PSoC5/CyFlash.c ****     CY_FLASH_EE_SCR_REG &= (uint8)(~CY_FLASH_EE_SCR_AHB_EE_REQ);
 869              		.loc 1 692 0
 870 0004 054B     		ldr	r3, .L70
 871 0006 054A     		ldr	r2, .L70
 872 0008 1278     		ldrb	r2, [r2]
 873 000a D2B2     		uxtb	r2, r2
 874 000c 22F00102 		bic	r2, r2, #1
 875 0010 D2B2     		uxtb	r2, r2
 876 0012 1A70     		strb	r2, [r3]
 693:.\Generated_Source\PSoC5/CyFlash.c **** }
 877              		.loc 1 693 0
 878 0014 BD46     		mov	sp, r7
 879              		@ sp needed
 880 0016 5DF8047B 		ldr	r7, [sp], #4
 881 001a 7047     		bx	lr
 882              	.L71:
 883              		.align	2
 884              	.L70:
 885 001c 02470040 		.word	1073760002
 886              		.cfi_endproc
 887              	.LFE11:
 888              		.size	CyEEPROM_ReadRelease, .-CyEEPROM_ReadRelease
 889              		.text
 890              	.Letext0:
 891              		.file 2 ".\\Generated_Source\\PSoC5\\cytypes.h"