ARM GAS  C:\Users\Owner\AppData\Local\Temp\cc93mh3R.s 			page 1


   1              		.syntax unified
   2              		.cpu cortex-m3
   3              		.fpu softvfp
   4              		.eabi_attribute 20, 1
   5              		.eabi_attribute 21, 1
   6              		.eabi_attribute 23, 3
   7              		.eabi_attribute 24, 1
   8              		.eabi_attribute 25, 1
   9              		.eabi_attribute 26, 1
  10              		.eabi_attribute 30, 6
  11              		.eabi_attribute 34, 1
  12              		.eabi_attribute 18, 4
  13              		.thumb
  14              		.file	"main.c"
  15              		.text
  16              	.Ltext0:
  17              		.cfi_sections	.debug_frame
  18              		.comm	rec,1,1
  19              		.global	get
  20              		.data
  21              		.align	2
  22              		.type	get, %object
  23              		.size	get, 4
  24              	get:
  25 0000 56       		.byte	86
  26 0001 00       		.byte	0
  27 0002 11       		.byte	17
  28 0003 00       		.byte	0
  29              		.global	reset_camera
  30              		.align	2
  31              		.type	reset_camera, %object
  32              		.size	reset_camera, 4
  33              	reset_camera:
  34 0004 56       		.byte	86
  35 0005 00       		.byte	0
  36 0006 26       		.byte	38
  37 0007 00       		.byte	0
  38              		.global	baurate
  39              		.align	2
  40              		.type	baurate, %object
  41              		.size	baurate, 7
  42              	baurate:
  43 0008 56       		.byte	86
  44 0009 00       		.byte	0
  45 000a 24       		.byte	36
  46 000b 16       		.byte	22
  47 000c 01       		.byte	1
  48 000d 2A       		.byte	42
  49 000e F2       		.byte	-14
  50              		.global	config_datasize
  51 000f 00       		.align	2
  52              		.type	config_datasize, %object
  53              		.size	config_datasize, 9
  54              	config_datasize:
  55 0010 56       		.byte	86
  56 0011 00       		.byte	0
  57 0012 31       		.byte	49
ARM GAS  C:\Users\Owner\AppData\Local\Temp\cc93mh3R.s 			page 2


  58 0013 05       		.byte	5
  59 0014 04       		.byte	4
  60 0015 01       		.byte	1
  61 0016 00       		.byte	0
  62 0017 19       		.byte	25
  63 0018 00       		.byte	0
  64              		.global	take_picture
  65 0019 000000   		.align	2
  66              		.type	take_picture, %object
  67              		.size	take_picture, 5
  68              	take_picture:
  69 001c 56       		.byte	86
  70 001d 00       		.byte	0
  71 001e 36       		.byte	54
  72 001f 01       		.byte	1
  73 0020 00       		.byte	0
  74              		.global	read_datasize
  75 0021 000000   		.align	2
  76              		.type	read_datasize, %object
  77              		.size	read_datasize, 5
  78              	read_datasize:
  79 0024 56       		.byte	86
  80 0025 00       		.byte	0
  81 0026 34       		.byte	52
  82 0027 01       		.byte	1
  83 0028 00       		.byte	0
  84              		.global	load_data
  85 0029 000000   		.align	2
  86              		.type	load_data, %object
  87              		.size	load_data, 16
  88              	load_data:
  89 002c 56       		.byte	86
  90 002d 00       		.byte	0
  91 002e 32       		.byte	50
  92 002f 0C       		.byte	12
  93 0030 00       		.byte	0
  94 0031 0A       		.byte	10
  95 0032 00       		.byte	0
  96 0033 00       		.byte	0
  97 0034 00       		.byte	0
  98 0035 00       		.byte	0
  99 0036 00       		.byte	0
 100 0037 00       		.byte	0
 101 0038 CA       		.byte	-54
 102 0039 6C       		.byte	108
 103 003a 00       		.byte	0
 104 003b FF       		.byte	-1
 105              		.section	.text.main,"ax",%progbits
 106              		.align	2
 107              		.global	main
 108              		.thumb
 109              		.thumb_func
 110              		.type	main, %function
 111              	main:
 112              	.LFB56:
 113              		.file 1 ".\\main.c"
   1:.\main.c      **** #include <project.h>
ARM GAS  C:\Users\Owner\AppData\Local\Temp\cc93mh3R.s 			page 3


   2:.\main.c      **** 
   3:.\main.c      **** uint8 rec;
   4:.\main.c      **** uint8 get[]            ={0x56, 0x00, 0x11, 0x00};
   5:.\main.c      **** uint8 reset_camera[]    =  { 0x56, 0x00, 0x26, 0x00 };
   6:.\main.c      **** uint8 baurate[]         =  { 0x56, 0x00, 0x24, 0x16, 0x01, 0x2A, 0xF2 };
   7:.\main.c      **** uint8 config_datasize[] =  { 0x56, 0x00, 0x31, 0x05, 0x04, 0x01, 0x00, 0x19, 0x00 };    //640×480
   8:.\main.c      **** uint8 take_picture[]    =  { 0x56, 0x00, 0x36, 0x01, 0x00 };
   9:.\main.c      **** uint8 read_datasize[]   =  { 0x56, 0x00, 0x34, 0x01, 0x00 };
  10:.\main.c      **** uint8 load_data[]       =  { 0x56, 0x00, 0x32, 0x0C, 0x00, 0x0A, 0x00, 0x00, 0x00, 0x00, 0x00, 0x00
  11:.\main.c      **** 
  12:.\main.c      **** CY_ISR_PROTO(isr_tx1);
  13:.\main.c      **** CY_ISR_PROTO(isr_tx2);
  14:.\main.c      **** CY_ISR_PROTO(isr_rx1);
  15:.\main.c      **** CY_ISR_PROTO(isr_rx2);
  16:.\main.c      **** 
  17:.\main.c      **** int main()
  18:.\main.c      **** {
 114              		.loc 1 18 0
 115              		.cfi_startproc
 116              		@ args = 0, pretend = 0, frame = 0
 117              		@ frame_needed = 1, uses_anonymous_args = 0
 118 0000 80B5     		push	{r7, lr}
 119              		.cfi_def_cfa_offset 8
 120              		.cfi_offset 7, -8
 121              		.cfi_offset 14, -4
 122 0002 00AF     		add	r7, sp, #0
 123              		.cfi_def_cfa_register 7
  19:.\main.c      **** 
  20:.\main.c      **** UART_1_Start();
 124              		.loc 1 20 0
 125 0004 FFF7FEFF 		bl	UART_1_Start
  21:.\main.c      **** UART_2_Start();
 126              		.loc 1 21 0
 127 0008 FFF7FEFF 		bl	UART_2_Start
  22:.\main.c      **** isr_rx1_StartEx(isr_rx1 );
 128              		.loc 1 22 0
 129 000c 1248     		ldr	r0, .L3
 130 000e FFF7FEFF 		bl	isr_rx1_StartEx
  23:.\main.c      **** CyGlobalIntEnable;
 131              		.loc 1 23 0
 132              	@ 23 ".\main.c" 1
 133 0012 62B6     		CPSIE   i
 134              	@ 0 "" 2
  24:.\main.c      **** //UART_1_PutArray(reset_camera,4);
  25:.\main.c      **** CyDelay(500);
 135              		.loc 1 25 0
 136              		.thumb
 137 0014 4FF4FA70 		mov	r0, #500
 138 0018 FFF7FEFF 		bl	CyDelay
  26:.\main.c      **** UART_1_PutArray(config_datasize,9);
 139              		.loc 1 26 0
 140 001c 0F48     		ldr	r0, .L3+4
 141 001e 0921     		movs	r1, #9
 142 0020 FFF7FEFF 		bl	UART_1_PutArray
  27:.\main.c      **** CyDelay(300);
 143              		.loc 1 27 0
 144 0024 4FF49670 		mov	r0, #300
ARM GAS  C:\Users\Owner\AppData\Local\Temp\cc93mh3R.s 			page 4


 145 0028 FFF7FEFF 		bl	CyDelay
  28:.\main.c      **** UART_1_PutArray(take_picture,5);
 146              		.loc 1 28 0
 147 002c 0C48     		ldr	r0, .L3+8
 148 002e 0521     		movs	r1, #5
 149 0030 FFF7FEFF 		bl	UART_1_PutArray
  29:.\main.c      **** CyDelay(300);
 150              		.loc 1 29 0
 151 0034 4FF49670 		mov	r0, #300
 152 0038 FFF7FEFF 		bl	CyDelay
  30:.\main.c      **** UART_1_PutArray(read_datasize,5);
 153              		.loc 1 30 0
 154 003c 0948     		ldr	r0, .L3+12
 155 003e 0521     		movs	r1, #5
 156 0040 FFF7FEFF 		bl	UART_1_PutArray
  31:.\main.c      **** CyDelay(500);
 157              		.loc 1 31 0
 158 0044 4FF4FA70 		mov	r0, #500
 159 0048 FFF7FEFF 		bl	CyDelay
  32:.\main.c      **** UART_1_PutArray(load_data,16);
 160              		.loc 1 32 0
 161 004c 0648     		ldr	r0, .L3+16
 162 004e 1021     		movs	r1, #16
 163 0050 FFF7FEFF 		bl	UART_1_PutArray
 164              	.L2:
  33:.\main.c      **** while(1)
  34:.\main.c      **** {}
 165              		.loc 1 34 0 discriminator 1
 166 0054 FEE7     		b	.L2
 167              	.L4:
 168 0056 00BF     		.align	2
 169              	.L3:
 170 0058 00000000 		.word	isr_rx1
 171 005c 00000000 		.word	config_datasize
 172 0060 00000000 		.word	take_picture
 173 0064 00000000 		.word	read_datasize
 174 0068 00000000 		.word	load_data
 175              		.cfi_endproc
 176              	.LFE56:
 177              		.size	main, .-main
 178              		.section	.text.isr_rx1,"ax",%progbits
 179              		.align	2
 180              		.global	isr_rx1
 181              		.thumb
 182              		.thumb_func
 183              		.type	isr_rx1, %function
 184              	isr_rx1:
 185              	.LFB57:
  35:.\main.c      **** }
  36:.\main.c      **** 
  37:.\main.c      **** 
  38:.\main.c      **** 
  39:.\main.c      **** #pragma interrupt_handler isr_rx1
  40:.\main.c      **** CY_ISR(isr_rx1)
  41:.\main.c      **** {
 186              		.loc 1 41 0
 187              		.cfi_startproc
ARM GAS  C:\Users\Owner\AppData\Local\Temp\cc93mh3R.s 			page 5


 188              		@ args = 0, pretend = 0, frame = 8
 189              		@ frame_needed = 1, uses_anonymous_args = 0
 190 0000 80B5     		push	{r7, lr}
 191              		.cfi_def_cfa_offset 8
 192              		.cfi_offset 7, -8
 193              		.cfi_offset 14, -4
 194 0002 82B0     		sub	sp, sp, #8
 195              		.cfi_def_cfa_offset 16
 196 0004 00AF     		add	r7, sp, #0
 197              		.cfi_def_cfa_register 7
  42:.\main.c      ****  char recv_data;
  43:.\main.c      ****  recv_data = UART_1_GetChar(); // read UART
 198              		.loc 1 43 0
 199 0006 FFF7FEFF 		bl	UART_1_GetChar
 200 000a 0346     		mov	r3, r0
 201 000c FB71     		strb	r3, [r7, #7]
  44:.\main.c      ****  UART_2_PutChar(recv_data); // echo
 202              		.loc 1 44 0
 203 000e FB79     		ldrb	r3, [r7, #7]	@ zero_extendqisi2
 204 0010 1846     		mov	r0, r3
 205 0012 FFF7FEFF 		bl	UART_2_PutChar
  45:.\main.c      **** }
 206              		.loc 1 45 0
 207 0016 0837     		adds	r7, r7, #8
 208 0018 BD46     		mov	sp, r7
 209              		@ sp needed
 210 001a 80BD     		pop	{r7, pc}
 211              		.cfi_endproc
 212              	.LFE57:
 213              		.size	isr_rx1, .-isr_rx1
 214              		.text
 215              	.Letext0:
 216              		.file 2 "c:\\program files (x86)\\cypress\\psoc creator\\3.2\\psoc creator\\import\\gnu\\arm\\4.8.
 217              		.file 3 "c:\\program files (x86)\\cypress\\psoc creator\\3.2\\psoc creator\\import\\gnu\\arm\\4.8.
 218              		.file 4 "Generated_Source\\PSoC5/cytypes.h"
 219              		.file 5 "Generated_Source\\PSoC5/core_cm3.h"