ARM GAS  C:\Users\Owner\AppData\Local\Temp\cczyEAfi.s 			page 1


   1              		.syntax unified
   2              		.cpu cortex-m3
   3              		.fpu softvfp
   4              		.eabi_attribute 20, 1
   5              		.eabi_attribute 21, 1
   6              		.eabi_attribute 23, 3
   7              		.eabi_attribute 24, 1
   8              		.eabi_attribute 25, 1
   9              		.eabi_attribute 26, 1
  10              		.eabi_attribute 30, 6
  11              		.eabi_attribute 34, 1
  12              		.eabi_attribute 18, 4
  13              		.thumb
  14              		.file	"UART_2.c"
  15              		.text
  16              	.Ltext0:
  17              		.cfi_sections	.debug_frame
  18              		.global	UART_2_initVar
  19              		.bss
  20              		.type	UART_2_initVar, %object
  21              		.size	UART_2_initVar, 1
  22              	UART_2_initVar:
  23 0000 00       		.space	1
  24              		.section	.text.UART_2_Start,"ax",%progbits
  25              		.align	2
  26              		.global	UART_2_Start
  27              		.thumb
  28              		.thumb_func
  29              		.type	UART_2_Start, %function
  30              	UART_2_Start:
  31              	.LFB0:
  32              		.file 1 ".\\Generated_Source\\PSoC5\\UART_2.c"
   1:.\Generated_Source\PSoC5/UART_2.c **** /*******************************************************************************
   2:.\Generated_Source\PSoC5/UART_2.c **** * File Name: UART_2.c
   3:.\Generated_Source\PSoC5/UART_2.c **** * Version 2.30
   4:.\Generated_Source\PSoC5/UART_2.c **** *
   5:.\Generated_Source\PSoC5/UART_2.c **** * Description:
   6:.\Generated_Source\PSoC5/UART_2.c **** *  This file provides all API functionality of the UART component
   7:.\Generated_Source\PSoC5/UART_2.c **** *
   8:.\Generated_Source\PSoC5/UART_2.c **** * Note:
   9:.\Generated_Source\PSoC5/UART_2.c **** *
  10:.\Generated_Source\PSoC5/UART_2.c **** ********************************************************************************
  11:.\Generated_Source\PSoC5/UART_2.c **** * Copyright 2008-2012, Cypress Semiconductor Corporation.  All rights reserved.
  12:.\Generated_Source\PSoC5/UART_2.c **** * You may use this file only in accordance with the license, terms, conditions,
  13:.\Generated_Source\PSoC5/UART_2.c **** * disclaimers, and limitations in the end user license agreement accompanying
  14:.\Generated_Source\PSoC5/UART_2.c **** * the software package with which this file was provided.
  15:.\Generated_Source\PSoC5/UART_2.c **** *******************************************************************************/
  16:.\Generated_Source\PSoC5/UART_2.c **** 
  17:.\Generated_Source\PSoC5/UART_2.c **** #include "UART_2.h"
  18:.\Generated_Source\PSoC5/UART_2.c **** #include "CyLib.h"
  19:.\Generated_Source\PSoC5/UART_2.c **** #if(UART_2_INTERNAL_CLOCK_USED)
  20:.\Generated_Source\PSoC5/UART_2.c ****     #include "UART_2_IntClock.h"
  21:.\Generated_Source\PSoC5/UART_2.c **** #endif /* End UART_2_INTERNAL_CLOCK_USED */
  22:.\Generated_Source\PSoC5/UART_2.c **** 
  23:.\Generated_Source\PSoC5/UART_2.c **** 
  24:.\Generated_Source\PSoC5/UART_2.c **** /***************************************
  25:.\Generated_Source\PSoC5/UART_2.c **** * Global data allocation
ARM GAS  C:\Users\Owner\AppData\Local\Temp\cczyEAfi.s 			page 2


  26:.\Generated_Source\PSoC5/UART_2.c **** ***************************************/
  27:.\Generated_Source\PSoC5/UART_2.c **** 
  28:.\Generated_Source\PSoC5/UART_2.c **** uint8 UART_2_initVar = 0u;
  29:.\Generated_Source\PSoC5/UART_2.c **** #if( UART_2_TX_ENABLED && (UART_2_TXBUFFERSIZE > UART_2_FIFO_LENGTH))
  30:.\Generated_Source\PSoC5/UART_2.c ****     volatile uint8 UART_2_txBuffer[UART_2_TXBUFFERSIZE];
  31:.\Generated_Source\PSoC5/UART_2.c ****     volatile uint8 UART_2_txBufferRead = 0u;
  32:.\Generated_Source\PSoC5/UART_2.c ****     uint8 UART_2_txBufferWrite = 0u;
  33:.\Generated_Source\PSoC5/UART_2.c **** #endif /* End UART_2_TX_ENABLED */
  34:.\Generated_Source\PSoC5/UART_2.c **** #if( ( UART_2_RX_ENABLED || UART_2_HD_ENABLED ) && \
  35:.\Generated_Source\PSoC5/UART_2.c ****      (UART_2_RXBUFFERSIZE > UART_2_FIFO_LENGTH) )
  36:.\Generated_Source\PSoC5/UART_2.c ****     volatile uint8 UART_2_rxBuffer[UART_2_RXBUFFERSIZE];
  37:.\Generated_Source\PSoC5/UART_2.c ****     volatile uint8 UART_2_rxBufferRead = 0u;
  38:.\Generated_Source\PSoC5/UART_2.c ****     volatile uint8 UART_2_rxBufferWrite = 0u;
  39:.\Generated_Source\PSoC5/UART_2.c ****     volatile uint8 UART_2_rxBufferLoopDetect = 0u;
  40:.\Generated_Source\PSoC5/UART_2.c ****     volatile uint8 UART_2_rxBufferOverflow = 0u;
  41:.\Generated_Source\PSoC5/UART_2.c ****     #if (UART_2_RXHW_ADDRESS_ENABLED)
  42:.\Generated_Source\PSoC5/UART_2.c ****         volatile uint8 UART_2_rxAddressMode = UART_2_RXADDRESSMODE;
  43:.\Generated_Source\PSoC5/UART_2.c ****         volatile uint8 UART_2_rxAddressDetected = 0u;
  44:.\Generated_Source\PSoC5/UART_2.c ****     #endif /* End EnableHWAddress */
  45:.\Generated_Source\PSoC5/UART_2.c **** #endif /* End UART_2_RX_ENABLED */
  46:.\Generated_Source\PSoC5/UART_2.c **** 
  47:.\Generated_Source\PSoC5/UART_2.c **** 
  48:.\Generated_Source\PSoC5/UART_2.c **** /*******************************************************************************
  49:.\Generated_Source\PSoC5/UART_2.c **** * Function Name: UART_2_Start
  50:.\Generated_Source\PSoC5/UART_2.c **** ********************************************************************************
  51:.\Generated_Source\PSoC5/UART_2.c **** *
  52:.\Generated_Source\PSoC5/UART_2.c **** * Summary:
  53:.\Generated_Source\PSoC5/UART_2.c **** *  Initialize and Enable the UART component.
  54:.\Generated_Source\PSoC5/UART_2.c **** *  Enable the clock input to enable operation.
  55:.\Generated_Source\PSoC5/UART_2.c **** *
  56:.\Generated_Source\PSoC5/UART_2.c **** * Parameters:
  57:.\Generated_Source\PSoC5/UART_2.c **** *  None.
  58:.\Generated_Source\PSoC5/UART_2.c **** *
  59:.\Generated_Source\PSoC5/UART_2.c **** * Return:
  60:.\Generated_Source\PSoC5/UART_2.c **** *  None.
  61:.\Generated_Source\PSoC5/UART_2.c **** *
  62:.\Generated_Source\PSoC5/UART_2.c **** * Global variables:
  63:.\Generated_Source\PSoC5/UART_2.c **** *  The UART_2_intiVar variable is used to indicate initial
  64:.\Generated_Source\PSoC5/UART_2.c **** *  configuration of this component. The variable is initialized to zero (0u)
  65:.\Generated_Source\PSoC5/UART_2.c **** *  and set to one (1u) the first time UART_Start() is called. This allows for
  66:.\Generated_Source\PSoC5/UART_2.c **** *  component initialization without re-initialization in all subsequent calls
  67:.\Generated_Source\PSoC5/UART_2.c **** *  to the UART_2_Start() routine.
  68:.\Generated_Source\PSoC5/UART_2.c **** *
  69:.\Generated_Source\PSoC5/UART_2.c **** * Reentrant:
  70:.\Generated_Source\PSoC5/UART_2.c **** *  No.
  71:.\Generated_Source\PSoC5/UART_2.c **** *
  72:.\Generated_Source\PSoC5/UART_2.c **** *******************************************************************************/
  73:.\Generated_Source\PSoC5/UART_2.c **** void UART_2_Start(void) 
  74:.\Generated_Source\PSoC5/UART_2.c **** {
  33              		.loc 1 74 0
  34              		.cfi_startproc
  35              		@ args = 0, pretend = 0, frame = 0
  36              		@ frame_needed = 1, uses_anonymous_args = 0
  37 0000 80B5     		push	{r7, lr}
  38              		.cfi_def_cfa_offset 8
  39              		.cfi_offset 7, -8
  40              		.cfi_offset 14, -4
ARM GAS  C:\Users\Owner\AppData\Local\Temp\cczyEAfi.s 			page 3


  41 0002 00AF     		add	r7, sp, #0
  42              		.cfi_def_cfa_register 7
  75:.\Generated_Source\PSoC5/UART_2.c ****     /* If not Initialized then initialize all required hardware and software */
  76:.\Generated_Source\PSoC5/UART_2.c ****     if(UART_2_initVar == 0u)
  43              		.loc 1 76 0
  44 0004 054B     		ldr	r3, .L3
  45 0006 1B78     		ldrb	r3, [r3]	@ zero_extendqisi2
  46 0008 002B     		cmp	r3, #0
  47 000a 04D1     		bne	.L2
  77:.\Generated_Source\PSoC5/UART_2.c ****     {
  78:.\Generated_Source\PSoC5/UART_2.c ****         UART_2_Init();
  48              		.loc 1 78 0
  49 000c FFF7FEFF 		bl	UART_2_Init
  79:.\Generated_Source\PSoC5/UART_2.c ****         UART_2_initVar = 1u;
  50              		.loc 1 79 0
  51 0010 024B     		ldr	r3, .L3
  52 0012 0122     		movs	r2, #1
  53 0014 1A70     		strb	r2, [r3]
  54              	.L2:
  80:.\Generated_Source\PSoC5/UART_2.c ****     }
  81:.\Generated_Source\PSoC5/UART_2.c ****     UART_2_Enable();
  55              		.loc 1 81 0
  56 0016 FFF7FEFF 		bl	UART_2_Enable
  82:.\Generated_Source\PSoC5/UART_2.c **** }
  57              		.loc 1 82 0
  58 001a 80BD     		pop	{r7, pc}
  59              	.L4:
  60              		.align	2
  61              	.L3:
  62 001c 00000000 		.word	UART_2_initVar
  63              		.cfi_endproc
  64              	.LFE0:
  65              		.size	UART_2_Start, .-UART_2_Start
  66              		.section	.text.UART_2_Init,"ax",%progbits
  67              		.align	2
  68              		.global	UART_2_Init
  69              		.thumb
  70              		.thumb_func
  71              		.type	UART_2_Init, %function
  72              	UART_2_Init:
  73              	.LFB1:
  83:.\Generated_Source\PSoC5/UART_2.c **** 
  84:.\Generated_Source\PSoC5/UART_2.c **** 
  85:.\Generated_Source\PSoC5/UART_2.c **** /*******************************************************************************
  86:.\Generated_Source\PSoC5/UART_2.c **** * Function Name: UART_2_Init
  87:.\Generated_Source\PSoC5/UART_2.c **** ********************************************************************************
  88:.\Generated_Source\PSoC5/UART_2.c **** *
  89:.\Generated_Source\PSoC5/UART_2.c **** * Summary:
  90:.\Generated_Source\PSoC5/UART_2.c **** *  Initialize component's parameters to the parameters set by user in the
  91:.\Generated_Source\PSoC5/UART_2.c **** *  customizer of the component placed onto schematic. Usually called in
  92:.\Generated_Source\PSoC5/UART_2.c **** *  UART_2_Start().
  93:.\Generated_Source\PSoC5/UART_2.c **** *
  94:.\Generated_Source\PSoC5/UART_2.c **** * Parameters:
  95:.\Generated_Source\PSoC5/UART_2.c **** *  None.
  96:.\Generated_Source\PSoC5/UART_2.c **** *
  97:.\Generated_Source\PSoC5/UART_2.c **** * Return:
  98:.\Generated_Source\PSoC5/UART_2.c **** *  None.
ARM GAS  C:\Users\Owner\AppData\Local\Temp\cczyEAfi.s 			page 4


  99:.\Generated_Source\PSoC5/UART_2.c **** *
 100:.\Generated_Source\PSoC5/UART_2.c **** *******************************************************************************/
 101:.\Generated_Source\PSoC5/UART_2.c **** void UART_2_Init(void) 
 102:.\Generated_Source\PSoC5/UART_2.c **** {
  74              		.loc 1 102 0
  75              		.cfi_startproc
  76              		@ args = 0, pretend = 0, frame = 0
  77              		@ frame_needed = 1, uses_anonymous_args = 0
  78              		@ link register save eliminated.
  79 0000 80B4     		push	{r7}
  80              		.cfi_def_cfa_offset 4
  81              		.cfi_offset 7, -4
  82 0002 00AF     		add	r7, sp, #0
  83              		.cfi_def_cfa_register 7
 103:.\Generated_Source\PSoC5/UART_2.c ****     #if(UART_2_RX_ENABLED || UART_2_HD_ENABLED)
 104:.\Generated_Source\PSoC5/UART_2.c **** 
 105:.\Generated_Source\PSoC5/UART_2.c ****         #if(UART_2_RX_INTERRUPT_ENABLED && (UART_2_RXBUFFERSIZE > UART_2_FIFO_LENGTH))
 106:.\Generated_Source\PSoC5/UART_2.c ****             /* Set the RX Interrupt. */
 107:.\Generated_Source\PSoC5/UART_2.c ****             (void)CyIntSetVector(UART_2_RX_VECT_NUM, &UART_2_RXISR);
 108:.\Generated_Source\PSoC5/UART_2.c ****             CyIntSetPriority(UART_2_RX_VECT_NUM, UART_2_RX_PRIOR_NUM);
 109:.\Generated_Source\PSoC5/UART_2.c ****         #endif /* End UART_2_RX_INTERRUPT_ENABLED */
 110:.\Generated_Source\PSoC5/UART_2.c **** 
 111:.\Generated_Source\PSoC5/UART_2.c ****         #if (UART_2_RXHW_ADDRESS_ENABLED)
 112:.\Generated_Source\PSoC5/UART_2.c ****             UART_2_SetRxAddressMode(UART_2_RXAddressMode);
 113:.\Generated_Source\PSoC5/UART_2.c ****             UART_2_SetRxAddress1(UART_2_RXHWADDRESS1);
 114:.\Generated_Source\PSoC5/UART_2.c ****             UART_2_SetRxAddress2(UART_2_RXHWADDRESS2);
 115:.\Generated_Source\PSoC5/UART_2.c ****         #endif /* End UART_2_RXHW_ADDRESS_ENABLED */
 116:.\Generated_Source\PSoC5/UART_2.c **** 
 117:.\Generated_Source\PSoC5/UART_2.c ****         /* Init Count7 period */
 118:.\Generated_Source\PSoC5/UART_2.c ****         UART_2_RXBITCTR_PERIOD_REG = UART_2_RXBITCTR_INIT;
  84              		.loc 1 118 0
  85 0004 094B     		ldr	r3, .L6
  86 0006 7222     		movs	r2, #114
  87 0008 1A70     		strb	r2, [r3]
 119:.\Generated_Source\PSoC5/UART_2.c ****         /* Configure the Initial RX interrupt mask */
 120:.\Generated_Source\PSoC5/UART_2.c ****         UART_2_RXSTATUS_MASK_REG  = UART_2_INIT_RX_INTERRUPTS_MASK;
  88              		.loc 1 120 0
  89 000a 094B     		ldr	r3, .L6+4
  90 000c 2022     		movs	r2, #32
  91 000e 1A70     		strb	r2, [r3]
 121:.\Generated_Source\PSoC5/UART_2.c ****     #endif /* End UART_2_RX_ENABLED || UART_2_HD_ENABLED*/
 122:.\Generated_Source\PSoC5/UART_2.c **** 
 123:.\Generated_Source\PSoC5/UART_2.c ****     #if(UART_2_TX_ENABLED)
 124:.\Generated_Source\PSoC5/UART_2.c ****         #if(UART_2_TX_INTERRUPT_ENABLED && (UART_2_TXBUFFERSIZE > UART_2_FIFO_LENGTH))
 125:.\Generated_Source\PSoC5/UART_2.c ****             /* Set the TX Interrupt. */
 126:.\Generated_Source\PSoC5/UART_2.c ****             (void)CyIntSetVector(UART_2_TX_VECT_NUM, &UART_2_TXISR);
 127:.\Generated_Source\PSoC5/UART_2.c ****             CyIntSetPriority(UART_2_TX_VECT_NUM, UART_2_TX_PRIOR_NUM);
 128:.\Generated_Source\PSoC5/UART_2.c ****         #endif /* End UART_2_TX_INTERRUPT_ENABLED */
 129:.\Generated_Source\PSoC5/UART_2.c **** 
 130:.\Generated_Source\PSoC5/UART_2.c ****         /* Write Counter Value for TX Bit Clk Generator*/
 131:.\Generated_Source\PSoC5/UART_2.c ****         #if(UART_2_TXCLKGEN_DP)
 132:.\Generated_Source\PSoC5/UART_2.c ****             UART_2_TXBITCLKGEN_CTR_REG = UART_2_BIT_CENTER;
  92              		.loc 1 132 0
  93 0010 084B     		ldr	r3, .L6+8
  94 0012 0722     		movs	r2, #7
  95 0014 1A70     		strb	r2, [r3]
 133:.\Generated_Source\PSoC5/UART_2.c ****             UART_2_TXBITCLKTX_COMPLETE_REG = (UART_2_NUMBER_OF_DATA_BITS +
ARM GAS  C:\Users\Owner\AppData\Local\Temp\cczyEAfi.s 			page 5


  96              		.loc 1 133 0
  97 0016 084B     		ldr	r3, .L6+12
  98 0018 4822     		movs	r2, #72
  99 001a 1A70     		strb	r2, [r3]
 134:.\Generated_Source\PSoC5/UART_2.c ****                         UART_2_NUMBER_OF_START_BIT) * UART_2_OVER_SAMPLE_COUNT;
 135:.\Generated_Source\PSoC5/UART_2.c ****         #else
 136:.\Generated_Source\PSoC5/UART_2.c ****             UART_2_TXBITCTR_PERIOD_REG = ((UART_2_NUMBER_OF_DATA_BITS +
 137:.\Generated_Source\PSoC5/UART_2.c ****                         UART_2_NUMBER_OF_START_BIT) * UART_2_OVER_SAMPLE_8) - 1u;
 138:.\Generated_Source\PSoC5/UART_2.c ****         #endif /* End UART_2_TXCLKGEN_DP */
 139:.\Generated_Source\PSoC5/UART_2.c **** 
 140:.\Generated_Source\PSoC5/UART_2.c ****         /* Configure the Initial TX interrupt mask */
 141:.\Generated_Source\PSoC5/UART_2.c ****         #if(UART_2_TX_INTERRUPT_ENABLED && (UART_2_TXBUFFERSIZE > UART_2_FIFO_LENGTH))
 142:.\Generated_Source\PSoC5/UART_2.c ****             UART_2_TXSTATUS_MASK_REG = UART_2_TX_STS_FIFO_EMPTY;
 143:.\Generated_Source\PSoC5/UART_2.c ****         #else
 144:.\Generated_Source\PSoC5/UART_2.c ****             UART_2_TXSTATUS_MASK_REG = UART_2_INIT_TX_INTERRUPTS_MASK;
 100              		.loc 1 144 0
 101 001c 074B     		ldr	r3, .L6+16
 102 001e 0022     		movs	r2, #0
 103 0020 1A70     		strb	r2, [r3]
 145:.\Generated_Source\PSoC5/UART_2.c ****         #endif /*End UART_2_TX_INTERRUPT_ENABLED*/
 146:.\Generated_Source\PSoC5/UART_2.c **** 
 147:.\Generated_Source\PSoC5/UART_2.c ****     #endif /* End UART_2_TX_ENABLED */
 148:.\Generated_Source\PSoC5/UART_2.c **** 
 149:.\Generated_Source\PSoC5/UART_2.c ****     #if(UART_2_PARITY_TYPE_SW)  /* Write Parity to Control Register */
 150:.\Generated_Source\PSoC5/UART_2.c ****         UART_2_WriteControlRegister( \
 151:.\Generated_Source\PSoC5/UART_2.c ****             (UART_2_ReadControlRegister() & (uint8)~UART_2_CTRL_PARITY_TYPE_MASK) | \
 152:.\Generated_Source\PSoC5/UART_2.c ****             (uint8)(UART_2_PARITY_TYPE << UART_2_CTRL_PARITY_TYPE0_SHIFT) );
 153:.\Generated_Source\PSoC5/UART_2.c ****     #endif /* End UART_2_PARITY_TYPE_SW */
 154:.\Generated_Source\PSoC5/UART_2.c **** }
 104              		.loc 1 154 0
 105 0022 BD46     		mov	sp, r7
 106              		@ sp needed
 107 0024 5DF8047B 		ldr	r7, [sp], #4
 108 0028 7047     		bx	lr
 109              	.L7:
 110 002a 00BF     		.align	2
 111              	.L6:
 112 002c 84640040 		.word	1073767556
 113 0030 85640040 		.word	1073767557
 114 0034 26650040 		.word	1073767718
 115 0038 36650040 		.word	1073767734
 116 003c 87650040 		.word	1073767815
 117              		.cfi_endproc
 118              	.LFE1:
 119              		.size	UART_2_Init, .-UART_2_Init
 120              		.section	.text.UART_2_Enable,"ax",%progbits
 121              		.align	2
 122              		.global	UART_2_Enable
 123              		.thumb
 124              		.thumb_func
 125              		.type	UART_2_Enable, %function
 126              	UART_2_Enable:
 127              	.LFB2:
 155:.\Generated_Source\PSoC5/UART_2.c **** 
 156:.\Generated_Source\PSoC5/UART_2.c **** 
 157:.\Generated_Source\PSoC5/UART_2.c **** /*******************************************************************************
 158:.\Generated_Source\PSoC5/UART_2.c **** * Function Name: UART_2_Enable
ARM GAS  C:\Users\Owner\AppData\Local\Temp\cczyEAfi.s 			page 6


 159:.\Generated_Source\PSoC5/UART_2.c **** ********************************************************************************
 160:.\Generated_Source\PSoC5/UART_2.c **** *
 161:.\Generated_Source\PSoC5/UART_2.c **** * Summary:
 162:.\Generated_Source\PSoC5/UART_2.c **** *  Enables the UART block operation
 163:.\Generated_Source\PSoC5/UART_2.c **** *
 164:.\Generated_Source\PSoC5/UART_2.c **** * Parameters:
 165:.\Generated_Source\PSoC5/UART_2.c **** *  None.
 166:.\Generated_Source\PSoC5/UART_2.c **** *
 167:.\Generated_Source\PSoC5/UART_2.c **** * Return:
 168:.\Generated_Source\PSoC5/UART_2.c **** *  None.
 169:.\Generated_Source\PSoC5/UART_2.c **** *
 170:.\Generated_Source\PSoC5/UART_2.c **** * Global Variables:
 171:.\Generated_Source\PSoC5/UART_2.c **** *  UART_2_rxAddressDetected - set to initial state (0).
 172:.\Generated_Source\PSoC5/UART_2.c **** *
 173:.\Generated_Source\PSoC5/UART_2.c **** *******************************************************************************/
 174:.\Generated_Source\PSoC5/UART_2.c **** void UART_2_Enable(void) 
 175:.\Generated_Source\PSoC5/UART_2.c **** {
 128              		.loc 1 175 0
 129              		.cfi_startproc
 130              		@ args = 0, pretend = 0, frame = 8
 131              		@ frame_needed = 1, uses_anonymous_args = 0
 132 0000 80B5     		push	{r7, lr}
 133              		.cfi_def_cfa_offset 8
 134              		.cfi_offset 7, -8
 135              		.cfi_offset 14, -4
 136 0002 82B0     		sub	sp, sp, #8
 137              		.cfi_def_cfa_offset 16
 138 0004 00AF     		add	r7, sp, #0
 139              		.cfi_def_cfa_register 7
 176:.\Generated_Source\PSoC5/UART_2.c ****     uint8 enableInterrupts;
 177:.\Generated_Source\PSoC5/UART_2.c ****     enableInterrupts = CyEnterCriticalSection();
 140              		.loc 1 177 0
 141 0006 FFF7FEFF 		bl	CyEnterCriticalSection
 142 000a 0346     		mov	r3, r0
 143 000c FB71     		strb	r3, [r7, #7]
 178:.\Generated_Source\PSoC5/UART_2.c **** 
 179:.\Generated_Source\PSoC5/UART_2.c ****     #if(UART_2_RX_ENABLED || UART_2_HD_ENABLED)
 180:.\Generated_Source\PSoC5/UART_2.c ****         /*RX Counter (Count7) Enable */
 181:.\Generated_Source\PSoC5/UART_2.c ****         UART_2_RXBITCTR_CONTROL_REG |= UART_2_CNTR_ENABLE;
 144              		.loc 1 181 0
 145 000e 104B     		ldr	r3, .L9
 146 0010 0F4A     		ldr	r2, .L9
 147 0012 1278     		ldrb	r2, [r2]
 148 0014 D2B2     		uxtb	r2, r2
 149 0016 42F02002 		orr	r2, r2, #32
 150 001a D2B2     		uxtb	r2, r2
 151 001c 1A70     		strb	r2, [r3]
 182:.\Generated_Source\PSoC5/UART_2.c ****         /* Enable the RX Interrupt. */
 183:.\Generated_Source\PSoC5/UART_2.c ****         UART_2_RXSTATUS_ACTL_REG  |= UART_2_INT_ENABLE;
 152              		.loc 1 183 0
 153 001e 0D4B     		ldr	r3, .L9+4
 154 0020 0C4A     		ldr	r2, .L9+4
 155 0022 1278     		ldrb	r2, [r2]
 156 0024 D2B2     		uxtb	r2, r2
 157 0026 42F01002 		orr	r2, r2, #16
 158 002a D2B2     		uxtb	r2, r2
 159 002c 1A70     		strb	r2, [r3]
ARM GAS  C:\Users\Owner\AppData\Local\Temp\cczyEAfi.s 			page 7


 184:.\Generated_Source\PSoC5/UART_2.c ****         #if(UART_2_RX_INTERRUPT_ENABLED && (UART_2_RXBUFFERSIZE > UART_2_FIFO_LENGTH))
 185:.\Generated_Source\PSoC5/UART_2.c ****             CyIntEnable(UART_2_RX_VECT_NUM);
 186:.\Generated_Source\PSoC5/UART_2.c ****             #if (UART_2_RXHW_ADDRESS_ENABLED)
 187:.\Generated_Source\PSoC5/UART_2.c ****                 UART_2_rxAddressDetected = 0u;
 188:.\Generated_Source\PSoC5/UART_2.c ****             #endif /* End UART_2_RXHW_ADDRESS_ENABLED */
 189:.\Generated_Source\PSoC5/UART_2.c ****         #endif /* End UART_2_RX_INTERRUPT_ENABLED */
 190:.\Generated_Source\PSoC5/UART_2.c ****     #endif /* End UART_2_RX_ENABLED || UART_2_HD_ENABLED*/
 191:.\Generated_Source\PSoC5/UART_2.c **** 
 192:.\Generated_Source\PSoC5/UART_2.c ****     #if(UART_2_TX_ENABLED)
 193:.\Generated_Source\PSoC5/UART_2.c ****         /*TX Counter (DP/Count7) Enable */
 194:.\Generated_Source\PSoC5/UART_2.c ****         #if(!UART_2_TXCLKGEN_DP)
 195:.\Generated_Source\PSoC5/UART_2.c ****             UART_2_TXBITCTR_CONTROL_REG |= UART_2_CNTR_ENABLE;
 196:.\Generated_Source\PSoC5/UART_2.c ****         #endif /* End UART_2_TXCLKGEN_DP */
 197:.\Generated_Source\PSoC5/UART_2.c ****         /* Enable the TX Interrupt. */
 198:.\Generated_Source\PSoC5/UART_2.c ****         UART_2_TXSTATUS_ACTL_REG |= UART_2_INT_ENABLE;
 160              		.loc 1 198 0
 161 002e 0A4B     		ldr	r3, .L9+8
 162 0030 094A     		ldr	r2, .L9+8
 163 0032 1278     		ldrb	r2, [r2]
 164 0034 D2B2     		uxtb	r2, r2
 165 0036 42F01002 		orr	r2, r2, #16
 166 003a D2B2     		uxtb	r2, r2
 167 003c 1A70     		strb	r2, [r3]
 199:.\Generated_Source\PSoC5/UART_2.c ****         #if(UART_2_TX_INTERRUPT_ENABLED && (UART_2_TXBUFFERSIZE > UART_2_FIFO_LENGTH))
 200:.\Generated_Source\PSoC5/UART_2.c ****             CyIntEnable(UART_2_TX_VECT_NUM);
 201:.\Generated_Source\PSoC5/UART_2.c ****         #endif /* End UART_2_TX_INTERRUPT_ENABLED*/
 202:.\Generated_Source\PSoC5/UART_2.c ****      #endif /* End UART_2_TX_ENABLED */
 203:.\Generated_Source\PSoC5/UART_2.c **** 
 204:.\Generated_Source\PSoC5/UART_2.c ****     #if(UART_2_INTERNAL_CLOCK_USED)
 205:.\Generated_Source\PSoC5/UART_2.c ****         /* Enable the clock. */
 206:.\Generated_Source\PSoC5/UART_2.c ****         UART_2_IntClock_Start();
 168              		.loc 1 206 0
 169 003e FFF7FEFF 		bl	UART_2_IntClock_Start
 207:.\Generated_Source\PSoC5/UART_2.c ****     #endif /* End UART_2_INTERNAL_CLOCK_USED */
 208:.\Generated_Source\PSoC5/UART_2.c **** 
 209:.\Generated_Source\PSoC5/UART_2.c ****     CyExitCriticalSection(enableInterrupts);
 170              		.loc 1 209 0
 171 0042 FB79     		ldrb	r3, [r7, #7]	@ zero_extendqisi2
 172 0044 1846     		mov	r0, r3
 173 0046 FFF7FEFF 		bl	CyExitCriticalSection
 210:.\Generated_Source\PSoC5/UART_2.c **** }
 174              		.loc 1 210 0
 175 004a 0837     		adds	r7, r7, #8
 176 004c BD46     		mov	sp, r7
 177              		@ sp needed
 178 004e 80BD     		pop	{r7, pc}
 179              	.L10:
 180              		.align	2
 181              	.L9:
 182 0050 94640040 		.word	1073767572
 183 0054 95640040 		.word	1073767573
 184 0058 97650040 		.word	1073767831
 185              		.cfi_endproc
 186              	.LFE2:
 187              		.size	UART_2_Enable, .-UART_2_Enable
 188              		.section	.text.UART_2_Stop,"ax",%progbits
 189              		.align	2
ARM GAS  C:\Users\Owner\AppData\Local\Temp\cczyEAfi.s 			page 8


 190              		.global	UART_2_Stop
 191              		.thumb
 192              		.thumb_func
 193              		.type	UART_2_Stop, %function
 194              	UART_2_Stop:
 195              	.LFB3:
 211:.\Generated_Source\PSoC5/UART_2.c **** 
 212:.\Generated_Source\PSoC5/UART_2.c **** 
 213:.\Generated_Source\PSoC5/UART_2.c **** /*******************************************************************************
 214:.\Generated_Source\PSoC5/UART_2.c **** * Function Name: UART_2_Stop
 215:.\Generated_Source\PSoC5/UART_2.c **** ********************************************************************************
 216:.\Generated_Source\PSoC5/UART_2.c **** *
 217:.\Generated_Source\PSoC5/UART_2.c **** * Summary:
 218:.\Generated_Source\PSoC5/UART_2.c **** *  Disable the UART component
 219:.\Generated_Source\PSoC5/UART_2.c **** *
 220:.\Generated_Source\PSoC5/UART_2.c **** * Parameters:
 221:.\Generated_Source\PSoC5/UART_2.c **** *  None.
 222:.\Generated_Source\PSoC5/UART_2.c **** *
 223:.\Generated_Source\PSoC5/UART_2.c **** * Return:
 224:.\Generated_Source\PSoC5/UART_2.c **** *  None.
 225:.\Generated_Source\PSoC5/UART_2.c **** *
 226:.\Generated_Source\PSoC5/UART_2.c **** *******************************************************************************/
 227:.\Generated_Source\PSoC5/UART_2.c **** void UART_2_Stop(void) 
 228:.\Generated_Source\PSoC5/UART_2.c **** {
 196              		.loc 1 228 0
 197              		.cfi_startproc
 198              		@ args = 0, pretend = 0, frame = 8
 199              		@ frame_needed = 1, uses_anonymous_args = 0
 200 0000 80B5     		push	{r7, lr}
 201              		.cfi_def_cfa_offset 8
 202              		.cfi_offset 7, -8
 203              		.cfi_offset 14, -4
 204 0002 82B0     		sub	sp, sp, #8
 205              		.cfi_def_cfa_offset 16
 206 0004 00AF     		add	r7, sp, #0
 207              		.cfi_def_cfa_register 7
 229:.\Generated_Source\PSoC5/UART_2.c ****     uint8 enableInterrupts;
 230:.\Generated_Source\PSoC5/UART_2.c ****     enableInterrupts = CyEnterCriticalSection();
 208              		.loc 1 230 0
 209 0006 FFF7FEFF 		bl	CyEnterCriticalSection
 210 000a 0346     		mov	r3, r0
 211 000c FB71     		strb	r3, [r7, #7]
 231:.\Generated_Source\PSoC5/UART_2.c **** 
 232:.\Generated_Source\PSoC5/UART_2.c ****     /* Write Bit Counter Disable */
 233:.\Generated_Source\PSoC5/UART_2.c ****     #if(UART_2_RX_ENABLED || UART_2_HD_ENABLED)
 234:.\Generated_Source\PSoC5/UART_2.c ****         UART_2_RXBITCTR_CONTROL_REG &= (uint8)~UART_2_CNTR_ENABLE;
 212              		.loc 1 234 0
 213 000e 104B     		ldr	r3, .L12
 214 0010 0F4A     		ldr	r2, .L12
 215 0012 1278     		ldrb	r2, [r2]
 216 0014 D2B2     		uxtb	r2, r2
 217 0016 22F02002 		bic	r2, r2, #32
 218 001a D2B2     		uxtb	r2, r2
 219 001c 1A70     		strb	r2, [r3]
 235:.\Generated_Source\PSoC5/UART_2.c ****     #endif /* End UART_2_RX_ENABLED */
 236:.\Generated_Source\PSoC5/UART_2.c **** 
 237:.\Generated_Source\PSoC5/UART_2.c ****     #if(UART_2_TX_ENABLED)
ARM GAS  C:\Users\Owner\AppData\Local\Temp\cczyEAfi.s 			page 9


 238:.\Generated_Source\PSoC5/UART_2.c ****         #if(!UART_2_TXCLKGEN_DP)
 239:.\Generated_Source\PSoC5/UART_2.c ****             UART_2_TXBITCTR_CONTROL_REG &= (uint8)~UART_2_CNTR_ENABLE;
 240:.\Generated_Source\PSoC5/UART_2.c ****         #endif /* End UART_2_TXCLKGEN_DP */
 241:.\Generated_Source\PSoC5/UART_2.c ****     #endif /* UART_2_TX_ENABLED */
 242:.\Generated_Source\PSoC5/UART_2.c **** 
 243:.\Generated_Source\PSoC5/UART_2.c ****     #if(UART_2_INTERNAL_CLOCK_USED)
 244:.\Generated_Source\PSoC5/UART_2.c ****         /* Disable the clock. */
 245:.\Generated_Source\PSoC5/UART_2.c ****         UART_2_IntClock_Stop();
 220              		.loc 1 245 0
 221 001e FFF7FEFF 		bl	UART_2_IntClock_Stop
 246:.\Generated_Source\PSoC5/UART_2.c ****     #endif /* End UART_2_INTERNAL_CLOCK_USED */
 247:.\Generated_Source\PSoC5/UART_2.c **** 
 248:.\Generated_Source\PSoC5/UART_2.c ****     /* Disable internal interrupt component */
 249:.\Generated_Source\PSoC5/UART_2.c ****     #if(UART_2_RX_ENABLED || UART_2_HD_ENABLED)
 250:.\Generated_Source\PSoC5/UART_2.c ****         UART_2_RXSTATUS_ACTL_REG  &= (uint8)~UART_2_INT_ENABLE;
 222              		.loc 1 250 0
 223 0022 0C4B     		ldr	r3, .L12+4
 224 0024 0B4A     		ldr	r2, .L12+4
 225 0026 1278     		ldrb	r2, [r2]
 226 0028 D2B2     		uxtb	r2, r2
 227 002a 22F01002 		bic	r2, r2, #16
 228 002e D2B2     		uxtb	r2, r2
 229 0030 1A70     		strb	r2, [r3]
 251:.\Generated_Source\PSoC5/UART_2.c ****         #if(UART_2_RX_INTERRUPT_ENABLED && (UART_2_RXBUFFERSIZE > UART_2_FIFO_LENGTH))
 252:.\Generated_Source\PSoC5/UART_2.c ****             UART_2_DisableRxInt();
 253:.\Generated_Source\PSoC5/UART_2.c ****         #endif /* End UART_2_RX_INTERRUPT_ENABLED */
 254:.\Generated_Source\PSoC5/UART_2.c ****     #endif /* End UART_2_RX_ENABLED */
 255:.\Generated_Source\PSoC5/UART_2.c **** 
 256:.\Generated_Source\PSoC5/UART_2.c ****     #if(UART_2_TX_ENABLED)
 257:.\Generated_Source\PSoC5/UART_2.c ****         UART_2_TXSTATUS_ACTL_REG &= (uint8)~UART_2_INT_ENABLE;
 230              		.loc 1 257 0
 231 0032 094B     		ldr	r3, .L12+8
 232 0034 084A     		ldr	r2, .L12+8
 233 0036 1278     		ldrb	r2, [r2]
 234 0038 D2B2     		uxtb	r2, r2
 235 003a 22F01002 		bic	r2, r2, #16
 236 003e D2B2     		uxtb	r2, r2
 237 0040 1A70     		strb	r2, [r3]
 258:.\Generated_Source\PSoC5/UART_2.c ****         #if(UART_2_TX_INTERRUPT_ENABLED && (UART_2_TXBUFFERSIZE > UART_2_FIFO_LENGTH))
 259:.\Generated_Source\PSoC5/UART_2.c ****             UART_2_DisableTxInt();
 260:.\Generated_Source\PSoC5/UART_2.c ****         #endif /* End UART_2_TX_INTERRUPT_ENABLED */
 261:.\Generated_Source\PSoC5/UART_2.c ****     #endif /* End UART_2_TX_ENABLED */
 262:.\Generated_Source\PSoC5/UART_2.c **** 
 263:.\Generated_Source\PSoC5/UART_2.c ****     CyExitCriticalSection(enableInterrupts);
 238              		.loc 1 263 0
 239 0042 FB79     		ldrb	r3, [r7, #7]	@ zero_extendqisi2
 240 0044 1846     		mov	r0, r3
 241 0046 FFF7FEFF 		bl	CyExitCriticalSection
 264:.\Generated_Source\PSoC5/UART_2.c **** }
 242              		.loc 1 264 0
 243 004a 0837     		adds	r7, r7, #8
 244 004c BD46     		mov	sp, r7
 245              		@ sp needed
 246 004e 80BD     		pop	{r7, pc}
 247              	.L13:
 248              		.align	2
 249              	.L12:
ARM GAS  C:\Users\Owner\AppData\Local\Temp\cczyEAfi.s 			page 10


 250 0050 94640040 		.word	1073767572
 251 0054 95640040 		.word	1073767573
 252 0058 97650040 		.word	1073767831
 253              		.cfi_endproc
 254              	.LFE3:
 255              		.size	UART_2_Stop, .-UART_2_Stop
 256              		.section	.text.UART_2_ReadControlRegister,"ax",%progbits
 257              		.align	2
 258              		.global	UART_2_ReadControlRegister
 259              		.thumb
 260              		.thumb_func
 261              		.type	UART_2_ReadControlRegister, %function
 262              	UART_2_ReadControlRegister:
 263              	.LFB4:
 265:.\Generated_Source\PSoC5/UART_2.c **** 
 266:.\Generated_Source\PSoC5/UART_2.c **** 
 267:.\Generated_Source\PSoC5/UART_2.c **** /*******************************************************************************
 268:.\Generated_Source\PSoC5/UART_2.c **** * Function Name: UART_2_ReadControlRegister
 269:.\Generated_Source\PSoC5/UART_2.c **** ********************************************************************************
 270:.\Generated_Source\PSoC5/UART_2.c **** *
 271:.\Generated_Source\PSoC5/UART_2.c **** * Summary:
 272:.\Generated_Source\PSoC5/UART_2.c **** *  Read the current state of the control register
 273:.\Generated_Source\PSoC5/UART_2.c **** *
 274:.\Generated_Source\PSoC5/UART_2.c **** * Parameters:
 275:.\Generated_Source\PSoC5/UART_2.c **** *  None.
 276:.\Generated_Source\PSoC5/UART_2.c **** *
 277:.\Generated_Source\PSoC5/UART_2.c **** * Return:
 278:.\Generated_Source\PSoC5/UART_2.c **** *  Current state of the control register.
 279:.\Generated_Source\PSoC5/UART_2.c **** *
 280:.\Generated_Source\PSoC5/UART_2.c **** *******************************************************************************/
 281:.\Generated_Source\PSoC5/UART_2.c **** uint8 UART_2_ReadControlRegister(void) 
 282:.\Generated_Source\PSoC5/UART_2.c **** {
 264              		.loc 1 282 0
 265              		.cfi_startproc
 266              		@ args = 0, pretend = 0, frame = 0
 267              		@ frame_needed = 1, uses_anonymous_args = 0
 268              		@ link register save eliminated.
 269 0000 80B4     		push	{r7}
 270              		.cfi_def_cfa_offset 4
 271              		.cfi_offset 7, -4
 272 0002 00AF     		add	r7, sp, #0
 273              		.cfi_def_cfa_register 7
 283:.\Generated_Source\PSoC5/UART_2.c ****     #if( UART_2_CONTROL_REG_REMOVED )
 284:.\Generated_Source\PSoC5/UART_2.c ****         return(0u);
 274              		.loc 1 284 0
 275 0004 0023     		movs	r3, #0
 285:.\Generated_Source\PSoC5/UART_2.c ****     #else
 286:.\Generated_Source\PSoC5/UART_2.c ****         return(UART_2_CONTROL_REG);
 287:.\Generated_Source\PSoC5/UART_2.c ****     #endif /* End UART_2_CONTROL_REG_REMOVED */
 288:.\Generated_Source\PSoC5/UART_2.c **** }
 276              		.loc 1 288 0
 277 0006 1846     		mov	r0, r3
 278 0008 BD46     		mov	sp, r7
 279              		@ sp needed
 280 000a 5DF8047B 		ldr	r7, [sp], #4
 281 000e 7047     		bx	lr
 282              		.cfi_endproc
ARM GAS  C:\Users\Owner\AppData\Local\Temp\cczyEAfi.s 			page 11


 283              	.LFE4:
 284              		.size	UART_2_ReadControlRegister, .-UART_2_ReadControlRegister
 285              		.section	.text.UART_2_WriteControlRegister,"ax",%progbits
 286              		.align	2
 287              		.global	UART_2_WriteControlRegister
 288              		.thumb
 289              		.thumb_func
 290              		.type	UART_2_WriteControlRegister, %function
 291              	UART_2_WriteControlRegister:
 292              	.LFB5:
 289:.\Generated_Source\PSoC5/UART_2.c **** 
 290:.\Generated_Source\PSoC5/UART_2.c **** 
 291:.\Generated_Source\PSoC5/UART_2.c **** /*******************************************************************************
 292:.\Generated_Source\PSoC5/UART_2.c **** * Function Name: UART_2_WriteControlRegister
 293:.\Generated_Source\PSoC5/UART_2.c **** ********************************************************************************
 294:.\Generated_Source\PSoC5/UART_2.c **** *
 295:.\Generated_Source\PSoC5/UART_2.c **** * Summary:
 296:.\Generated_Source\PSoC5/UART_2.c **** *  Writes an 8-bit value into the control register
 297:.\Generated_Source\PSoC5/UART_2.c **** *
 298:.\Generated_Source\PSoC5/UART_2.c **** * Parameters:
 299:.\Generated_Source\PSoC5/UART_2.c **** *  control:  control register value
 300:.\Generated_Source\PSoC5/UART_2.c **** *
 301:.\Generated_Source\PSoC5/UART_2.c **** * Return:
 302:.\Generated_Source\PSoC5/UART_2.c **** *  None.
 303:.\Generated_Source\PSoC5/UART_2.c **** *
 304:.\Generated_Source\PSoC5/UART_2.c **** *******************************************************************************/
 305:.\Generated_Source\PSoC5/UART_2.c **** void  UART_2_WriteControlRegister(uint8 control) 
 306:.\Generated_Source\PSoC5/UART_2.c **** {
 293              		.loc 1 306 0
 294              		.cfi_startproc
 295              		@ args = 0, pretend = 0, frame = 8
 296              		@ frame_needed = 1, uses_anonymous_args = 0
 297              		@ link register save eliminated.
 298 0000 80B4     		push	{r7}
 299              		.cfi_def_cfa_offset 4
 300              		.cfi_offset 7, -4
 301 0002 83B0     		sub	sp, sp, #12
 302              		.cfi_def_cfa_offset 16
 303 0004 00AF     		add	r7, sp, #0
 304              		.cfi_def_cfa_register 7
 305 0006 0346     		mov	r3, r0
 306 0008 FB71     		strb	r3, [r7, #7]
 307:.\Generated_Source\PSoC5/UART_2.c ****     #if( UART_2_CONTROL_REG_REMOVED )
 308:.\Generated_Source\PSoC5/UART_2.c ****         if(control != 0u) { }      /* release compiler warning */
 309:.\Generated_Source\PSoC5/UART_2.c ****     #else
 310:.\Generated_Source\PSoC5/UART_2.c ****        UART_2_CONTROL_REG = control;
 311:.\Generated_Source\PSoC5/UART_2.c ****     #endif /* End UART_2_CONTROL_REG_REMOVED */
 312:.\Generated_Source\PSoC5/UART_2.c **** }
 307              		.loc 1 312 0
 308 000a 0C37     		adds	r7, r7, #12
 309 000c BD46     		mov	sp, r7
 310              		@ sp needed
 311 000e 5DF8047B 		ldr	r7, [sp], #4
 312 0012 7047     		bx	lr
 313              		.cfi_endproc
 314              	.LFE5:
 315              		.size	UART_2_WriteControlRegister, .-UART_2_WriteControlRegister
ARM GAS  C:\Users\Owner\AppData\Local\Temp\cczyEAfi.s 			page 12


 316              		.section	.text.UART_2_SetRxInterruptMode,"ax",%progbits
 317              		.align	2
 318              		.global	UART_2_SetRxInterruptMode
 319              		.thumb
 320              		.thumb_func
 321              		.type	UART_2_SetRxInterruptMode, %function
 322              	UART_2_SetRxInterruptMode:
 323              	.LFB6:
 313:.\Generated_Source\PSoC5/UART_2.c **** 
 314:.\Generated_Source\PSoC5/UART_2.c **** 
 315:.\Generated_Source\PSoC5/UART_2.c **** #if(UART_2_RX_ENABLED || UART_2_HD_ENABLED)
 316:.\Generated_Source\PSoC5/UART_2.c **** 
 317:.\Generated_Source\PSoC5/UART_2.c ****     #if(UART_2_RX_INTERRUPT_ENABLED)
 318:.\Generated_Source\PSoC5/UART_2.c **** 
 319:.\Generated_Source\PSoC5/UART_2.c ****         /*******************************************************************************
 320:.\Generated_Source\PSoC5/UART_2.c ****         * Function Name: UART_2_EnableRxInt
 321:.\Generated_Source\PSoC5/UART_2.c ****         ********************************************************************************
 322:.\Generated_Source\PSoC5/UART_2.c ****         *
 323:.\Generated_Source\PSoC5/UART_2.c ****         * Summary:
 324:.\Generated_Source\PSoC5/UART_2.c ****         *  Enable RX interrupt generation
 325:.\Generated_Source\PSoC5/UART_2.c ****         *
 326:.\Generated_Source\PSoC5/UART_2.c ****         * Parameters:
 327:.\Generated_Source\PSoC5/UART_2.c ****         *  None.
 328:.\Generated_Source\PSoC5/UART_2.c ****         *
 329:.\Generated_Source\PSoC5/UART_2.c ****         * Return:
 330:.\Generated_Source\PSoC5/UART_2.c ****         *  None.
 331:.\Generated_Source\PSoC5/UART_2.c ****         *
 332:.\Generated_Source\PSoC5/UART_2.c ****         * Theory:
 333:.\Generated_Source\PSoC5/UART_2.c ****         *  Enable the interrupt output -or- the interrupt component itself
 334:.\Generated_Source\PSoC5/UART_2.c ****         *
 335:.\Generated_Source\PSoC5/UART_2.c ****         *******************************************************************************/
 336:.\Generated_Source\PSoC5/UART_2.c ****         void UART_2_EnableRxInt(void) 
 337:.\Generated_Source\PSoC5/UART_2.c ****         {
 338:.\Generated_Source\PSoC5/UART_2.c ****             CyIntEnable(UART_2_RX_VECT_NUM);
 339:.\Generated_Source\PSoC5/UART_2.c ****         }
 340:.\Generated_Source\PSoC5/UART_2.c **** 
 341:.\Generated_Source\PSoC5/UART_2.c **** 
 342:.\Generated_Source\PSoC5/UART_2.c ****         /*******************************************************************************
 343:.\Generated_Source\PSoC5/UART_2.c ****         * Function Name: UART_2_DisableRxInt
 344:.\Generated_Source\PSoC5/UART_2.c ****         ********************************************************************************
 345:.\Generated_Source\PSoC5/UART_2.c ****         *
 346:.\Generated_Source\PSoC5/UART_2.c ****         * Summary:
 347:.\Generated_Source\PSoC5/UART_2.c ****         *  Disable RX interrupt generation
 348:.\Generated_Source\PSoC5/UART_2.c ****         *
 349:.\Generated_Source\PSoC5/UART_2.c ****         * Parameters:
 350:.\Generated_Source\PSoC5/UART_2.c ****         *  None.
 351:.\Generated_Source\PSoC5/UART_2.c ****         *
 352:.\Generated_Source\PSoC5/UART_2.c ****         * Return:
 353:.\Generated_Source\PSoC5/UART_2.c ****         *  None.
 354:.\Generated_Source\PSoC5/UART_2.c ****         *
 355:.\Generated_Source\PSoC5/UART_2.c ****         * Theory:
 356:.\Generated_Source\PSoC5/UART_2.c ****         *  Disable the interrupt output -or- the interrupt component itself
 357:.\Generated_Source\PSoC5/UART_2.c ****         *
 358:.\Generated_Source\PSoC5/UART_2.c ****         *******************************************************************************/
 359:.\Generated_Source\PSoC5/UART_2.c ****         void UART_2_DisableRxInt(void) 
 360:.\Generated_Source\PSoC5/UART_2.c ****         {
 361:.\Generated_Source\PSoC5/UART_2.c ****             CyIntDisable(UART_2_RX_VECT_NUM);
ARM GAS  C:\Users\Owner\AppData\Local\Temp\cczyEAfi.s 			page 13


 362:.\Generated_Source\PSoC5/UART_2.c ****         }
 363:.\Generated_Source\PSoC5/UART_2.c **** 
 364:.\Generated_Source\PSoC5/UART_2.c ****     #endif /* UART_2_RX_INTERRUPT_ENABLED */
 365:.\Generated_Source\PSoC5/UART_2.c **** 
 366:.\Generated_Source\PSoC5/UART_2.c **** 
 367:.\Generated_Source\PSoC5/UART_2.c ****     /*******************************************************************************
 368:.\Generated_Source\PSoC5/UART_2.c ****     * Function Name: UART_2_SetRxInterruptMode
 369:.\Generated_Source\PSoC5/UART_2.c ****     ********************************************************************************
 370:.\Generated_Source\PSoC5/UART_2.c ****     *
 371:.\Generated_Source\PSoC5/UART_2.c ****     * Summary:
 372:.\Generated_Source\PSoC5/UART_2.c ****     *  Configure which status bits trigger an interrupt event
 373:.\Generated_Source\PSoC5/UART_2.c ****     *
 374:.\Generated_Source\PSoC5/UART_2.c ****     * Parameters:
 375:.\Generated_Source\PSoC5/UART_2.c ****     *  IntSrc:  An or'd combination of the desired status bit masks (defined in
 376:.\Generated_Source\PSoC5/UART_2.c ****     *           the header file)
 377:.\Generated_Source\PSoC5/UART_2.c ****     *
 378:.\Generated_Source\PSoC5/UART_2.c ****     * Return:
 379:.\Generated_Source\PSoC5/UART_2.c ****     *  None.
 380:.\Generated_Source\PSoC5/UART_2.c ****     *
 381:.\Generated_Source\PSoC5/UART_2.c ****     * Theory:
 382:.\Generated_Source\PSoC5/UART_2.c ****     *  Enables the output of specific status bits to the interrupt controller
 383:.\Generated_Source\PSoC5/UART_2.c ****     *
 384:.\Generated_Source\PSoC5/UART_2.c ****     *******************************************************************************/
 385:.\Generated_Source\PSoC5/UART_2.c ****     void UART_2_SetRxInterruptMode(uint8 intSrc) 
 386:.\Generated_Source\PSoC5/UART_2.c ****     {
 324              		.loc 1 386 0
 325              		.cfi_startproc
 326              		@ args = 0, pretend = 0, frame = 8
 327              		@ frame_needed = 1, uses_anonymous_args = 0
 328              		@ link register save eliminated.
 329 0000 80B4     		push	{r7}
 330              		.cfi_def_cfa_offset 4
 331              		.cfi_offset 7, -4
 332 0002 83B0     		sub	sp, sp, #12
 333              		.cfi_def_cfa_offset 16
 334 0004 00AF     		add	r7, sp, #0
 335              		.cfi_def_cfa_register 7
 336 0006 0346     		mov	r3, r0
 337 0008 FB71     		strb	r3, [r7, #7]
 387:.\Generated_Source\PSoC5/UART_2.c ****         UART_2_RXSTATUS_MASK_REG  = intSrc;
 338              		.loc 1 387 0
 339 000a 044B     		ldr	r3, .L18
 340 000c FA79     		ldrb	r2, [r7, #7]
 341 000e 1A70     		strb	r2, [r3]
 388:.\Generated_Source\PSoC5/UART_2.c ****     }
 342              		.loc 1 388 0
 343 0010 0C37     		adds	r7, r7, #12
 344 0012 BD46     		mov	sp, r7
 345              		@ sp needed
 346 0014 5DF8047B 		ldr	r7, [sp], #4
 347 0018 7047     		bx	lr
 348              	.L19:
 349 001a 00BF     		.align	2
 350              	.L18:
 351 001c 85640040 		.word	1073767557
 352              		.cfi_endproc
 353              	.LFE6:
ARM GAS  C:\Users\Owner\AppData\Local\Temp\cczyEAfi.s 			page 14


 354              		.size	UART_2_SetRxInterruptMode, .-UART_2_SetRxInterruptMode
 355              		.section	.text.UART_2_ReadRxData,"ax",%progbits
 356              		.align	2
 357              		.global	UART_2_ReadRxData
 358              		.thumb
 359              		.thumb_func
 360              		.type	UART_2_ReadRxData, %function
 361              	UART_2_ReadRxData:
 362              	.LFB7:
 389:.\Generated_Source\PSoC5/UART_2.c **** 
 390:.\Generated_Source\PSoC5/UART_2.c **** 
 391:.\Generated_Source\PSoC5/UART_2.c ****     /*******************************************************************************
 392:.\Generated_Source\PSoC5/UART_2.c ****     * Function Name: UART_2_ReadRxData
 393:.\Generated_Source\PSoC5/UART_2.c ****     ********************************************************************************
 394:.\Generated_Source\PSoC5/UART_2.c ****     *
 395:.\Generated_Source\PSoC5/UART_2.c ****     * Summary:
 396:.\Generated_Source\PSoC5/UART_2.c ****     *  Returns data in RX Data register without checking status register to
 397:.\Generated_Source\PSoC5/UART_2.c ****     *  determine if data is valid
 398:.\Generated_Source\PSoC5/UART_2.c ****     *
 399:.\Generated_Source\PSoC5/UART_2.c ****     * Parameters:
 400:.\Generated_Source\PSoC5/UART_2.c ****     *  None.
 401:.\Generated_Source\PSoC5/UART_2.c ****     *
 402:.\Generated_Source\PSoC5/UART_2.c ****     * Return:
 403:.\Generated_Source\PSoC5/UART_2.c ****     *  Received data from RX register
 404:.\Generated_Source\PSoC5/UART_2.c ****     *
 405:.\Generated_Source\PSoC5/UART_2.c ****     * Global Variables:
 406:.\Generated_Source\PSoC5/UART_2.c ****     *  UART_2_rxBuffer - RAM buffer pointer for save received data.
 407:.\Generated_Source\PSoC5/UART_2.c ****     *  UART_2_rxBufferWrite - cyclic index for write to rxBuffer,
 408:.\Generated_Source\PSoC5/UART_2.c ****     *     checked to identify new data.
 409:.\Generated_Source\PSoC5/UART_2.c ****     *  UART_2_rxBufferRead - cyclic index for read from rxBuffer,
 410:.\Generated_Source\PSoC5/UART_2.c ****     *     incremented after each byte has been read from buffer.
 411:.\Generated_Source\PSoC5/UART_2.c ****     *  UART_2_rxBufferLoopDetect - creared if loop condition was detected
 412:.\Generated_Source\PSoC5/UART_2.c ****     *     in RX ISR.
 413:.\Generated_Source\PSoC5/UART_2.c ****     *
 414:.\Generated_Source\PSoC5/UART_2.c ****     * Reentrant:
 415:.\Generated_Source\PSoC5/UART_2.c ****     *  No.
 416:.\Generated_Source\PSoC5/UART_2.c ****     *
 417:.\Generated_Source\PSoC5/UART_2.c ****     *******************************************************************************/
 418:.\Generated_Source\PSoC5/UART_2.c ****     uint8 UART_2_ReadRxData(void) 
 419:.\Generated_Source\PSoC5/UART_2.c ****     {
 363              		.loc 1 419 0
 364              		.cfi_startproc
 365              		@ args = 0, pretend = 0, frame = 8
 366              		@ frame_needed = 1, uses_anonymous_args = 0
 367              		@ link register save eliminated.
 368 0000 80B4     		push	{r7}
 369              		.cfi_def_cfa_offset 4
 370              		.cfi_offset 7, -4
 371 0002 83B0     		sub	sp, sp, #12
 372              		.cfi_def_cfa_offset 16
 373 0004 00AF     		add	r7, sp, #0
 374              		.cfi_def_cfa_register 7
 420:.\Generated_Source\PSoC5/UART_2.c ****         uint8 rxData;
 421:.\Generated_Source\PSoC5/UART_2.c **** 
 422:.\Generated_Source\PSoC5/UART_2.c ****         #if(UART_2_RXBUFFERSIZE > UART_2_FIFO_LENGTH)
 423:.\Generated_Source\PSoC5/UART_2.c ****             uint8 loc_rxBufferRead;
 424:.\Generated_Source\PSoC5/UART_2.c ****             uint8 loc_rxBufferWrite;
ARM GAS  C:\Users\Owner\AppData\Local\Temp\cczyEAfi.s 			page 15


 425:.\Generated_Source\PSoC5/UART_2.c ****             /* Protect variables that could change on interrupt. */
 426:.\Generated_Source\PSoC5/UART_2.c ****             /* Disable Rx interrupt. */
 427:.\Generated_Source\PSoC5/UART_2.c ****             #if(UART_2_RX_INTERRUPT_ENABLED)
 428:.\Generated_Source\PSoC5/UART_2.c ****                 UART_2_DisableRxInt();
 429:.\Generated_Source\PSoC5/UART_2.c ****             #endif /* UART_2_RX_INTERRUPT_ENABLED */
 430:.\Generated_Source\PSoC5/UART_2.c ****             loc_rxBufferRead = UART_2_rxBufferRead;
 431:.\Generated_Source\PSoC5/UART_2.c ****             loc_rxBufferWrite = UART_2_rxBufferWrite;
 432:.\Generated_Source\PSoC5/UART_2.c **** 
 433:.\Generated_Source\PSoC5/UART_2.c ****             if( (UART_2_rxBufferLoopDetect != 0u) || (loc_rxBufferRead != loc_rxBufferWrite) )
 434:.\Generated_Source\PSoC5/UART_2.c ****             {
 435:.\Generated_Source\PSoC5/UART_2.c ****                 rxData = UART_2_rxBuffer[loc_rxBufferRead];
 436:.\Generated_Source\PSoC5/UART_2.c ****                 loc_rxBufferRead++;
 437:.\Generated_Source\PSoC5/UART_2.c **** 
 438:.\Generated_Source\PSoC5/UART_2.c ****                 if(loc_rxBufferRead >= UART_2_RXBUFFERSIZE)
 439:.\Generated_Source\PSoC5/UART_2.c ****                 {
 440:.\Generated_Source\PSoC5/UART_2.c ****                     loc_rxBufferRead = 0u;
 441:.\Generated_Source\PSoC5/UART_2.c ****                 }
 442:.\Generated_Source\PSoC5/UART_2.c ****                 /* Update the real pointer */
 443:.\Generated_Source\PSoC5/UART_2.c ****                 UART_2_rxBufferRead = loc_rxBufferRead;
 444:.\Generated_Source\PSoC5/UART_2.c **** 
 445:.\Generated_Source\PSoC5/UART_2.c ****                 if(UART_2_rxBufferLoopDetect != 0u )
 446:.\Generated_Source\PSoC5/UART_2.c ****                 {
 447:.\Generated_Source\PSoC5/UART_2.c ****                     UART_2_rxBufferLoopDetect = 0u;
 448:.\Generated_Source\PSoC5/UART_2.c ****                     #if( (UART_2_RX_INTERRUPT_ENABLED) && (UART_2_FLOW_CONTROL != 0u) && \
 449:.\Generated_Source\PSoC5/UART_2.c ****                          (UART_2_RXBUFFERSIZE > UART_2_FIFO_LENGTH) )
 450:.\Generated_Source\PSoC5/UART_2.c ****                         /* When Hardware Flow Control selected - return RX mask */
 451:.\Generated_Source\PSoC5/UART_2.c ****                         #if( UART_2_HD_ENABLED )
 452:.\Generated_Source\PSoC5/UART_2.c ****                             if((UART_2_CONTROL_REG & UART_2_CTRL_HD_SEND) == 0u)
 453:.\Generated_Source\PSoC5/UART_2.c ****                             {   /* In Half duplex mode return RX mask only in RX
 454:.\Generated_Source\PSoC5/UART_2.c ****                                 *  configuration set, otherwise
 455:.\Generated_Source\PSoC5/UART_2.c ****                                 *  mask will be returned in LoadRxConfig() API.
 456:.\Generated_Source\PSoC5/UART_2.c ****                                 */
 457:.\Generated_Source\PSoC5/UART_2.c ****                                 UART_2_RXSTATUS_MASK_REG  |= UART_2_RX_STS_FIFO_NOTEMPTY;
 458:.\Generated_Source\PSoC5/UART_2.c ****                             }
 459:.\Generated_Source\PSoC5/UART_2.c ****                         #else
 460:.\Generated_Source\PSoC5/UART_2.c ****                             UART_2_RXSTATUS_MASK_REG  |= UART_2_RX_STS_FIFO_NOTEMPTY;
 461:.\Generated_Source\PSoC5/UART_2.c ****                         #endif /* end UART_2_HD_ENABLED */
 462:.\Generated_Source\PSoC5/UART_2.c ****                     #endif /* UART_2_RX_INTERRUPT_ENABLED and Hardware flow control*/
 463:.\Generated_Source\PSoC5/UART_2.c ****                 }
 464:.\Generated_Source\PSoC5/UART_2.c ****             }
 465:.\Generated_Source\PSoC5/UART_2.c ****             else
 466:.\Generated_Source\PSoC5/UART_2.c ****             {   /* Needs to check status for RX_STS_FIFO_NOTEMPTY bit*/
 467:.\Generated_Source\PSoC5/UART_2.c ****                 rxData = UART_2_RXDATA_REG;
 468:.\Generated_Source\PSoC5/UART_2.c ****             }
 469:.\Generated_Source\PSoC5/UART_2.c **** 
 470:.\Generated_Source\PSoC5/UART_2.c ****             /* Enable Rx interrupt. */
 471:.\Generated_Source\PSoC5/UART_2.c ****             #if(UART_2_RX_INTERRUPT_ENABLED)
 472:.\Generated_Source\PSoC5/UART_2.c ****                 UART_2_EnableRxInt();
 473:.\Generated_Source\PSoC5/UART_2.c ****             #endif /* End UART_2_RX_INTERRUPT_ENABLED */
 474:.\Generated_Source\PSoC5/UART_2.c **** 
 475:.\Generated_Source\PSoC5/UART_2.c ****         #else /* UART_2_RXBUFFERSIZE > UART_2_FIFO_LENGTH */
 476:.\Generated_Source\PSoC5/UART_2.c **** 
 477:.\Generated_Source\PSoC5/UART_2.c ****             /* Needs to check status for RX_STS_FIFO_NOTEMPTY bit*/
 478:.\Generated_Source\PSoC5/UART_2.c ****             rxData = UART_2_RXDATA_REG;
 375              		.loc 1 478 0
 376 0006 054B     		ldr	r3, .L22
 377 0008 1B78     		ldrb	r3, [r3]
ARM GAS  C:\Users\Owner\AppData\Local\Temp\cczyEAfi.s 			page 16


 378 000a FB71     		strb	r3, [r7, #7]
 479:.\Generated_Source\PSoC5/UART_2.c **** 
 480:.\Generated_Source\PSoC5/UART_2.c ****         #endif /* UART_2_RXBUFFERSIZE > UART_2_FIFO_LENGTH */
 481:.\Generated_Source\PSoC5/UART_2.c **** 
 482:.\Generated_Source\PSoC5/UART_2.c ****         return(rxData);
 379              		.loc 1 482 0
 380 000c FB79     		ldrb	r3, [r7, #7]	@ zero_extendqisi2
 483:.\Generated_Source\PSoC5/UART_2.c ****     }
 381              		.loc 1 483 0
 382 000e 1846     		mov	r0, r3
 383 0010 0C37     		adds	r7, r7, #12
 384 0012 BD46     		mov	sp, r7
 385              		@ sp needed
 386 0014 5DF8047B 		ldr	r7, [sp], #4
 387 0018 7047     		bx	lr
 388              	.L23:
 389 001a 00BF     		.align	2
 390              	.L22:
 391 001c 44640040 		.word	1073767492
 392              		.cfi_endproc
 393              	.LFE7:
 394              		.size	UART_2_ReadRxData, .-UART_2_ReadRxData
 395              		.section	.text.UART_2_ReadRxStatus,"ax",%progbits
 396              		.align	2
 397              		.global	UART_2_ReadRxStatus
 398              		.thumb
 399              		.thumb_func
 400              		.type	UART_2_ReadRxStatus, %function
 401              	UART_2_ReadRxStatus:
 402              	.LFB8:
 484:.\Generated_Source\PSoC5/UART_2.c **** 
 485:.\Generated_Source\PSoC5/UART_2.c **** 
 486:.\Generated_Source\PSoC5/UART_2.c ****     /*******************************************************************************
 487:.\Generated_Source\PSoC5/UART_2.c ****     * Function Name: UART_2_ReadRxStatus
 488:.\Generated_Source\PSoC5/UART_2.c ****     ********************************************************************************
 489:.\Generated_Source\PSoC5/UART_2.c ****     *
 490:.\Generated_Source\PSoC5/UART_2.c ****     * Summary:
 491:.\Generated_Source\PSoC5/UART_2.c ****     *  Read the current state of the status register
 492:.\Generated_Source\PSoC5/UART_2.c ****     *  And detect software buffer overflow.
 493:.\Generated_Source\PSoC5/UART_2.c ****     *
 494:.\Generated_Source\PSoC5/UART_2.c ****     * Parameters:
 495:.\Generated_Source\PSoC5/UART_2.c ****     *  None.
 496:.\Generated_Source\PSoC5/UART_2.c ****     *
 497:.\Generated_Source\PSoC5/UART_2.c ****     * Return:
 498:.\Generated_Source\PSoC5/UART_2.c ****     *  Current state of the status register.
 499:.\Generated_Source\PSoC5/UART_2.c ****     *
 500:.\Generated_Source\PSoC5/UART_2.c ****     * Global Variables:
 501:.\Generated_Source\PSoC5/UART_2.c ****     *  UART_2_rxBufferOverflow - used to indicate overload condition.
 502:.\Generated_Source\PSoC5/UART_2.c ****     *   It set to one in RX interrupt when there isn?t free space in
 503:.\Generated_Source\PSoC5/UART_2.c ****     *   UART_2_rxBufferRead to write new data. This condition returned
 504:.\Generated_Source\PSoC5/UART_2.c ****     *   and cleared to zero by this API as an
 505:.\Generated_Source\PSoC5/UART_2.c ****     *   UART_2_RX_STS_SOFT_BUFF_OVER bit along with RX Status register
 506:.\Generated_Source\PSoC5/UART_2.c ****     *   bits.
 507:.\Generated_Source\PSoC5/UART_2.c ****     *
 508:.\Generated_Source\PSoC5/UART_2.c ****     *******************************************************************************/
 509:.\Generated_Source\PSoC5/UART_2.c ****     uint8 UART_2_ReadRxStatus(void) 
 510:.\Generated_Source\PSoC5/UART_2.c ****     {
ARM GAS  C:\Users\Owner\AppData\Local\Temp\cczyEAfi.s 			page 17


 403              		.loc 1 510 0
 404              		.cfi_startproc
 405              		@ args = 0, pretend = 0, frame = 8
 406              		@ frame_needed = 1, uses_anonymous_args = 0
 407              		@ link register save eliminated.
 408 0000 80B4     		push	{r7}
 409              		.cfi_def_cfa_offset 4
 410              		.cfi_offset 7, -4
 411 0002 83B0     		sub	sp, sp, #12
 412              		.cfi_def_cfa_offset 16
 413 0004 00AF     		add	r7, sp, #0
 414              		.cfi_def_cfa_register 7
 511:.\Generated_Source\PSoC5/UART_2.c ****         uint8 status;
 512:.\Generated_Source\PSoC5/UART_2.c **** 
 513:.\Generated_Source\PSoC5/UART_2.c ****         status = UART_2_RXSTATUS_REG & UART_2_RX_HW_MASK;
 415              		.loc 1 513 0
 416 0006 064B     		ldr	r3, .L26
 417 0008 1B78     		ldrb	r3, [r3]
 418 000a DBB2     		uxtb	r3, r3
 419 000c 03F07F03 		and	r3, r3, #127
 420 0010 FB71     		strb	r3, [r7, #7]
 514:.\Generated_Source\PSoC5/UART_2.c **** 
 515:.\Generated_Source\PSoC5/UART_2.c ****         #if(UART_2_RXBUFFERSIZE > UART_2_FIFO_LENGTH)
 516:.\Generated_Source\PSoC5/UART_2.c ****             if( UART_2_rxBufferOverflow != 0u )
 517:.\Generated_Source\PSoC5/UART_2.c ****             {
 518:.\Generated_Source\PSoC5/UART_2.c ****                 status |= UART_2_RX_STS_SOFT_BUFF_OVER;
 519:.\Generated_Source\PSoC5/UART_2.c ****                 UART_2_rxBufferOverflow = 0u;
 520:.\Generated_Source\PSoC5/UART_2.c ****             }
 521:.\Generated_Source\PSoC5/UART_2.c ****         #endif /* UART_2_RXBUFFERSIZE */
 522:.\Generated_Source\PSoC5/UART_2.c **** 
 523:.\Generated_Source\PSoC5/UART_2.c ****         return(status);
 421              		.loc 1 523 0
 422 0012 FB79     		ldrb	r3, [r7, #7]	@ zero_extendqisi2
 524:.\Generated_Source\PSoC5/UART_2.c ****     }
 423              		.loc 1 524 0
 424 0014 1846     		mov	r0, r3
 425 0016 0C37     		adds	r7, r7, #12
 426 0018 BD46     		mov	sp, r7
 427              		@ sp needed
 428 001a 5DF8047B 		ldr	r7, [sp], #4
 429 001e 7047     		bx	lr
 430              	.L27:
 431              		.align	2
 432              	.L26:
 433 0020 65640040 		.word	1073767525
 434              		.cfi_endproc
 435              	.LFE8:
 436              		.size	UART_2_ReadRxStatus, .-UART_2_ReadRxStatus
 437              		.section	.text.UART_2_GetChar,"ax",%progbits
 438              		.align	2
 439              		.global	UART_2_GetChar
 440              		.thumb
 441              		.thumb_func
 442              		.type	UART_2_GetChar, %function
 443              	UART_2_GetChar:
 444              	.LFB9:
 525:.\Generated_Source\PSoC5/UART_2.c **** 
ARM GAS  C:\Users\Owner\AppData\Local\Temp\cczyEAfi.s 			page 18


 526:.\Generated_Source\PSoC5/UART_2.c **** 
 527:.\Generated_Source\PSoC5/UART_2.c ****     /*******************************************************************************
 528:.\Generated_Source\PSoC5/UART_2.c ****     * Function Name: UART_2_GetChar
 529:.\Generated_Source\PSoC5/UART_2.c ****     ********************************************************************************
 530:.\Generated_Source\PSoC5/UART_2.c ****     *
 531:.\Generated_Source\PSoC5/UART_2.c ****     * Summary:
 532:.\Generated_Source\PSoC5/UART_2.c ****     *  Reads UART RX buffer immediately, if data is not available or an error
 533:.\Generated_Source\PSoC5/UART_2.c ****     *  condition exists, zero is returned; otherwise, character is read and
 534:.\Generated_Source\PSoC5/UART_2.c ****     *  returned.
 535:.\Generated_Source\PSoC5/UART_2.c ****     *
 536:.\Generated_Source\PSoC5/UART_2.c ****     * Parameters:
 537:.\Generated_Source\PSoC5/UART_2.c ****     *  None.
 538:.\Generated_Source\PSoC5/UART_2.c ****     *
 539:.\Generated_Source\PSoC5/UART_2.c ****     * Return:
 540:.\Generated_Source\PSoC5/UART_2.c ****     *  Character read from UART RX buffer. ASCII characters from 1 to 255 are valid.
 541:.\Generated_Source\PSoC5/UART_2.c ****     *  A returned zero signifies an error condition or no data available.
 542:.\Generated_Source\PSoC5/UART_2.c ****     *
 543:.\Generated_Source\PSoC5/UART_2.c ****     * Global Variables:
 544:.\Generated_Source\PSoC5/UART_2.c ****     *  UART_2_rxBuffer - RAM buffer pointer for save received data.
 545:.\Generated_Source\PSoC5/UART_2.c ****     *  UART_2_rxBufferWrite - cyclic index for write to rxBuffer,
 546:.\Generated_Source\PSoC5/UART_2.c ****     *     checked to identify new data.
 547:.\Generated_Source\PSoC5/UART_2.c ****     *  UART_2_rxBufferRead - cyclic index for read from rxBuffer,
 548:.\Generated_Source\PSoC5/UART_2.c ****     *     incremented after each byte has been read from buffer.
 549:.\Generated_Source\PSoC5/UART_2.c ****     *  UART_2_rxBufferLoopDetect - creared if loop condition was detected
 550:.\Generated_Source\PSoC5/UART_2.c ****     *     in RX ISR.
 551:.\Generated_Source\PSoC5/UART_2.c ****     *
 552:.\Generated_Source\PSoC5/UART_2.c ****     * Reentrant:
 553:.\Generated_Source\PSoC5/UART_2.c ****     *  No.
 554:.\Generated_Source\PSoC5/UART_2.c ****     *
 555:.\Generated_Source\PSoC5/UART_2.c ****     *******************************************************************************/
 556:.\Generated_Source\PSoC5/UART_2.c ****     uint8 UART_2_GetChar(void) 
 557:.\Generated_Source\PSoC5/UART_2.c ****     {
 445              		.loc 1 557 0
 446              		.cfi_startproc
 447              		@ args = 0, pretend = 0, frame = 8
 448              		@ frame_needed = 1, uses_anonymous_args = 0
 449              		@ link register save eliminated.
 450 0000 80B4     		push	{r7}
 451              		.cfi_def_cfa_offset 4
 452              		.cfi_offset 7, -4
 453 0002 83B0     		sub	sp, sp, #12
 454              		.cfi_def_cfa_offset 16
 455 0004 00AF     		add	r7, sp, #0
 456              		.cfi_def_cfa_register 7
 558:.\Generated_Source\PSoC5/UART_2.c ****         uint8 rxData = 0u;
 457              		.loc 1 558 0
 458 0006 0023     		movs	r3, #0
 459 0008 FB71     		strb	r3, [r7, #7]
 559:.\Generated_Source\PSoC5/UART_2.c ****         uint8 rxStatus;
 560:.\Generated_Source\PSoC5/UART_2.c **** 
 561:.\Generated_Source\PSoC5/UART_2.c ****         #if(UART_2_RXBUFFERSIZE > UART_2_FIFO_LENGTH)
 562:.\Generated_Source\PSoC5/UART_2.c ****             uint8 loc_rxBufferRead;
 563:.\Generated_Source\PSoC5/UART_2.c ****             uint8 loc_rxBufferWrite;
 564:.\Generated_Source\PSoC5/UART_2.c ****             /* Protect variables that could change on interrupt. */
 565:.\Generated_Source\PSoC5/UART_2.c ****             /* Disable Rx interrupt. */
 566:.\Generated_Source\PSoC5/UART_2.c ****             #if(UART_2_RX_INTERRUPT_ENABLED)
 567:.\Generated_Source\PSoC5/UART_2.c ****                 UART_2_DisableRxInt();
ARM GAS  C:\Users\Owner\AppData\Local\Temp\cczyEAfi.s 			page 19


 568:.\Generated_Source\PSoC5/UART_2.c ****             #endif /* UART_2_RX_INTERRUPT_ENABLED */
 569:.\Generated_Source\PSoC5/UART_2.c ****             loc_rxBufferRead = UART_2_rxBufferRead;
 570:.\Generated_Source\PSoC5/UART_2.c ****             loc_rxBufferWrite = UART_2_rxBufferWrite;
 571:.\Generated_Source\PSoC5/UART_2.c **** 
 572:.\Generated_Source\PSoC5/UART_2.c ****             if( (UART_2_rxBufferLoopDetect != 0u) || (loc_rxBufferRead != loc_rxBufferWrite) )
 573:.\Generated_Source\PSoC5/UART_2.c ****             {
 574:.\Generated_Source\PSoC5/UART_2.c ****                 rxData = UART_2_rxBuffer[loc_rxBufferRead];
 575:.\Generated_Source\PSoC5/UART_2.c ****                 loc_rxBufferRead++;
 576:.\Generated_Source\PSoC5/UART_2.c ****                 if(loc_rxBufferRead >= UART_2_RXBUFFERSIZE)
 577:.\Generated_Source\PSoC5/UART_2.c ****                 {
 578:.\Generated_Source\PSoC5/UART_2.c ****                     loc_rxBufferRead = 0u;
 579:.\Generated_Source\PSoC5/UART_2.c ****                 }
 580:.\Generated_Source\PSoC5/UART_2.c ****                 /* Update the real pointer */
 581:.\Generated_Source\PSoC5/UART_2.c ****                 UART_2_rxBufferRead = loc_rxBufferRead;
 582:.\Generated_Source\PSoC5/UART_2.c **** 
 583:.\Generated_Source\PSoC5/UART_2.c ****                 if(UART_2_rxBufferLoopDetect > 0u )
 584:.\Generated_Source\PSoC5/UART_2.c ****                 {
 585:.\Generated_Source\PSoC5/UART_2.c ****                     UART_2_rxBufferLoopDetect = 0u;
 586:.\Generated_Source\PSoC5/UART_2.c ****                     #if( (UART_2_RX_INTERRUPT_ENABLED) && (UART_2_FLOW_CONTROL != 0u) )
 587:.\Generated_Source\PSoC5/UART_2.c ****                         /* When Hardware Flow Control selected - return RX mask */
 588:.\Generated_Source\PSoC5/UART_2.c ****                         #if( UART_2_HD_ENABLED )
 589:.\Generated_Source\PSoC5/UART_2.c ****                             if((UART_2_CONTROL_REG & UART_2_CTRL_HD_SEND) == 0u)
 590:.\Generated_Source\PSoC5/UART_2.c ****                             {   /* In Half duplex mode return RX mask only if
 591:.\Generated_Source\PSoC5/UART_2.c ****                                 *  RX configuration set, otherwise
 592:.\Generated_Source\PSoC5/UART_2.c ****                                 *  mask will be returned in LoadRxConfig() API.
 593:.\Generated_Source\PSoC5/UART_2.c ****                                 */
 594:.\Generated_Source\PSoC5/UART_2.c ****                                 UART_2_RXSTATUS_MASK_REG  |= UART_2_RX_STS_FIFO_NOTEMPTY;
 595:.\Generated_Source\PSoC5/UART_2.c ****                             }
 596:.\Generated_Source\PSoC5/UART_2.c ****                         #else
 597:.\Generated_Source\PSoC5/UART_2.c ****                             UART_2_RXSTATUS_MASK_REG  |= UART_2_RX_STS_FIFO_NOTEMPTY;
 598:.\Generated_Source\PSoC5/UART_2.c ****                         #endif /* end UART_2_HD_ENABLED */
 599:.\Generated_Source\PSoC5/UART_2.c ****                     #endif /* UART_2_RX_INTERRUPT_ENABLED and Hardware flow control*/
 600:.\Generated_Source\PSoC5/UART_2.c ****                 }
 601:.\Generated_Source\PSoC5/UART_2.c **** 
 602:.\Generated_Source\PSoC5/UART_2.c ****             }
 603:.\Generated_Source\PSoC5/UART_2.c ****             else
 604:.\Generated_Source\PSoC5/UART_2.c ****             {   rxStatus = UART_2_RXSTATUS_REG;
 605:.\Generated_Source\PSoC5/UART_2.c ****                 if((rxStatus & UART_2_RX_STS_FIFO_NOTEMPTY) != 0u)
 606:.\Generated_Source\PSoC5/UART_2.c ****                 {   /* Read received data from FIFO*/
 607:.\Generated_Source\PSoC5/UART_2.c ****                     rxData = UART_2_RXDATA_REG;
 608:.\Generated_Source\PSoC5/UART_2.c ****                     /*Check status on error*/
 609:.\Generated_Source\PSoC5/UART_2.c ****                     if((rxStatus & (UART_2_RX_STS_BREAK | UART_2_RX_STS_PAR_ERROR |
 610:.\Generated_Source\PSoC5/UART_2.c ****                                    UART_2_RX_STS_STOP_ERROR | UART_2_RX_STS_OVERRUN)) != 0u)
 611:.\Generated_Source\PSoC5/UART_2.c ****                     {
 612:.\Generated_Source\PSoC5/UART_2.c ****                         rxData = 0u;
 613:.\Generated_Source\PSoC5/UART_2.c ****                     }
 614:.\Generated_Source\PSoC5/UART_2.c ****                 }
 615:.\Generated_Source\PSoC5/UART_2.c ****             }
 616:.\Generated_Source\PSoC5/UART_2.c **** 
 617:.\Generated_Source\PSoC5/UART_2.c ****             /* Enable Rx interrupt. */
 618:.\Generated_Source\PSoC5/UART_2.c ****             #if(UART_2_RX_INTERRUPT_ENABLED)
 619:.\Generated_Source\PSoC5/UART_2.c ****                 UART_2_EnableRxInt();
 620:.\Generated_Source\PSoC5/UART_2.c ****             #endif /* UART_2_RX_INTERRUPT_ENABLED */
 621:.\Generated_Source\PSoC5/UART_2.c **** 
 622:.\Generated_Source\PSoC5/UART_2.c ****         #else /* UART_2_RXBUFFERSIZE > UART_2_FIFO_LENGTH */
 623:.\Generated_Source\PSoC5/UART_2.c **** 
 624:.\Generated_Source\PSoC5/UART_2.c ****             rxStatus =UART_2_RXSTATUS_REG;
ARM GAS  C:\Users\Owner\AppData\Local\Temp\cczyEAfi.s 			page 20


 460              		.loc 1 624 0
 461 000a 0C4B     		ldr	r3, .L31
 462 000c 1B78     		ldrb	r3, [r3]
 463 000e BB71     		strb	r3, [r7, #6]
 625:.\Generated_Source\PSoC5/UART_2.c ****             if((rxStatus & UART_2_RX_STS_FIFO_NOTEMPTY) != 0u)
 464              		.loc 1 625 0
 465 0010 BB79     		ldrb	r3, [r7, #6]	@ zero_extendqisi2
 466 0012 03F02003 		and	r3, r3, #32
 467 0016 002B     		cmp	r3, #0
 468 0018 09D0     		beq	.L29
 626:.\Generated_Source\PSoC5/UART_2.c ****             {   /* Read received data from FIFO*/
 627:.\Generated_Source\PSoC5/UART_2.c ****                 rxData = UART_2_RXDATA_REG;
 469              		.loc 1 627 0
 470 001a 094B     		ldr	r3, .L31+4
 471 001c 1B78     		ldrb	r3, [r3]
 472 001e FB71     		strb	r3, [r7, #7]
 628:.\Generated_Source\PSoC5/UART_2.c ****                 /*Check status on error*/
 629:.\Generated_Source\PSoC5/UART_2.c ****                 if((rxStatus & (UART_2_RX_STS_BREAK | UART_2_RX_STS_PAR_ERROR |
 630:.\Generated_Source\PSoC5/UART_2.c ****                                UART_2_RX_STS_STOP_ERROR | UART_2_RX_STS_OVERRUN)) != 0u)
 473              		.loc 1 630 0
 474 0020 BB79     		ldrb	r3, [r7, #6]	@ zero_extendqisi2
 475 0022 03F01E03 		and	r3, r3, #30
 629:.\Generated_Source\PSoC5/UART_2.c ****                 if((rxStatus & (UART_2_RX_STS_BREAK | UART_2_RX_STS_PAR_ERROR |
 476              		.loc 1 629 0
 477 0026 002B     		cmp	r3, #0
 478 0028 01D0     		beq	.L29
 631:.\Generated_Source\PSoC5/UART_2.c ****                 {
 632:.\Generated_Source\PSoC5/UART_2.c ****                     rxData = 0u;
 479              		.loc 1 632 0
 480 002a 0023     		movs	r3, #0
 481 002c FB71     		strb	r3, [r7, #7]
 482              	.L29:
 633:.\Generated_Source\PSoC5/UART_2.c ****                 }
 634:.\Generated_Source\PSoC5/UART_2.c ****             }
 635:.\Generated_Source\PSoC5/UART_2.c ****         #endif /* UART_2_RXBUFFERSIZE > UART_2_FIFO_LENGTH */
 636:.\Generated_Source\PSoC5/UART_2.c **** 
 637:.\Generated_Source\PSoC5/UART_2.c ****         return(rxData);
 483              		.loc 1 637 0
 484 002e FB79     		ldrb	r3, [r7, #7]	@ zero_extendqisi2
 638:.\Generated_Source\PSoC5/UART_2.c ****     }
 485              		.loc 1 638 0
 486 0030 1846     		mov	r0, r3
 487 0032 0C37     		adds	r7, r7, #12
 488 0034 BD46     		mov	sp, r7
 489              		@ sp needed
 490 0036 5DF8047B 		ldr	r7, [sp], #4
 491 003a 7047     		bx	lr
 492              	.L32:
 493              		.align	2
 494              	.L31:
 495 003c 65640040 		.word	1073767525
 496 0040 44640040 		.word	1073767492
 497              		.cfi_endproc
 498              	.LFE9:
 499              		.size	UART_2_GetChar, .-UART_2_GetChar
 500              		.section	.text.UART_2_GetByte,"ax",%progbits
 501              		.align	2
ARM GAS  C:\Users\Owner\AppData\Local\Temp\cczyEAfi.s 			page 21


 502              		.global	UART_2_GetByte
 503              		.thumb
 504              		.thumb_func
 505              		.type	UART_2_GetByte, %function
 506              	UART_2_GetByte:
 507              	.LFB10:
 639:.\Generated_Source\PSoC5/UART_2.c **** 
 640:.\Generated_Source\PSoC5/UART_2.c **** 
 641:.\Generated_Source\PSoC5/UART_2.c ****     /*******************************************************************************
 642:.\Generated_Source\PSoC5/UART_2.c ****     * Function Name: UART_2_GetByte
 643:.\Generated_Source\PSoC5/UART_2.c ****     ********************************************************************************
 644:.\Generated_Source\PSoC5/UART_2.c ****     *
 645:.\Generated_Source\PSoC5/UART_2.c ****     * Summary:
 646:.\Generated_Source\PSoC5/UART_2.c ****     *  Grab the next available byte of data from the recieve FIFO
 647:.\Generated_Source\PSoC5/UART_2.c ****     *
 648:.\Generated_Source\PSoC5/UART_2.c ****     * Parameters:
 649:.\Generated_Source\PSoC5/UART_2.c ****     *  None.
 650:.\Generated_Source\PSoC5/UART_2.c ****     *
 651:.\Generated_Source\PSoC5/UART_2.c ****     * Return:
 652:.\Generated_Source\PSoC5/UART_2.c ****     *  MSB contains Status Register and LSB contains UART RX data
 653:.\Generated_Source\PSoC5/UART_2.c ****     *
 654:.\Generated_Source\PSoC5/UART_2.c ****     * Reentrant:
 655:.\Generated_Source\PSoC5/UART_2.c ****     *  No.
 656:.\Generated_Source\PSoC5/UART_2.c ****     *
 657:.\Generated_Source\PSoC5/UART_2.c ****     *******************************************************************************/
 658:.\Generated_Source\PSoC5/UART_2.c ****     uint16 UART_2_GetByte(void) 
 659:.\Generated_Source\PSoC5/UART_2.c ****     {
 508              		.loc 1 659 0
 509              		.cfi_startproc
 510              		@ args = 0, pretend = 0, frame = 0
 511              		@ frame_needed = 1, uses_anonymous_args = 0
 512 0000 98B5     		push	{r3, r4, r7, lr}
 513              		.cfi_def_cfa_offset 16
 514              		.cfi_offset 3, -16
 515              		.cfi_offset 4, -12
 516              		.cfi_offset 7, -8
 517              		.cfi_offset 14, -4
 518 0002 00AF     		add	r7, sp, #0
 519              		.cfi_def_cfa_register 7
 660:.\Generated_Source\PSoC5/UART_2.c ****         return ( ((uint16)UART_2_ReadRxStatus() << 8u) | UART_2_ReadRxData() );
 520              		.loc 1 660 0
 521 0004 FFF7FEFF 		bl	UART_2_ReadRxStatus
 522 0008 0346     		mov	r3, r0
 523 000a 1B02     		lsls	r3, r3, #8
 524 000c 9CB2     		uxth	r4, r3
 525 000e FFF7FEFF 		bl	UART_2_ReadRxData
 526 0012 0346     		mov	r3, r0
 527 0014 2246     		mov	r2, r4	@ movhi
 528 0016 1343     		orrs	r3, r3, r2
 529 0018 9BB2     		uxth	r3, r3
 530 001a 9BB2     		uxth	r3, r3
 661:.\Generated_Source\PSoC5/UART_2.c ****     }
 531              		.loc 1 661 0
 532 001c 1846     		mov	r0, r3
 533 001e 98BD     		pop	{r3, r4, r7, pc}
 534              		.cfi_endproc
 535              	.LFE10:
ARM GAS  C:\Users\Owner\AppData\Local\Temp\cczyEAfi.s 			page 22


 536              		.size	UART_2_GetByte, .-UART_2_GetByte
 537              		.section	.text.UART_2_GetRxBufferSize,"ax",%progbits
 538              		.align	2
 539              		.global	UART_2_GetRxBufferSize
 540              		.thumb
 541              		.thumb_func
 542              		.type	UART_2_GetRxBufferSize, %function
 543              	UART_2_GetRxBufferSize:
 544              	.LFB11:
 662:.\Generated_Source\PSoC5/UART_2.c **** 
 663:.\Generated_Source\PSoC5/UART_2.c **** 
 664:.\Generated_Source\PSoC5/UART_2.c ****     /*******************************************************************************
 665:.\Generated_Source\PSoC5/UART_2.c ****     * Function Name: UART_2_GetRxBufferSize
 666:.\Generated_Source\PSoC5/UART_2.c ****     ********************************************************************************
 667:.\Generated_Source\PSoC5/UART_2.c ****     *
 668:.\Generated_Source\PSoC5/UART_2.c ****     * Summary:
 669:.\Generated_Source\PSoC5/UART_2.c ****     *  Determine the amount of bytes left in the RX buffer and return the count in
 670:.\Generated_Source\PSoC5/UART_2.c ****     *  bytes
 671:.\Generated_Source\PSoC5/UART_2.c ****     *
 672:.\Generated_Source\PSoC5/UART_2.c ****     * Parameters:
 673:.\Generated_Source\PSoC5/UART_2.c ****     *  None.
 674:.\Generated_Source\PSoC5/UART_2.c ****     *
 675:.\Generated_Source\PSoC5/UART_2.c ****     * Return:
 676:.\Generated_Source\PSoC5/UART_2.c ****     *  uint8: Integer count of the number of bytes left
 677:.\Generated_Source\PSoC5/UART_2.c ****     *  in the RX buffer
 678:.\Generated_Source\PSoC5/UART_2.c ****     *
 679:.\Generated_Source\PSoC5/UART_2.c ****     * Global Variables:
 680:.\Generated_Source\PSoC5/UART_2.c ****     *  UART_2_rxBufferWrite - used to calculate left bytes.
 681:.\Generated_Source\PSoC5/UART_2.c ****     *  UART_2_rxBufferRead - used to calculate left bytes.
 682:.\Generated_Source\PSoC5/UART_2.c ****     *  UART_2_rxBufferLoopDetect - checked to decide left bytes amount.
 683:.\Generated_Source\PSoC5/UART_2.c ****     *
 684:.\Generated_Source\PSoC5/UART_2.c ****     * Reentrant:
 685:.\Generated_Source\PSoC5/UART_2.c ****     *  No.
 686:.\Generated_Source\PSoC5/UART_2.c ****     *
 687:.\Generated_Source\PSoC5/UART_2.c ****     * Theory:
 688:.\Generated_Source\PSoC5/UART_2.c ****     *  Allows the user to find out how full the RX Buffer is.
 689:.\Generated_Source\PSoC5/UART_2.c ****     *
 690:.\Generated_Source\PSoC5/UART_2.c ****     *******************************************************************************/
 691:.\Generated_Source\PSoC5/UART_2.c ****     uint8 UART_2_GetRxBufferSize(void)
 692:.\Generated_Source\PSoC5/UART_2.c ****                                                             
 693:.\Generated_Source\PSoC5/UART_2.c ****     {
 545              		.loc 1 693 0
 546              		.cfi_startproc
 547              		@ args = 0, pretend = 0, frame = 8
 548              		@ frame_needed = 1, uses_anonymous_args = 0
 549              		@ link register save eliminated.
 550 0000 80B4     		push	{r7}
 551              		.cfi_def_cfa_offset 4
 552              		.cfi_offset 7, -4
 553 0002 83B0     		sub	sp, sp, #12
 554              		.cfi_def_cfa_offset 16
 555 0004 00AF     		add	r7, sp, #0
 556              		.cfi_def_cfa_register 7
 694:.\Generated_Source\PSoC5/UART_2.c ****         uint8 size;
 695:.\Generated_Source\PSoC5/UART_2.c **** 
 696:.\Generated_Source\PSoC5/UART_2.c ****         #if(UART_2_RXBUFFERSIZE > UART_2_FIFO_LENGTH)
 697:.\Generated_Source\PSoC5/UART_2.c **** 
ARM GAS  C:\Users\Owner\AppData\Local\Temp\cczyEAfi.s 			page 23


 698:.\Generated_Source\PSoC5/UART_2.c ****             /* Disable Rx interrupt. */
 699:.\Generated_Source\PSoC5/UART_2.c ****             /* Protect variables that could change on interrupt. */
 700:.\Generated_Source\PSoC5/UART_2.c ****             #if(UART_2_RX_INTERRUPT_ENABLED)
 701:.\Generated_Source\PSoC5/UART_2.c ****                 UART_2_DisableRxInt();
 702:.\Generated_Source\PSoC5/UART_2.c ****             #endif /* UART_2_RX_INTERRUPT_ENABLED */
 703:.\Generated_Source\PSoC5/UART_2.c **** 
 704:.\Generated_Source\PSoC5/UART_2.c ****             if(UART_2_rxBufferRead == UART_2_rxBufferWrite)
 705:.\Generated_Source\PSoC5/UART_2.c ****             {
 706:.\Generated_Source\PSoC5/UART_2.c ****                 if(UART_2_rxBufferLoopDetect > 0u)
 707:.\Generated_Source\PSoC5/UART_2.c ****                 {
 708:.\Generated_Source\PSoC5/UART_2.c ****                     size = UART_2_RXBUFFERSIZE;
 709:.\Generated_Source\PSoC5/UART_2.c ****                 }
 710:.\Generated_Source\PSoC5/UART_2.c ****                 else
 711:.\Generated_Source\PSoC5/UART_2.c ****                 {
 712:.\Generated_Source\PSoC5/UART_2.c ****                     size = 0u;
 713:.\Generated_Source\PSoC5/UART_2.c ****                 }
 714:.\Generated_Source\PSoC5/UART_2.c ****             }
 715:.\Generated_Source\PSoC5/UART_2.c ****             else if(UART_2_rxBufferRead < UART_2_rxBufferWrite)
 716:.\Generated_Source\PSoC5/UART_2.c ****             {
 717:.\Generated_Source\PSoC5/UART_2.c ****                 size = (UART_2_rxBufferWrite - UART_2_rxBufferRead);
 718:.\Generated_Source\PSoC5/UART_2.c ****             }
 719:.\Generated_Source\PSoC5/UART_2.c ****             else
 720:.\Generated_Source\PSoC5/UART_2.c ****             {
 721:.\Generated_Source\PSoC5/UART_2.c ****                 size = (UART_2_RXBUFFERSIZE - UART_2_rxBufferRead) + UART_2_rxBufferWrite;
 722:.\Generated_Source\PSoC5/UART_2.c ****             }
 723:.\Generated_Source\PSoC5/UART_2.c **** 
 724:.\Generated_Source\PSoC5/UART_2.c ****             /* Enable Rx interrupt. */
 725:.\Generated_Source\PSoC5/UART_2.c ****             #if(UART_2_RX_INTERRUPT_ENABLED)
 726:.\Generated_Source\PSoC5/UART_2.c ****                 UART_2_EnableRxInt();
 727:.\Generated_Source\PSoC5/UART_2.c ****             #endif /* End UART_2_RX_INTERRUPT_ENABLED */
 728:.\Generated_Source\PSoC5/UART_2.c **** 
 729:.\Generated_Source\PSoC5/UART_2.c ****         #else /* UART_2_RXBUFFERSIZE > UART_2_FIFO_LENGTH */
 730:.\Generated_Source\PSoC5/UART_2.c **** 
 731:.\Generated_Source\PSoC5/UART_2.c ****             /* We can only know if there is data in the fifo. */
 732:.\Generated_Source\PSoC5/UART_2.c ****             size = ((UART_2_RXSTATUS_REG & UART_2_RX_STS_FIFO_NOTEMPTY) != 0u) ? 1u : 0u;
 557              		.loc 1 732 0
 558 0006 094B     		ldr	r3, .L39
 559 0008 1B78     		ldrb	r3, [r3]
 560 000a DBB2     		uxtb	r3, r3
 561 000c 03F02003 		and	r3, r3, #32
 562 0010 002B     		cmp	r3, #0
 563 0012 01D0     		beq	.L36
 564              		.loc 1 732 0 is_stmt 0 discriminator 1
 565 0014 0123     		movs	r3, #1
 566 0016 00E0     		b	.L37
 567              	.L36:
 568              		.loc 1 732 0 discriminator 2
 569 0018 0023     		movs	r3, #0
 570              	.L37:
 571              		.loc 1 732 0 discriminator 3
 572 001a FB71     		strb	r3, [r7, #7]
 733:.\Generated_Source\PSoC5/UART_2.c **** 
 734:.\Generated_Source\PSoC5/UART_2.c ****         #endif /* End UART_2_RXBUFFERSIZE > UART_2_FIFO_LENGTH */
 735:.\Generated_Source\PSoC5/UART_2.c **** 
 736:.\Generated_Source\PSoC5/UART_2.c ****         return(size);
 573              		.loc 1 736 0 is_stmt 1 discriminator 3
 574 001c FB79     		ldrb	r3, [r7, #7]	@ zero_extendqisi2
ARM GAS  C:\Users\Owner\AppData\Local\Temp\cczyEAfi.s 			page 24


 737:.\Generated_Source\PSoC5/UART_2.c ****     }
 575              		.loc 1 737 0 discriminator 3
 576 001e 1846     		mov	r0, r3
 577 0020 0C37     		adds	r7, r7, #12
 578 0022 BD46     		mov	sp, r7
 579              		@ sp needed
 580 0024 5DF8047B 		ldr	r7, [sp], #4
 581 0028 7047     		bx	lr
 582              	.L40:
 583 002a 00BF     		.align	2
 584              	.L39:
 585 002c 65640040 		.word	1073767525
 586              		.cfi_endproc
 587              	.LFE11:
 588              		.size	UART_2_GetRxBufferSize, .-UART_2_GetRxBufferSize
 589              		.section	.text.UART_2_ClearRxBuffer,"ax",%progbits
 590              		.align	2
 591              		.global	UART_2_ClearRxBuffer
 592              		.thumb
 593              		.thumb_func
 594              		.type	UART_2_ClearRxBuffer, %function
 595              	UART_2_ClearRxBuffer:
 596              	.LFB12:
 738:.\Generated_Source\PSoC5/UART_2.c **** 
 739:.\Generated_Source\PSoC5/UART_2.c **** 
 740:.\Generated_Source\PSoC5/UART_2.c ****     /*******************************************************************************
 741:.\Generated_Source\PSoC5/UART_2.c ****     * Function Name: UART_2_ClearRxBuffer
 742:.\Generated_Source\PSoC5/UART_2.c ****     ********************************************************************************
 743:.\Generated_Source\PSoC5/UART_2.c ****     *
 744:.\Generated_Source\PSoC5/UART_2.c ****     * Summary:
 745:.\Generated_Source\PSoC5/UART_2.c ****     *  Clears the RX RAM buffer by setting the read and write pointers both to zero.
 746:.\Generated_Source\PSoC5/UART_2.c ****     *  Clears hardware RX FIFO.
 747:.\Generated_Source\PSoC5/UART_2.c ****     *
 748:.\Generated_Source\PSoC5/UART_2.c ****     * Parameters:
 749:.\Generated_Source\PSoC5/UART_2.c ****     *  None.
 750:.\Generated_Source\PSoC5/UART_2.c ****     *
 751:.\Generated_Source\PSoC5/UART_2.c ****     * Return:
 752:.\Generated_Source\PSoC5/UART_2.c ****     *  None.
 753:.\Generated_Source\PSoC5/UART_2.c ****     *
 754:.\Generated_Source\PSoC5/UART_2.c ****     * Global Variables:
 755:.\Generated_Source\PSoC5/UART_2.c ****     *  UART_2_rxBufferWrite - cleared to zero.
 756:.\Generated_Source\PSoC5/UART_2.c ****     *  UART_2_rxBufferRead - cleared to zero.
 757:.\Generated_Source\PSoC5/UART_2.c ****     *  UART_2_rxBufferLoopDetect - cleared to zero.
 758:.\Generated_Source\PSoC5/UART_2.c ****     *  UART_2_rxBufferOverflow - cleared to zero.
 759:.\Generated_Source\PSoC5/UART_2.c ****     *
 760:.\Generated_Source\PSoC5/UART_2.c ****     * Reentrant:
 761:.\Generated_Source\PSoC5/UART_2.c ****     *  No.
 762:.\Generated_Source\PSoC5/UART_2.c ****     *
 763:.\Generated_Source\PSoC5/UART_2.c ****     * Theory:
 764:.\Generated_Source\PSoC5/UART_2.c ****     *  Setting the pointers to zero makes the system believe there is no data to
 765:.\Generated_Source\PSoC5/UART_2.c ****     *  read and writing will resume at address 0 overwriting any data that may
 766:.\Generated_Source\PSoC5/UART_2.c ****     *  have remained in the RAM.
 767:.\Generated_Source\PSoC5/UART_2.c ****     *
 768:.\Generated_Source\PSoC5/UART_2.c ****     * Side Effects:
 769:.\Generated_Source\PSoC5/UART_2.c ****     *  Any received data not read from the RAM or FIFO buffer will be lost.
 770:.\Generated_Source\PSoC5/UART_2.c ****     *******************************************************************************/
 771:.\Generated_Source\PSoC5/UART_2.c ****     void UART_2_ClearRxBuffer(void) 
ARM GAS  C:\Users\Owner\AppData\Local\Temp\cczyEAfi.s 			page 25


 772:.\Generated_Source\PSoC5/UART_2.c ****     {
 597              		.loc 1 772 0
 598              		.cfi_startproc
 599              		@ args = 0, pretend = 0, frame = 8
 600              		@ frame_needed = 1, uses_anonymous_args = 0
 601 0000 80B5     		push	{r7, lr}
 602              		.cfi_def_cfa_offset 8
 603              		.cfi_offset 7, -8
 604              		.cfi_offset 14, -4
 605 0002 82B0     		sub	sp, sp, #8
 606              		.cfi_def_cfa_offset 16
 607 0004 00AF     		add	r7, sp, #0
 608              		.cfi_def_cfa_register 7
 773:.\Generated_Source\PSoC5/UART_2.c ****         uint8 enableInterrupts;
 774:.\Generated_Source\PSoC5/UART_2.c **** 
 775:.\Generated_Source\PSoC5/UART_2.c ****         /* clear the HW FIFO */
 776:.\Generated_Source\PSoC5/UART_2.c ****         /* Enter critical section */
 777:.\Generated_Source\PSoC5/UART_2.c ****         enableInterrupts = CyEnterCriticalSection();
 609              		.loc 1 777 0
 610 0006 FFF7FEFF 		bl	CyEnterCriticalSection
 611 000a 0346     		mov	r3, r0
 612 000c FB71     		strb	r3, [r7, #7]
 778:.\Generated_Source\PSoC5/UART_2.c ****         UART_2_RXDATA_AUX_CTL_REG |=  UART_2_RX_FIFO_CLR;
 613              		.loc 1 778 0
 614 000e 0B4B     		ldr	r3, .L42
 615 0010 0A4A     		ldr	r2, .L42
 616 0012 1278     		ldrb	r2, [r2]
 617 0014 D2B2     		uxtb	r2, r2
 618 0016 42F00102 		orr	r2, r2, #1
 619 001a D2B2     		uxtb	r2, r2
 620 001c 1A70     		strb	r2, [r3]
 779:.\Generated_Source\PSoC5/UART_2.c ****         UART_2_RXDATA_AUX_CTL_REG &= (uint8)~UART_2_RX_FIFO_CLR;
 621              		.loc 1 779 0
 622 001e 074B     		ldr	r3, .L42
 623 0020 064A     		ldr	r2, .L42
 624 0022 1278     		ldrb	r2, [r2]
 625 0024 D2B2     		uxtb	r2, r2
 626 0026 22F00102 		bic	r2, r2, #1
 627 002a D2B2     		uxtb	r2, r2
 628 002c 1A70     		strb	r2, [r3]
 780:.\Generated_Source\PSoC5/UART_2.c ****         /* Exit critical section */
 781:.\Generated_Source\PSoC5/UART_2.c ****         CyExitCriticalSection(enableInterrupts);
 629              		.loc 1 781 0
 630 002e FB79     		ldrb	r3, [r7, #7]	@ zero_extendqisi2
 631 0030 1846     		mov	r0, r3
 632 0032 FFF7FEFF 		bl	CyExitCriticalSection
 782:.\Generated_Source\PSoC5/UART_2.c **** 
 783:.\Generated_Source\PSoC5/UART_2.c ****         #if(UART_2_RXBUFFERSIZE > UART_2_FIFO_LENGTH)
 784:.\Generated_Source\PSoC5/UART_2.c ****             /* Disable Rx interrupt. */
 785:.\Generated_Source\PSoC5/UART_2.c ****             /* Protect variables that could change on interrupt. */
 786:.\Generated_Source\PSoC5/UART_2.c ****             #if(UART_2_RX_INTERRUPT_ENABLED)
 787:.\Generated_Source\PSoC5/UART_2.c ****                 UART_2_DisableRxInt();
 788:.\Generated_Source\PSoC5/UART_2.c ****             #endif /* End UART_2_RX_INTERRUPT_ENABLED */
 789:.\Generated_Source\PSoC5/UART_2.c **** 
 790:.\Generated_Source\PSoC5/UART_2.c ****             UART_2_rxBufferRead = 0u;
 791:.\Generated_Source\PSoC5/UART_2.c ****             UART_2_rxBufferWrite = 0u;
 792:.\Generated_Source\PSoC5/UART_2.c ****             UART_2_rxBufferLoopDetect = 0u;
ARM GAS  C:\Users\Owner\AppData\Local\Temp\cczyEAfi.s 			page 26


 793:.\Generated_Source\PSoC5/UART_2.c ****             UART_2_rxBufferOverflow = 0u;
 794:.\Generated_Source\PSoC5/UART_2.c **** 
 795:.\Generated_Source\PSoC5/UART_2.c ****             /* Enable Rx interrupt. */
 796:.\Generated_Source\PSoC5/UART_2.c ****             #if(UART_2_RX_INTERRUPT_ENABLED)
 797:.\Generated_Source\PSoC5/UART_2.c ****                 UART_2_EnableRxInt();
 798:.\Generated_Source\PSoC5/UART_2.c ****             #endif /* End UART_2_RX_INTERRUPT_ENABLED */
 799:.\Generated_Source\PSoC5/UART_2.c ****         #endif /* End UART_2_RXBUFFERSIZE > UART_2_FIFO_LENGTH */
 800:.\Generated_Source\PSoC5/UART_2.c **** 
 801:.\Generated_Source\PSoC5/UART_2.c ****     }
 633              		.loc 1 801 0
 634 0036 0837     		adds	r7, r7, #8
 635 0038 BD46     		mov	sp, r7
 636              		@ sp needed
 637 003a 80BD     		pop	{r7, pc}
 638              	.L43:
 639              		.align	2
 640              	.L42:
 641 003c 94640040 		.word	1073767572
 642              		.cfi_endproc
 643              	.LFE12:
 644              		.size	UART_2_ClearRxBuffer, .-UART_2_ClearRxBuffer
 645              		.section	.text.UART_2_SetRxAddressMode,"ax",%progbits
 646              		.align	2
 647              		.global	UART_2_SetRxAddressMode
 648              		.thumb
 649              		.thumb_func
 650              		.type	UART_2_SetRxAddressMode, %function
 651              	UART_2_SetRxAddressMode:
 652              	.LFB13:
 802:.\Generated_Source\PSoC5/UART_2.c **** 
 803:.\Generated_Source\PSoC5/UART_2.c **** 
 804:.\Generated_Source\PSoC5/UART_2.c ****     /*******************************************************************************
 805:.\Generated_Source\PSoC5/UART_2.c ****     * Function Name: UART_2_SetRxAddressMode
 806:.\Generated_Source\PSoC5/UART_2.c ****     ********************************************************************************
 807:.\Generated_Source\PSoC5/UART_2.c ****     *
 808:.\Generated_Source\PSoC5/UART_2.c ****     * Summary:
 809:.\Generated_Source\PSoC5/UART_2.c ****     *  Set the receive addressing mode
 810:.\Generated_Source\PSoC5/UART_2.c ****     *
 811:.\Generated_Source\PSoC5/UART_2.c ****     * Parameters:
 812:.\Generated_Source\PSoC5/UART_2.c ****     *  addressMode: Enumerated value indicating the mode of RX addressing
 813:.\Generated_Source\PSoC5/UART_2.c ****     *  UART_2__B_UART__AM_SW_BYTE_BYTE -  Software Byte-by-Byte address
 814:.\Generated_Source\PSoC5/UART_2.c ****     *                                               detection
 815:.\Generated_Source\PSoC5/UART_2.c ****     *  UART_2__B_UART__AM_SW_DETECT_TO_BUFFER - Software Detect to Buffer
 816:.\Generated_Source\PSoC5/UART_2.c ****     *                                               address detection
 817:.\Generated_Source\PSoC5/UART_2.c ****     *  UART_2__B_UART__AM_HW_BYTE_BY_BYTE - Hardware Byte-by-Byte address
 818:.\Generated_Source\PSoC5/UART_2.c ****     *                                               detection
 819:.\Generated_Source\PSoC5/UART_2.c ****     *  UART_2__B_UART__AM_HW_DETECT_TO_BUFFER - Hardware Detect to Buffer
 820:.\Generated_Source\PSoC5/UART_2.c ****     *                                               address detection
 821:.\Generated_Source\PSoC5/UART_2.c ****     *  UART_2__B_UART__AM_NONE - No address detection
 822:.\Generated_Source\PSoC5/UART_2.c ****     *
 823:.\Generated_Source\PSoC5/UART_2.c ****     * Return:
 824:.\Generated_Source\PSoC5/UART_2.c ****     *  None.
 825:.\Generated_Source\PSoC5/UART_2.c ****     *
 826:.\Generated_Source\PSoC5/UART_2.c ****     * Global Variables:
 827:.\Generated_Source\PSoC5/UART_2.c ****     *  UART_2_rxAddressMode - the parameter stored in this variable for
 828:.\Generated_Source\PSoC5/UART_2.c ****     *   the farther usage in RX ISR.
 829:.\Generated_Source\PSoC5/UART_2.c ****     *  UART_2_rxAddressDetected - set to initial state (0).
ARM GAS  C:\Users\Owner\AppData\Local\Temp\cczyEAfi.s 			page 27


 830:.\Generated_Source\PSoC5/UART_2.c ****     *
 831:.\Generated_Source\PSoC5/UART_2.c ****     *******************************************************************************/
 832:.\Generated_Source\PSoC5/UART_2.c ****     void UART_2_SetRxAddressMode(uint8 addressMode)
 833:.\Generated_Source\PSoC5/UART_2.c ****                                                         
 834:.\Generated_Source\PSoC5/UART_2.c ****     {
 653              		.loc 1 834 0
 654              		.cfi_startproc
 655              		@ args = 0, pretend = 0, frame = 8
 656              		@ frame_needed = 1, uses_anonymous_args = 0
 657              		@ link register save eliminated.
 658 0000 80B4     		push	{r7}
 659              		.cfi_def_cfa_offset 4
 660              		.cfi_offset 7, -4
 661 0002 83B0     		sub	sp, sp, #12
 662              		.cfi_def_cfa_offset 16
 663 0004 00AF     		add	r7, sp, #0
 664              		.cfi_def_cfa_register 7
 665 0006 0346     		mov	r3, r0
 666 0008 FB71     		strb	r3, [r7, #7]
 835:.\Generated_Source\PSoC5/UART_2.c ****         #if(UART_2_RXHW_ADDRESS_ENABLED)
 836:.\Generated_Source\PSoC5/UART_2.c ****             #if(UART_2_CONTROL_REG_REMOVED)
 837:.\Generated_Source\PSoC5/UART_2.c ****                 if(addressMode != 0u) { }     /* release compiler warning */
 838:.\Generated_Source\PSoC5/UART_2.c ****             #else /* UART_2_CONTROL_REG_REMOVED */
 839:.\Generated_Source\PSoC5/UART_2.c ****                 uint8 tmpCtrl;
 840:.\Generated_Source\PSoC5/UART_2.c ****                 tmpCtrl = UART_2_CONTROL_REG & (uint8)~UART_2_CTRL_RXADDR_MODE_MASK;
 841:.\Generated_Source\PSoC5/UART_2.c ****                 tmpCtrl |= (uint8)(addressMode << UART_2_CTRL_RXADDR_MODE0_SHIFT);
 842:.\Generated_Source\PSoC5/UART_2.c ****                 UART_2_CONTROL_REG = tmpCtrl;
 843:.\Generated_Source\PSoC5/UART_2.c ****                 #if(UART_2_RX_INTERRUPT_ENABLED && \
 844:.\Generated_Source\PSoC5/UART_2.c ****                    (UART_2_RXBUFFERSIZE > UART_2_FIFO_LENGTH) )
 845:.\Generated_Source\PSoC5/UART_2.c ****                     UART_2_rxAddressMode = addressMode;
 846:.\Generated_Source\PSoC5/UART_2.c ****                     UART_2_rxAddressDetected = 0u;
 847:.\Generated_Source\PSoC5/UART_2.c ****                 #endif /* End UART_2_RXBUFFERSIZE > UART_2_FIFO_LENGTH*/
 848:.\Generated_Source\PSoC5/UART_2.c ****             #endif /* End UART_2_CONTROL_REG_REMOVED */
 849:.\Generated_Source\PSoC5/UART_2.c ****         #else /* UART_2_RXHW_ADDRESS_ENABLED */
 850:.\Generated_Source\PSoC5/UART_2.c ****             if(addressMode != 0u) { }     /* release compiler warning */
 851:.\Generated_Source\PSoC5/UART_2.c ****         #endif /* End UART_2_RXHW_ADDRESS_ENABLED */
 852:.\Generated_Source\PSoC5/UART_2.c ****     }
 667              		.loc 1 852 0
 668 000a 0C37     		adds	r7, r7, #12
 669 000c BD46     		mov	sp, r7
 670              		@ sp needed
 671 000e 5DF8047B 		ldr	r7, [sp], #4
 672 0012 7047     		bx	lr
 673              		.cfi_endproc
 674              	.LFE13:
 675              		.size	UART_2_SetRxAddressMode, .-UART_2_SetRxAddressMode
 676              		.section	.text.UART_2_SetRxAddress1,"ax",%progbits
 677              		.align	2
 678              		.global	UART_2_SetRxAddress1
 679              		.thumb
 680              		.thumb_func
 681              		.type	UART_2_SetRxAddress1, %function
 682              	UART_2_SetRxAddress1:
 683              	.LFB14:
 853:.\Generated_Source\PSoC5/UART_2.c **** 
 854:.\Generated_Source\PSoC5/UART_2.c **** 
 855:.\Generated_Source\PSoC5/UART_2.c ****     /*******************************************************************************
ARM GAS  C:\Users\Owner\AppData\Local\Temp\cczyEAfi.s 			page 28


 856:.\Generated_Source\PSoC5/UART_2.c ****     * Function Name: UART_2_SetRxAddress1
 857:.\Generated_Source\PSoC5/UART_2.c ****     ********************************************************************************
 858:.\Generated_Source\PSoC5/UART_2.c ****     *
 859:.\Generated_Source\PSoC5/UART_2.c ****     * Summary:
 860:.\Generated_Source\PSoC5/UART_2.c ****     *  Set the first hardware address compare value
 861:.\Generated_Source\PSoC5/UART_2.c ****     *
 862:.\Generated_Source\PSoC5/UART_2.c ****     * Parameters:
 863:.\Generated_Source\PSoC5/UART_2.c ****     *  address
 864:.\Generated_Source\PSoC5/UART_2.c ****     *
 865:.\Generated_Source\PSoC5/UART_2.c ****     * Return:
 866:.\Generated_Source\PSoC5/UART_2.c ****     *  None.
 867:.\Generated_Source\PSoC5/UART_2.c ****     *
 868:.\Generated_Source\PSoC5/UART_2.c ****     *******************************************************************************/
 869:.\Generated_Source\PSoC5/UART_2.c ****     void UART_2_SetRxAddress1(uint8 address) 
 870:.\Generated_Source\PSoC5/UART_2.c **** 
 871:.\Generated_Source\PSoC5/UART_2.c ****     {
 684              		.loc 1 871 0
 685              		.cfi_startproc
 686              		@ args = 0, pretend = 0, frame = 8
 687              		@ frame_needed = 1, uses_anonymous_args = 0
 688              		@ link register save eliminated.
 689 0000 80B4     		push	{r7}
 690              		.cfi_def_cfa_offset 4
 691              		.cfi_offset 7, -4
 692 0002 83B0     		sub	sp, sp, #12
 693              		.cfi_def_cfa_offset 16
 694 0004 00AF     		add	r7, sp, #0
 695              		.cfi_def_cfa_register 7
 696 0006 0346     		mov	r3, r0
 697 0008 FB71     		strb	r3, [r7, #7]
 872:.\Generated_Source\PSoC5/UART_2.c ****         UART_2_RXADDRESS1_REG = address;
 698              		.loc 1 872 0
 699 000a 044B     		ldr	r3, .L46
 700 000c FA79     		ldrb	r2, [r7, #7]
 701 000e 1A70     		strb	r2, [r3]
 873:.\Generated_Source\PSoC5/UART_2.c ****     }
 702              		.loc 1 873 0
 703 0010 0C37     		adds	r7, r7, #12
 704 0012 BD46     		mov	sp, r7
 705              		@ sp needed
 706 0014 5DF8047B 		ldr	r7, [sp], #4
 707 0018 7047     		bx	lr
 708              	.L47:
 709 001a 00BF     		.align	2
 710              	.L46:
 711 001c 24640040 		.word	1073767460
 712              		.cfi_endproc
 713              	.LFE14:
 714              		.size	UART_2_SetRxAddress1, .-UART_2_SetRxAddress1
 715              		.section	.text.UART_2_SetRxAddress2,"ax",%progbits
 716              		.align	2
 717              		.global	UART_2_SetRxAddress2
 718              		.thumb
 719              		.thumb_func
 720              		.type	UART_2_SetRxAddress2, %function
 721              	UART_2_SetRxAddress2:
 722              	.LFB15:
ARM GAS  C:\Users\Owner\AppData\Local\Temp\cczyEAfi.s 			page 29


 874:.\Generated_Source\PSoC5/UART_2.c **** 
 875:.\Generated_Source\PSoC5/UART_2.c **** 
 876:.\Generated_Source\PSoC5/UART_2.c ****     /*******************************************************************************
 877:.\Generated_Source\PSoC5/UART_2.c ****     * Function Name: UART_2_SetRxAddress2
 878:.\Generated_Source\PSoC5/UART_2.c ****     ********************************************************************************
 879:.\Generated_Source\PSoC5/UART_2.c ****     *
 880:.\Generated_Source\PSoC5/UART_2.c ****     * Summary:
 881:.\Generated_Source\PSoC5/UART_2.c ****     *  Set the second hardware address compare value
 882:.\Generated_Source\PSoC5/UART_2.c ****     *
 883:.\Generated_Source\PSoC5/UART_2.c ****     * Parameters:
 884:.\Generated_Source\PSoC5/UART_2.c ****     *  address
 885:.\Generated_Source\PSoC5/UART_2.c ****     *
 886:.\Generated_Source\PSoC5/UART_2.c ****     * Return:
 887:.\Generated_Source\PSoC5/UART_2.c ****     *  None.
 888:.\Generated_Source\PSoC5/UART_2.c ****     *
 889:.\Generated_Source\PSoC5/UART_2.c ****     *******************************************************************************/
 890:.\Generated_Source\PSoC5/UART_2.c ****     void UART_2_SetRxAddress2(uint8 address) 
 891:.\Generated_Source\PSoC5/UART_2.c ****     {
 723              		.loc 1 891 0
 724              		.cfi_startproc
 725              		@ args = 0, pretend = 0, frame = 8
 726              		@ frame_needed = 1, uses_anonymous_args = 0
 727              		@ link register save eliminated.
 728 0000 80B4     		push	{r7}
 729              		.cfi_def_cfa_offset 4
 730              		.cfi_offset 7, -4
 731 0002 83B0     		sub	sp, sp, #12
 732              		.cfi_def_cfa_offset 16
 733 0004 00AF     		add	r7, sp, #0
 734              		.cfi_def_cfa_register 7
 735 0006 0346     		mov	r3, r0
 736 0008 FB71     		strb	r3, [r7, #7]
 892:.\Generated_Source\PSoC5/UART_2.c ****         UART_2_RXADDRESS2_REG = address;
 737              		.loc 1 892 0
 738 000a 044B     		ldr	r3, .L49
 739 000c FA79     		ldrb	r2, [r7, #7]
 740 000e 1A70     		strb	r2, [r3]
 893:.\Generated_Source\PSoC5/UART_2.c ****     }
 741              		.loc 1 893 0
 742 0010 0C37     		adds	r7, r7, #12
 743 0012 BD46     		mov	sp, r7
 744              		@ sp needed
 745 0014 5DF8047B 		ldr	r7, [sp], #4
 746 0018 7047     		bx	lr
 747              	.L50:
 748 001a 00BF     		.align	2
 749              	.L49:
 750 001c 34640040 		.word	1073767476
 751              		.cfi_endproc
 752              	.LFE15:
 753              		.size	UART_2_SetRxAddress2, .-UART_2_SetRxAddress2
 754              		.section	.text.UART_2_SetTxInterruptMode,"ax",%progbits
 755              		.align	2
 756              		.global	UART_2_SetTxInterruptMode
 757              		.thumb
 758              		.thumb_func
 759              		.type	UART_2_SetTxInterruptMode, %function
ARM GAS  C:\Users\Owner\AppData\Local\Temp\cczyEAfi.s 			page 30


 760              	UART_2_SetTxInterruptMode:
 761              	.LFB16:
 894:.\Generated_Source\PSoC5/UART_2.c **** 
 895:.\Generated_Source\PSoC5/UART_2.c **** #endif  /* UART_2_RX_ENABLED || UART_2_HD_ENABLED*/
 896:.\Generated_Source\PSoC5/UART_2.c **** 
 897:.\Generated_Source\PSoC5/UART_2.c **** 
 898:.\Generated_Source\PSoC5/UART_2.c **** #if( (UART_2_TX_ENABLED) || (UART_2_HD_ENABLED) )
 899:.\Generated_Source\PSoC5/UART_2.c **** 
 900:.\Generated_Source\PSoC5/UART_2.c ****     #if(UART_2_TX_INTERRUPT_ENABLED)
 901:.\Generated_Source\PSoC5/UART_2.c **** 
 902:.\Generated_Source\PSoC5/UART_2.c ****         /*******************************************************************************
 903:.\Generated_Source\PSoC5/UART_2.c ****         * Function Name: UART_2_EnableTxInt
 904:.\Generated_Source\PSoC5/UART_2.c ****         ********************************************************************************
 905:.\Generated_Source\PSoC5/UART_2.c ****         *
 906:.\Generated_Source\PSoC5/UART_2.c ****         * Summary:
 907:.\Generated_Source\PSoC5/UART_2.c ****         *  Enable TX interrupt generation
 908:.\Generated_Source\PSoC5/UART_2.c ****         *
 909:.\Generated_Source\PSoC5/UART_2.c ****         * Parameters:
 910:.\Generated_Source\PSoC5/UART_2.c ****         *  None.
 911:.\Generated_Source\PSoC5/UART_2.c ****         *
 912:.\Generated_Source\PSoC5/UART_2.c ****         * Return:
 913:.\Generated_Source\PSoC5/UART_2.c ****         *  None.
 914:.\Generated_Source\PSoC5/UART_2.c ****         *
 915:.\Generated_Source\PSoC5/UART_2.c ****         * Theory:
 916:.\Generated_Source\PSoC5/UART_2.c ****         *  Enable the interrupt output -or- the interrupt component itself
 917:.\Generated_Source\PSoC5/UART_2.c ****         *
 918:.\Generated_Source\PSoC5/UART_2.c ****         *******************************************************************************/
 919:.\Generated_Source\PSoC5/UART_2.c ****         void UART_2_EnableTxInt(void) 
 920:.\Generated_Source\PSoC5/UART_2.c ****         {
 921:.\Generated_Source\PSoC5/UART_2.c ****             CyIntEnable(UART_2_TX_VECT_NUM);
 922:.\Generated_Source\PSoC5/UART_2.c ****         }
 923:.\Generated_Source\PSoC5/UART_2.c **** 
 924:.\Generated_Source\PSoC5/UART_2.c **** 
 925:.\Generated_Source\PSoC5/UART_2.c ****         /*******************************************************************************
 926:.\Generated_Source\PSoC5/UART_2.c ****         * Function Name: UART_2_DisableTxInt
 927:.\Generated_Source\PSoC5/UART_2.c ****         ********************************************************************************
 928:.\Generated_Source\PSoC5/UART_2.c ****         *
 929:.\Generated_Source\PSoC5/UART_2.c ****         * Summary:
 930:.\Generated_Source\PSoC5/UART_2.c ****         *  Disable TX interrupt generation
 931:.\Generated_Source\PSoC5/UART_2.c ****         *
 932:.\Generated_Source\PSoC5/UART_2.c ****         * Parameters:
 933:.\Generated_Source\PSoC5/UART_2.c ****         *  None.
 934:.\Generated_Source\PSoC5/UART_2.c ****         *
 935:.\Generated_Source\PSoC5/UART_2.c ****         * Return:
 936:.\Generated_Source\PSoC5/UART_2.c ****         *  None.
 937:.\Generated_Source\PSoC5/UART_2.c ****         *
 938:.\Generated_Source\PSoC5/UART_2.c ****         * Theory:
 939:.\Generated_Source\PSoC5/UART_2.c ****         *  Disable the interrupt output -or- the interrupt component itself
 940:.\Generated_Source\PSoC5/UART_2.c ****         *
 941:.\Generated_Source\PSoC5/UART_2.c ****         *******************************************************************************/
 942:.\Generated_Source\PSoC5/UART_2.c ****         void UART_2_DisableTxInt(void) 
 943:.\Generated_Source\PSoC5/UART_2.c ****         {
 944:.\Generated_Source\PSoC5/UART_2.c ****             CyIntDisable(UART_2_TX_VECT_NUM);
 945:.\Generated_Source\PSoC5/UART_2.c ****         }
 946:.\Generated_Source\PSoC5/UART_2.c **** 
 947:.\Generated_Source\PSoC5/UART_2.c ****     #endif /* UART_2_TX_INTERRUPT_ENABLED */
 948:.\Generated_Source\PSoC5/UART_2.c **** 
ARM GAS  C:\Users\Owner\AppData\Local\Temp\cczyEAfi.s 			page 31


 949:.\Generated_Source\PSoC5/UART_2.c **** 
 950:.\Generated_Source\PSoC5/UART_2.c ****     /*******************************************************************************
 951:.\Generated_Source\PSoC5/UART_2.c ****     * Function Name: UART_2_SetTxInterruptMode
 952:.\Generated_Source\PSoC5/UART_2.c ****     ********************************************************************************
 953:.\Generated_Source\PSoC5/UART_2.c ****     *
 954:.\Generated_Source\PSoC5/UART_2.c ****     * Summary:
 955:.\Generated_Source\PSoC5/UART_2.c ****     *  Configure which status bits trigger an interrupt event
 956:.\Generated_Source\PSoC5/UART_2.c ****     *
 957:.\Generated_Source\PSoC5/UART_2.c ****     * Parameters:
 958:.\Generated_Source\PSoC5/UART_2.c ****     *  intSrc: An or'd combination of the desired status bit masks (defined in
 959:.\Generated_Source\PSoC5/UART_2.c ****     *          the header file)
 960:.\Generated_Source\PSoC5/UART_2.c ****     *
 961:.\Generated_Source\PSoC5/UART_2.c ****     * Return:
 962:.\Generated_Source\PSoC5/UART_2.c ****     *  None.
 963:.\Generated_Source\PSoC5/UART_2.c ****     *
 964:.\Generated_Source\PSoC5/UART_2.c ****     * Theory:
 965:.\Generated_Source\PSoC5/UART_2.c ****     *  Enables the output of specific status bits to the interrupt controller
 966:.\Generated_Source\PSoC5/UART_2.c ****     *
 967:.\Generated_Source\PSoC5/UART_2.c ****     *******************************************************************************/
 968:.\Generated_Source\PSoC5/UART_2.c ****     void UART_2_SetTxInterruptMode(uint8 intSrc) 
 969:.\Generated_Source\PSoC5/UART_2.c ****     {
 762              		.loc 1 969 0
 763              		.cfi_startproc
 764              		@ args = 0, pretend = 0, frame = 8
 765              		@ frame_needed = 1, uses_anonymous_args = 0
 766              		@ link register save eliminated.
 767 0000 80B4     		push	{r7}
 768              		.cfi_def_cfa_offset 4
 769              		.cfi_offset 7, -4
 770 0002 83B0     		sub	sp, sp, #12
 771              		.cfi_def_cfa_offset 16
 772 0004 00AF     		add	r7, sp, #0
 773              		.cfi_def_cfa_register 7
 774 0006 0346     		mov	r3, r0
 775 0008 FB71     		strb	r3, [r7, #7]
 970:.\Generated_Source\PSoC5/UART_2.c ****         UART_2_TXSTATUS_MASK_REG = intSrc;
 776              		.loc 1 970 0
 777 000a 044B     		ldr	r3, .L52
 778 000c FA79     		ldrb	r2, [r7, #7]
 779 000e 1A70     		strb	r2, [r3]
 971:.\Generated_Source\PSoC5/UART_2.c ****     }
 780              		.loc 1 971 0
 781 0010 0C37     		adds	r7, r7, #12
 782 0012 BD46     		mov	sp, r7
 783              		@ sp needed
 784 0014 5DF8047B 		ldr	r7, [sp], #4
 785 0018 7047     		bx	lr
 786              	.L53:
 787 001a 00BF     		.align	2
 788              	.L52:
 789 001c 87650040 		.word	1073767815
 790              		.cfi_endproc
 791              	.LFE16:
 792              		.size	UART_2_SetTxInterruptMode, .-UART_2_SetTxInterruptMode
 793              		.section	.text.UART_2_WriteTxData,"ax",%progbits
 794              		.align	2
 795              		.global	UART_2_WriteTxData
ARM GAS  C:\Users\Owner\AppData\Local\Temp\cczyEAfi.s 			page 32


 796              		.thumb
 797              		.thumb_func
 798              		.type	UART_2_WriteTxData, %function
 799              	UART_2_WriteTxData:
 800              	.LFB17:
 972:.\Generated_Source\PSoC5/UART_2.c **** 
 973:.\Generated_Source\PSoC5/UART_2.c **** 
 974:.\Generated_Source\PSoC5/UART_2.c ****     /*******************************************************************************
 975:.\Generated_Source\PSoC5/UART_2.c ****     * Function Name: UART_2_WriteTxData
 976:.\Generated_Source\PSoC5/UART_2.c ****     ********************************************************************************
 977:.\Generated_Source\PSoC5/UART_2.c ****     *
 978:.\Generated_Source\PSoC5/UART_2.c ****     * Summary:
 979:.\Generated_Source\PSoC5/UART_2.c ****     *  Write a byte of data to the Transmit FIFO or TX buffer to be sent when the
 980:.\Generated_Source\PSoC5/UART_2.c ****     *  bus is available. WriteTxData sends a byte without checking for buffer room
 981:.\Generated_Source\PSoC5/UART_2.c ****     *  or status. It is up to the user to separately check status.
 982:.\Generated_Source\PSoC5/UART_2.c ****     *
 983:.\Generated_Source\PSoC5/UART_2.c ****     * Parameters:
 984:.\Generated_Source\PSoC5/UART_2.c ****     *  TXDataByte: byte of data to place in the transmit FIFO
 985:.\Generated_Source\PSoC5/UART_2.c ****     *
 986:.\Generated_Source\PSoC5/UART_2.c ****     * Return:
 987:.\Generated_Source\PSoC5/UART_2.c ****     * void
 988:.\Generated_Source\PSoC5/UART_2.c ****     *
 989:.\Generated_Source\PSoC5/UART_2.c ****     * Global Variables:
 990:.\Generated_Source\PSoC5/UART_2.c ****     *  UART_2_txBuffer - RAM buffer pointer for save data for transmission
 991:.\Generated_Source\PSoC5/UART_2.c ****     *  UART_2_txBufferWrite - cyclic index for write to txBuffer,
 992:.\Generated_Source\PSoC5/UART_2.c ****     *    incremented after each byte saved to buffer.
 993:.\Generated_Source\PSoC5/UART_2.c ****     *  UART_2_txBufferRead - cyclic index for read from txBuffer,
 994:.\Generated_Source\PSoC5/UART_2.c ****     *    checked to identify the condition to write to FIFO directly or to TX buffer
 995:.\Generated_Source\PSoC5/UART_2.c ****     *  UART_2_initVar - checked to identify that the component has been
 996:.\Generated_Source\PSoC5/UART_2.c ****     *    initialized.
 997:.\Generated_Source\PSoC5/UART_2.c ****     *
 998:.\Generated_Source\PSoC5/UART_2.c ****     * Reentrant:
 999:.\Generated_Source\PSoC5/UART_2.c ****     *  No.
1000:.\Generated_Source\PSoC5/UART_2.c ****     *
1001:.\Generated_Source\PSoC5/UART_2.c ****     *******************************************************************************/
1002:.\Generated_Source\PSoC5/UART_2.c ****     void UART_2_WriteTxData(uint8 txDataByte) 
1003:.\Generated_Source\PSoC5/UART_2.c ****     {
 801              		.loc 1 1003 0
 802              		.cfi_startproc
 803              		@ args = 0, pretend = 0, frame = 8
 804              		@ frame_needed = 1, uses_anonymous_args = 0
 805              		@ link register save eliminated.
 806 0000 80B4     		push	{r7}
 807              		.cfi_def_cfa_offset 4
 808              		.cfi_offset 7, -4
 809 0002 83B0     		sub	sp, sp, #12
 810              		.cfi_def_cfa_offset 16
 811 0004 00AF     		add	r7, sp, #0
 812              		.cfi_def_cfa_register 7
 813 0006 0346     		mov	r3, r0
 814 0008 FB71     		strb	r3, [r7, #7]
1004:.\Generated_Source\PSoC5/UART_2.c ****         /* If not Initialized then skip this function*/
1005:.\Generated_Source\PSoC5/UART_2.c ****         if(UART_2_initVar != 0u)
 815              		.loc 1 1005 0
 816 000a 064B     		ldr	r3, .L56
 817 000c 1B78     		ldrb	r3, [r3]	@ zero_extendqisi2
 818 000e 002B     		cmp	r3, #0
ARM GAS  C:\Users\Owner\AppData\Local\Temp\cczyEAfi.s 			page 33


 819 0010 02D0     		beq	.L54
1006:.\Generated_Source\PSoC5/UART_2.c ****         {
1007:.\Generated_Source\PSoC5/UART_2.c ****             #if(UART_2_TXBUFFERSIZE > UART_2_FIFO_LENGTH)
1008:.\Generated_Source\PSoC5/UART_2.c **** 
1009:.\Generated_Source\PSoC5/UART_2.c ****                 /* Disable Tx interrupt. */
1010:.\Generated_Source\PSoC5/UART_2.c ****                 /* Protect variables that could change on interrupt. */
1011:.\Generated_Source\PSoC5/UART_2.c ****                 #if(UART_2_TX_INTERRUPT_ENABLED)
1012:.\Generated_Source\PSoC5/UART_2.c ****                     UART_2_DisableTxInt();
1013:.\Generated_Source\PSoC5/UART_2.c ****                 #endif /* End UART_2_TX_INTERRUPT_ENABLED */
1014:.\Generated_Source\PSoC5/UART_2.c **** 
1015:.\Generated_Source\PSoC5/UART_2.c ****                 if( (UART_2_txBufferRead == UART_2_txBufferWrite) &&
1016:.\Generated_Source\PSoC5/UART_2.c ****                     ((UART_2_TXSTATUS_REG & UART_2_TX_STS_FIFO_FULL) == 0u) )
1017:.\Generated_Source\PSoC5/UART_2.c ****                 {
1018:.\Generated_Source\PSoC5/UART_2.c ****                     /* Add directly to the FIFO. */
1019:.\Generated_Source\PSoC5/UART_2.c ****                     UART_2_TXDATA_REG = txDataByte;
1020:.\Generated_Source\PSoC5/UART_2.c ****                 }
1021:.\Generated_Source\PSoC5/UART_2.c ****                 else
1022:.\Generated_Source\PSoC5/UART_2.c ****                 {
1023:.\Generated_Source\PSoC5/UART_2.c ****                     if(UART_2_txBufferWrite >= UART_2_TXBUFFERSIZE)
1024:.\Generated_Source\PSoC5/UART_2.c ****                     {
1025:.\Generated_Source\PSoC5/UART_2.c ****                         UART_2_txBufferWrite = 0u;
1026:.\Generated_Source\PSoC5/UART_2.c ****                     }
1027:.\Generated_Source\PSoC5/UART_2.c **** 
1028:.\Generated_Source\PSoC5/UART_2.c ****                     UART_2_txBuffer[UART_2_txBufferWrite] = txDataByte;
1029:.\Generated_Source\PSoC5/UART_2.c **** 
1030:.\Generated_Source\PSoC5/UART_2.c ****                     /* Add to the software buffer. */
1031:.\Generated_Source\PSoC5/UART_2.c ****                     UART_2_txBufferWrite++;
1032:.\Generated_Source\PSoC5/UART_2.c **** 
1033:.\Generated_Source\PSoC5/UART_2.c ****                 }
1034:.\Generated_Source\PSoC5/UART_2.c **** 
1035:.\Generated_Source\PSoC5/UART_2.c ****                 /* Enable Tx interrupt. */
1036:.\Generated_Source\PSoC5/UART_2.c ****                 #if(UART_2_TX_INTERRUPT_ENABLED)
1037:.\Generated_Source\PSoC5/UART_2.c ****                     UART_2_EnableTxInt();
1038:.\Generated_Source\PSoC5/UART_2.c ****                 #endif /* End UART_2_TX_INTERRUPT_ENABLED */
1039:.\Generated_Source\PSoC5/UART_2.c **** 
1040:.\Generated_Source\PSoC5/UART_2.c ****             #else /* UART_2_TXBUFFERSIZE > UART_2_FIFO_LENGTH */
1041:.\Generated_Source\PSoC5/UART_2.c **** 
1042:.\Generated_Source\PSoC5/UART_2.c ****                 /* Add directly to the FIFO. */
1043:.\Generated_Source\PSoC5/UART_2.c ****                 UART_2_TXDATA_REG = txDataByte;
 820              		.loc 1 1043 0
 821 0012 054B     		ldr	r3, .L56+4
 822 0014 FA79     		ldrb	r2, [r7, #7]
 823 0016 1A70     		strb	r2, [r3]
 824              	.L54:
1044:.\Generated_Source\PSoC5/UART_2.c **** 
1045:.\Generated_Source\PSoC5/UART_2.c ****             #endif /* End UART_2_TXBUFFERSIZE > UART_2_FIFO_LENGTH */
1046:.\Generated_Source\PSoC5/UART_2.c ****         }
1047:.\Generated_Source\PSoC5/UART_2.c ****     }
 825              		.loc 1 1047 0
 826 0018 0C37     		adds	r7, r7, #12
 827 001a BD46     		mov	sp, r7
 828              		@ sp needed
 829 001c 5DF8047B 		ldr	r7, [sp], #4
 830 0020 7047     		bx	lr
 831              	.L57:
 832 0022 00BF     		.align	2
 833              	.L56:
ARM GAS  C:\Users\Owner\AppData\Local\Temp\cczyEAfi.s 			page 34


 834 0024 00000000 		.word	UART_2_initVar
 835 0028 47650040 		.word	1073767751
 836              		.cfi_endproc
 837              	.LFE17:
 838              		.size	UART_2_WriteTxData, .-UART_2_WriteTxData
 839              		.section	.text.UART_2_ReadTxStatus,"ax",%progbits
 840              		.align	2
 841              		.global	UART_2_ReadTxStatus
 842              		.thumb
 843              		.thumb_func
 844              		.type	UART_2_ReadTxStatus, %function
 845              	UART_2_ReadTxStatus:
 846              	.LFB18:
1048:.\Generated_Source\PSoC5/UART_2.c **** 
1049:.\Generated_Source\PSoC5/UART_2.c **** 
1050:.\Generated_Source\PSoC5/UART_2.c ****     /*******************************************************************************
1051:.\Generated_Source\PSoC5/UART_2.c ****     * Function Name: UART_2_ReadTxStatus
1052:.\Generated_Source\PSoC5/UART_2.c ****     ********************************************************************************
1053:.\Generated_Source\PSoC5/UART_2.c ****     *
1054:.\Generated_Source\PSoC5/UART_2.c ****     * Summary:
1055:.\Generated_Source\PSoC5/UART_2.c ****     *  Read the status register for the component
1056:.\Generated_Source\PSoC5/UART_2.c ****     *
1057:.\Generated_Source\PSoC5/UART_2.c ****     * Parameters:
1058:.\Generated_Source\PSoC5/UART_2.c ****     *  None.
1059:.\Generated_Source\PSoC5/UART_2.c ****     *
1060:.\Generated_Source\PSoC5/UART_2.c ****     * Return:
1061:.\Generated_Source\PSoC5/UART_2.c ****     *  Contents of the status register
1062:.\Generated_Source\PSoC5/UART_2.c ****     *
1063:.\Generated_Source\PSoC5/UART_2.c ****     * Theory:
1064:.\Generated_Source\PSoC5/UART_2.c ****     *  This function reads the status register which is clear on read. It is up to
1065:.\Generated_Source\PSoC5/UART_2.c ****     *  the user to handle all bits in this return value accordingly, even if the bit
1066:.\Generated_Source\PSoC5/UART_2.c ****     *  was not enabled as an interrupt source the event happened and must be handled
1067:.\Generated_Source\PSoC5/UART_2.c ****     *  accordingly.
1068:.\Generated_Source\PSoC5/UART_2.c ****     *
1069:.\Generated_Source\PSoC5/UART_2.c ****     *******************************************************************************/
1070:.\Generated_Source\PSoC5/UART_2.c ****     uint8 UART_2_ReadTxStatus(void) 
1071:.\Generated_Source\PSoC5/UART_2.c ****     {
 847              		.loc 1 1071 0
 848              		.cfi_startproc
 849              		@ args = 0, pretend = 0, frame = 0
 850              		@ frame_needed = 1, uses_anonymous_args = 0
 851              		@ link register save eliminated.
 852 0000 80B4     		push	{r7}
 853              		.cfi_def_cfa_offset 4
 854              		.cfi_offset 7, -4
 855 0002 00AF     		add	r7, sp, #0
 856              		.cfi_def_cfa_register 7
1072:.\Generated_Source\PSoC5/UART_2.c ****         return(UART_2_TXSTATUS_REG);
 857              		.loc 1 1072 0
 858 0004 034B     		ldr	r3, .L60
 859 0006 1B78     		ldrb	r3, [r3]
 860 0008 DBB2     		uxtb	r3, r3
1073:.\Generated_Source\PSoC5/UART_2.c ****     }
 861              		.loc 1 1073 0
 862 000a 1846     		mov	r0, r3
 863 000c BD46     		mov	sp, r7
 864              		@ sp needed
ARM GAS  C:\Users\Owner\AppData\Local\Temp\cczyEAfi.s 			page 35


 865 000e 5DF8047B 		ldr	r7, [sp], #4
 866 0012 7047     		bx	lr
 867              	.L61:
 868              		.align	2
 869              	.L60:
 870 0014 67650040 		.word	1073767783
 871              		.cfi_endproc
 872              	.LFE18:
 873              		.size	UART_2_ReadTxStatus, .-UART_2_ReadTxStatus
 874              		.section	.text.UART_2_PutChar,"ax",%progbits
 875              		.align	2
 876              		.global	UART_2_PutChar
 877              		.thumb
 878              		.thumb_func
 879              		.type	UART_2_PutChar, %function
 880              	UART_2_PutChar:
 881              	.LFB19:
1074:.\Generated_Source\PSoC5/UART_2.c **** 
1075:.\Generated_Source\PSoC5/UART_2.c **** 
1076:.\Generated_Source\PSoC5/UART_2.c ****     /*******************************************************************************
1077:.\Generated_Source\PSoC5/UART_2.c ****     * Function Name: UART_2_PutChar
1078:.\Generated_Source\PSoC5/UART_2.c ****     ********************************************************************************
1079:.\Generated_Source\PSoC5/UART_2.c ****     *
1080:.\Generated_Source\PSoC5/UART_2.c ****     * Summary:
1081:.\Generated_Source\PSoC5/UART_2.c ****     *  Wait to send byte until TX register or buffer has room.
1082:.\Generated_Source\PSoC5/UART_2.c ****     *
1083:.\Generated_Source\PSoC5/UART_2.c ****     * Parameters:
1084:.\Generated_Source\PSoC5/UART_2.c ****     *  txDataByte: The 8-bit data value to send across the UART.
1085:.\Generated_Source\PSoC5/UART_2.c ****     *
1086:.\Generated_Source\PSoC5/UART_2.c ****     * Return:
1087:.\Generated_Source\PSoC5/UART_2.c ****     *  None.
1088:.\Generated_Source\PSoC5/UART_2.c ****     *
1089:.\Generated_Source\PSoC5/UART_2.c ****     * Global Variables:
1090:.\Generated_Source\PSoC5/UART_2.c ****     *  UART_2_txBuffer - RAM buffer pointer for save data for transmission
1091:.\Generated_Source\PSoC5/UART_2.c ****     *  UART_2_txBufferWrite - cyclic index for write to txBuffer,
1092:.\Generated_Source\PSoC5/UART_2.c ****     *     checked to identify free space in txBuffer and incremented after each byte
1093:.\Generated_Source\PSoC5/UART_2.c ****     *     saved to buffer.
1094:.\Generated_Source\PSoC5/UART_2.c ****     *  UART_2_txBufferRead - cyclic index for read from txBuffer,
1095:.\Generated_Source\PSoC5/UART_2.c ****     *     checked to identify free space in txBuffer.
1096:.\Generated_Source\PSoC5/UART_2.c ****     *  UART_2_initVar - checked to identify that the component has been
1097:.\Generated_Source\PSoC5/UART_2.c ****     *     initialized.
1098:.\Generated_Source\PSoC5/UART_2.c ****     *
1099:.\Generated_Source\PSoC5/UART_2.c ****     * Reentrant:
1100:.\Generated_Source\PSoC5/UART_2.c ****     *  No.
1101:.\Generated_Source\PSoC5/UART_2.c ****     *
1102:.\Generated_Source\PSoC5/UART_2.c ****     * Theory:
1103:.\Generated_Source\PSoC5/UART_2.c ****     *  Allows the user to transmit any byte of data in a single transfer
1104:.\Generated_Source\PSoC5/UART_2.c ****     *
1105:.\Generated_Source\PSoC5/UART_2.c ****     *******************************************************************************/
1106:.\Generated_Source\PSoC5/UART_2.c ****     void UART_2_PutChar(uint8 txDataByte) 
1107:.\Generated_Source\PSoC5/UART_2.c ****     {
 882              		.loc 1 1107 0
 883              		.cfi_startproc
 884              		@ args = 0, pretend = 0, frame = 8
 885              		@ frame_needed = 1, uses_anonymous_args = 0
 886              		@ link register save eliminated.
 887 0000 80B4     		push	{r7}
ARM GAS  C:\Users\Owner\AppData\Local\Temp\cczyEAfi.s 			page 36


 888              		.cfi_def_cfa_offset 4
 889              		.cfi_offset 7, -4
 890 0002 83B0     		sub	sp, sp, #12
 891              		.cfi_def_cfa_offset 16
 892 0004 00AF     		add	r7, sp, #0
 893              		.cfi_def_cfa_register 7
 894 0006 0346     		mov	r3, r0
 895 0008 FB71     		strb	r3, [r7, #7]
1108:.\Generated_Source\PSoC5/UART_2.c ****             #if(UART_2_TXBUFFERSIZE > UART_2_FIFO_LENGTH)
1109:.\Generated_Source\PSoC5/UART_2.c ****                 /* The temporary output pointer is used since it takes two instructions
1110:.\Generated_Source\PSoC5/UART_2.c ****                 *  to increment with a wrap, and we can't risk doing that with the real
1111:.\Generated_Source\PSoC5/UART_2.c ****                 *  pointer and getting an interrupt in between instructions.
1112:.\Generated_Source\PSoC5/UART_2.c ****                 */
1113:.\Generated_Source\PSoC5/UART_2.c ****                 uint8 loc_txBufferWrite;
1114:.\Generated_Source\PSoC5/UART_2.c ****                 uint8 loc_txBufferRead;
1115:.\Generated_Source\PSoC5/UART_2.c **** 
1116:.\Generated_Source\PSoC5/UART_2.c ****                 do{
1117:.\Generated_Source\PSoC5/UART_2.c ****                     /* Block if software buffer is full, so we don't overwrite. */
1118:.\Generated_Source\PSoC5/UART_2.c ****                     #if ((UART_2_TXBUFFERSIZE > UART_2_MAX_BYTE_VALUE) && (CY_PSOC3))
1119:.\Generated_Source\PSoC5/UART_2.c ****                         /* Disable TX interrupt to protect variables that could change on interrupt
1120:.\Generated_Source\PSoC5/UART_2.c ****                         CyIntDisable(UART_2_TX_VECT_NUM);
1121:.\Generated_Source\PSoC5/UART_2.c ****                     #endif /* End TXBUFFERSIZE > 255 */
1122:.\Generated_Source\PSoC5/UART_2.c ****                     loc_txBufferWrite = UART_2_txBufferWrite;
1123:.\Generated_Source\PSoC5/UART_2.c ****                     loc_txBufferRead = UART_2_txBufferRead;
1124:.\Generated_Source\PSoC5/UART_2.c ****                     #if ((UART_2_TXBUFFERSIZE > UART_2_MAX_BYTE_VALUE) && (CY_PSOC3))
1125:.\Generated_Source\PSoC5/UART_2.c ****                         /* Enable interrupt to continue transmission */
1126:.\Generated_Source\PSoC5/UART_2.c ****                         CyIntEnable(UART_2_TX_VECT_NUM);
1127:.\Generated_Source\PSoC5/UART_2.c ****                     #endif /* End TXBUFFERSIZE > 255 */
1128:.\Generated_Source\PSoC5/UART_2.c ****                 }while( (loc_txBufferWrite < loc_txBufferRead) ? (loc_txBufferWrite == (loc_txBuffe
1129:.\Generated_Source\PSoC5/UART_2.c ****                                         ((loc_txBufferWrite - loc_txBufferRead) ==
1130:.\Generated_Source\PSoC5/UART_2.c ****                                         (uint8)(UART_2_TXBUFFERSIZE - 1u)) );
1131:.\Generated_Source\PSoC5/UART_2.c **** 
1132:.\Generated_Source\PSoC5/UART_2.c ****                 if( (loc_txBufferRead == loc_txBufferWrite) &&
1133:.\Generated_Source\PSoC5/UART_2.c ****                     ((UART_2_TXSTATUS_REG & UART_2_TX_STS_FIFO_FULL) == 0u) )
1134:.\Generated_Source\PSoC5/UART_2.c ****                 {
1135:.\Generated_Source\PSoC5/UART_2.c ****                     /* Add directly to the FIFO. */
1136:.\Generated_Source\PSoC5/UART_2.c ****                     UART_2_TXDATA_REG = txDataByte;
1137:.\Generated_Source\PSoC5/UART_2.c ****                 }
1138:.\Generated_Source\PSoC5/UART_2.c ****                 else
1139:.\Generated_Source\PSoC5/UART_2.c ****                 {
1140:.\Generated_Source\PSoC5/UART_2.c ****                     if(loc_txBufferWrite >= UART_2_TXBUFFERSIZE)
1141:.\Generated_Source\PSoC5/UART_2.c ****                     {
1142:.\Generated_Source\PSoC5/UART_2.c ****                         loc_txBufferWrite = 0u;
1143:.\Generated_Source\PSoC5/UART_2.c ****                     }
1144:.\Generated_Source\PSoC5/UART_2.c ****                     /* Add to the software buffer. */
1145:.\Generated_Source\PSoC5/UART_2.c ****                     UART_2_txBuffer[loc_txBufferWrite] = txDataByte;
1146:.\Generated_Source\PSoC5/UART_2.c ****                     loc_txBufferWrite++;
1147:.\Generated_Source\PSoC5/UART_2.c **** 
1148:.\Generated_Source\PSoC5/UART_2.c ****                     /* Finally, update the real output pointer */
1149:.\Generated_Source\PSoC5/UART_2.c ****                     #if ((UART_2_TXBUFFERSIZE > UART_2_MAX_BYTE_VALUE) && (CY_PSOC3))
1150:.\Generated_Source\PSoC5/UART_2.c ****                         CyIntDisable(UART_2_TX_VECT_NUM);
1151:.\Generated_Source\PSoC5/UART_2.c ****                     #endif /* End TXBUFFERSIZE > 255 */
1152:.\Generated_Source\PSoC5/UART_2.c ****                     UART_2_txBufferWrite = loc_txBufferWrite;
1153:.\Generated_Source\PSoC5/UART_2.c ****                     #if ((UART_2_TXBUFFERSIZE > UART_2_MAX_BYTE_VALUE) && (CY_PSOC3))
1154:.\Generated_Source\PSoC5/UART_2.c ****                         CyIntEnable(UART_2_TX_VECT_NUM);
1155:.\Generated_Source\PSoC5/UART_2.c ****                     #endif /* End TXBUFFERSIZE > 255 */
1156:.\Generated_Source\PSoC5/UART_2.c ****                 }
ARM GAS  C:\Users\Owner\AppData\Local\Temp\cczyEAfi.s 			page 37


1157:.\Generated_Source\PSoC5/UART_2.c **** 
1158:.\Generated_Source\PSoC5/UART_2.c ****             #else /* UART_2_TXBUFFERSIZE > UART_2_FIFO_LENGTH */
1159:.\Generated_Source\PSoC5/UART_2.c **** 
1160:.\Generated_Source\PSoC5/UART_2.c ****                 while((UART_2_TXSTATUS_REG & UART_2_TX_STS_FIFO_FULL) != 0u)
 896              		.loc 1 1160 0
 897 000a 00BF     		nop
 898              	.L63:
 899              		.loc 1 1160 0 is_stmt 0 discriminator 1
 900 000c 074B     		ldr	r3, .L64
 901 000e 1B78     		ldrb	r3, [r3]
 902 0010 DBB2     		uxtb	r3, r3
 903 0012 03F00403 		and	r3, r3, #4
 904 0016 002B     		cmp	r3, #0
 905 0018 F8D1     		bne	.L63
1161:.\Generated_Source\PSoC5/UART_2.c ****                 {
1162:.\Generated_Source\PSoC5/UART_2.c ****                     ; /* Wait for room in the FIFO. */
1163:.\Generated_Source\PSoC5/UART_2.c ****                 }
1164:.\Generated_Source\PSoC5/UART_2.c **** 
1165:.\Generated_Source\PSoC5/UART_2.c ****                 /* Add directly to the FIFO. */
1166:.\Generated_Source\PSoC5/UART_2.c ****                 UART_2_TXDATA_REG = txDataByte;
 906              		.loc 1 1166 0 is_stmt 1
 907 001a 054B     		ldr	r3, .L64+4
 908 001c FA79     		ldrb	r2, [r7, #7]
 909 001e 1A70     		strb	r2, [r3]
1167:.\Generated_Source\PSoC5/UART_2.c **** 
1168:.\Generated_Source\PSoC5/UART_2.c ****             #endif /* End UART_2_TXBUFFERSIZE > UART_2_FIFO_LENGTH */
1169:.\Generated_Source\PSoC5/UART_2.c ****     }
 910              		.loc 1 1169 0
 911 0020 0C37     		adds	r7, r7, #12
 912 0022 BD46     		mov	sp, r7
 913              		@ sp needed
 914 0024 5DF8047B 		ldr	r7, [sp], #4
 915 0028 7047     		bx	lr
 916              	.L65:
 917 002a 00BF     		.align	2
 918              	.L64:
 919 002c 67650040 		.word	1073767783
 920 0030 47650040 		.word	1073767751
 921              		.cfi_endproc
 922              	.LFE19:
 923              		.size	UART_2_PutChar, .-UART_2_PutChar
 924              		.section	.text.UART_2_PutString,"ax",%progbits
 925              		.align	2
 926              		.global	UART_2_PutString
 927              		.thumb
 928              		.thumb_func
 929              		.type	UART_2_PutString, %function
 930              	UART_2_PutString:
 931              	.LFB20:
1170:.\Generated_Source\PSoC5/UART_2.c **** 
1171:.\Generated_Source\PSoC5/UART_2.c **** 
1172:.\Generated_Source\PSoC5/UART_2.c ****     /*******************************************************************************
1173:.\Generated_Source\PSoC5/UART_2.c ****     * Function Name: UART_2_PutString
1174:.\Generated_Source\PSoC5/UART_2.c ****     ********************************************************************************
1175:.\Generated_Source\PSoC5/UART_2.c ****     *
1176:.\Generated_Source\PSoC5/UART_2.c ****     * Summary:
1177:.\Generated_Source\PSoC5/UART_2.c ****     *  Write a Sequence of bytes on the Transmit line. Data comes from RAM or ROM.
ARM GAS  C:\Users\Owner\AppData\Local\Temp\cczyEAfi.s 			page 38


1178:.\Generated_Source\PSoC5/UART_2.c ****     *
1179:.\Generated_Source\PSoC5/UART_2.c ****     * Parameters:
1180:.\Generated_Source\PSoC5/UART_2.c ****     *  string: char pointer to character string of Data to Send.
1181:.\Generated_Source\PSoC5/UART_2.c ****     *
1182:.\Generated_Source\PSoC5/UART_2.c ****     * Return:
1183:.\Generated_Source\PSoC5/UART_2.c ****     *  None.
1184:.\Generated_Source\PSoC5/UART_2.c ****     *
1185:.\Generated_Source\PSoC5/UART_2.c ****     * Global Variables:
1186:.\Generated_Source\PSoC5/UART_2.c ****     *  UART_2_initVar - checked to identify that the component has been
1187:.\Generated_Source\PSoC5/UART_2.c ****     *     initialized.
1188:.\Generated_Source\PSoC5/UART_2.c ****     *
1189:.\Generated_Source\PSoC5/UART_2.c ****     * Reentrant:
1190:.\Generated_Source\PSoC5/UART_2.c ****     *  No.
1191:.\Generated_Source\PSoC5/UART_2.c ****     *
1192:.\Generated_Source\PSoC5/UART_2.c ****     * Theory:
1193:.\Generated_Source\PSoC5/UART_2.c ****     *  This function will block if there is not enough memory to place the whole
1194:.\Generated_Source\PSoC5/UART_2.c ****     *  string, it will block until the entire string has been written to the
1195:.\Generated_Source\PSoC5/UART_2.c ****     *  transmit buffer.
1196:.\Generated_Source\PSoC5/UART_2.c ****     *
1197:.\Generated_Source\PSoC5/UART_2.c ****     *******************************************************************************/
1198:.\Generated_Source\PSoC5/UART_2.c ****     void UART_2_PutString(const char8 string[]) 
1199:.\Generated_Source\PSoC5/UART_2.c ****     {
 932              		.loc 1 1199 0
 933              		.cfi_startproc
 934              		@ args = 0, pretend = 0, frame = 16
 935              		@ frame_needed = 1, uses_anonymous_args = 0
 936 0000 80B5     		push	{r7, lr}
 937              		.cfi_def_cfa_offset 8
 938              		.cfi_offset 7, -8
 939              		.cfi_offset 14, -4
 940 0002 84B0     		sub	sp, sp, #16
 941              		.cfi_def_cfa_offset 24
 942 0004 00AF     		add	r7, sp, #0
 943              		.cfi_def_cfa_register 7
 944 0006 7860     		str	r0, [r7, #4]
1200:.\Generated_Source\PSoC5/UART_2.c ****         uint16 buf_index = 0u;
 945              		.loc 1 1200 0
 946 0008 0023     		movs	r3, #0
 947 000a FB81     		strh	r3, [r7, #14]	@ movhi
1201:.\Generated_Source\PSoC5/UART_2.c ****         /* If not Initialized then skip this function*/
1202:.\Generated_Source\PSoC5/UART_2.c ****         if(UART_2_initVar != 0u)
 948              		.loc 1 1202 0
 949 000c 0B4B     		ldr	r3, .L70
 950 000e 1B78     		ldrb	r3, [r3]	@ zero_extendqisi2
 951 0010 002B     		cmp	r3, #0
 952 0012 10D0     		beq	.L66
1203:.\Generated_Source\PSoC5/UART_2.c ****         {
1204:.\Generated_Source\PSoC5/UART_2.c ****             /* This is a blocking function, it will not exit until all data is sent*/
1205:.\Generated_Source\PSoC5/UART_2.c ****             while(string[buf_index] != (char8)0)
 953              		.loc 1 1205 0
 954 0014 09E0     		b	.L68
 955              	.L69:
1206:.\Generated_Source\PSoC5/UART_2.c ****             {
1207:.\Generated_Source\PSoC5/UART_2.c ****                 UART_2_PutChar((uint8)string[buf_index]);
 956              		.loc 1 1207 0
 957 0016 FB89     		ldrh	r3, [r7, #14]
 958 0018 7A68     		ldr	r2, [r7, #4]
ARM GAS  C:\Users\Owner\AppData\Local\Temp\cczyEAfi.s 			page 39


 959 001a 1344     		add	r3, r3, r2
 960 001c 1B78     		ldrb	r3, [r3]	@ zero_extendqisi2
 961 001e 1846     		mov	r0, r3
 962 0020 FFF7FEFF 		bl	UART_2_PutChar
1208:.\Generated_Source\PSoC5/UART_2.c ****                 buf_index++;
 963              		.loc 1 1208 0
 964 0024 FB89     		ldrh	r3, [r7, #14]
 965 0026 0133     		adds	r3, r3, #1
 966 0028 FB81     		strh	r3, [r7, #14]	@ movhi
 967              	.L68:
1205:.\Generated_Source\PSoC5/UART_2.c ****             while(string[buf_index] != (char8)0)
 968              		.loc 1 1205 0 discriminator 1
 969 002a FB89     		ldrh	r3, [r7, #14]
 970 002c 7A68     		ldr	r2, [r7, #4]
 971 002e 1344     		add	r3, r3, r2
 972 0030 1B78     		ldrb	r3, [r3]	@ zero_extendqisi2
 973 0032 002B     		cmp	r3, #0
 974 0034 EFD1     		bne	.L69
 975              	.L66:
1209:.\Generated_Source\PSoC5/UART_2.c ****             }
1210:.\Generated_Source\PSoC5/UART_2.c ****         }
1211:.\Generated_Source\PSoC5/UART_2.c ****     }
 976              		.loc 1 1211 0
 977 0036 1037     		adds	r7, r7, #16
 978 0038 BD46     		mov	sp, r7
 979              		@ sp needed
 980 003a 80BD     		pop	{r7, pc}
 981              	.L71:
 982              		.align	2
 983              	.L70:
 984 003c 00000000 		.word	UART_2_initVar
 985              		.cfi_endproc
 986              	.LFE20:
 987              		.size	UART_2_PutString, .-UART_2_PutString
 988              		.section	.text.UART_2_PutArray,"ax",%progbits
 989              		.align	2
 990              		.global	UART_2_PutArray
 991              		.thumb
 992              		.thumb_func
 993              		.type	UART_2_PutArray, %function
 994              	UART_2_PutArray:
 995              	.LFB21:
1212:.\Generated_Source\PSoC5/UART_2.c **** 
1213:.\Generated_Source\PSoC5/UART_2.c **** 
1214:.\Generated_Source\PSoC5/UART_2.c ****     /*******************************************************************************
1215:.\Generated_Source\PSoC5/UART_2.c ****     * Function Name: UART_2_PutArray
1216:.\Generated_Source\PSoC5/UART_2.c ****     ********************************************************************************
1217:.\Generated_Source\PSoC5/UART_2.c ****     *
1218:.\Generated_Source\PSoC5/UART_2.c ****     * Summary:
1219:.\Generated_Source\PSoC5/UART_2.c ****     *  Write a Sequence of bytes on the Transmit line. Data comes from RAM or ROM.
1220:.\Generated_Source\PSoC5/UART_2.c ****     *
1221:.\Generated_Source\PSoC5/UART_2.c ****     * Parameters:
1222:.\Generated_Source\PSoC5/UART_2.c ****     *  string: Address of the memory array residing in RAM or ROM.
1223:.\Generated_Source\PSoC5/UART_2.c ****     *  byteCount: Number of Bytes to be transmitted.
1224:.\Generated_Source\PSoC5/UART_2.c ****     *
1225:.\Generated_Source\PSoC5/UART_2.c ****     * Return:
1226:.\Generated_Source\PSoC5/UART_2.c ****     *  None.
ARM GAS  C:\Users\Owner\AppData\Local\Temp\cczyEAfi.s 			page 40


1227:.\Generated_Source\PSoC5/UART_2.c ****     *
1228:.\Generated_Source\PSoC5/UART_2.c ****     * Global Variables:
1229:.\Generated_Source\PSoC5/UART_2.c ****     *  UART_2_initVar - checked to identify that the component has been
1230:.\Generated_Source\PSoC5/UART_2.c ****     *     initialized.
1231:.\Generated_Source\PSoC5/UART_2.c ****     *
1232:.\Generated_Source\PSoC5/UART_2.c ****     * Reentrant:
1233:.\Generated_Source\PSoC5/UART_2.c ****     *  No.
1234:.\Generated_Source\PSoC5/UART_2.c ****     *
1235:.\Generated_Source\PSoC5/UART_2.c ****     *******************************************************************************/
1236:.\Generated_Source\PSoC5/UART_2.c ****     void UART_2_PutArray(const uint8 string[], uint8 byteCount)
1237:.\Generated_Source\PSoC5/UART_2.c ****                                                                     
1238:.\Generated_Source\PSoC5/UART_2.c ****     {
 996              		.loc 1 1238 0
 997              		.cfi_startproc
 998              		@ args = 0, pretend = 0, frame = 16
 999              		@ frame_needed = 1, uses_anonymous_args = 0
 1000 0000 80B5     		push	{r7, lr}
 1001              		.cfi_def_cfa_offset 8
 1002              		.cfi_offset 7, -8
 1003              		.cfi_offset 14, -4
 1004 0002 84B0     		sub	sp, sp, #16
 1005              		.cfi_def_cfa_offset 24
 1006 0004 00AF     		add	r7, sp, #0
 1007              		.cfi_def_cfa_register 7
 1008 0006 7860     		str	r0, [r7, #4]
 1009 0008 0B46     		mov	r3, r1
 1010 000a FB70     		strb	r3, [r7, #3]
1239:.\Generated_Source\PSoC5/UART_2.c ****         uint8 buf_index = 0u;
 1011              		.loc 1 1239 0
 1012 000c 0023     		movs	r3, #0
 1013 000e FB73     		strb	r3, [r7, #15]
1240:.\Generated_Source\PSoC5/UART_2.c ****         /* If not Initialized then skip this function*/
1241:.\Generated_Source\PSoC5/UART_2.c ****         if(UART_2_initVar != 0u)
 1014              		.loc 1 1241 0
 1015 0010 0A4B     		ldr	r3, .L75
 1016 0012 1B78     		ldrb	r3, [r3]	@ zero_extendqisi2
 1017 0014 002B     		cmp	r3, #0
 1018 0016 0DD0     		beq	.L72
 1019              	.L74:
1242:.\Generated_Source\PSoC5/UART_2.c ****         {
1243:.\Generated_Source\PSoC5/UART_2.c ****             do
1244:.\Generated_Source\PSoC5/UART_2.c ****             {
1245:.\Generated_Source\PSoC5/UART_2.c ****                 UART_2_PutChar(string[buf_index]);
 1020              		.loc 1 1245 0 discriminator 1
 1021 0018 FB7B     		ldrb	r3, [r7, #15]	@ zero_extendqisi2
 1022 001a 7A68     		ldr	r2, [r7, #4]
 1023 001c 1344     		add	r3, r3, r2
 1024 001e 1B78     		ldrb	r3, [r3]	@ zero_extendqisi2
 1025 0020 1846     		mov	r0, r3
 1026 0022 FFF7FEFF 		bl	UART_2_PutChar
1246:.\Generated_Source\PSoC5/UART_2.c ****                 buf_index++;
 1027              		.loc 1 1246 0 discriminator 1
 1028 0026 FB7B     		ldrb	r3, [r7, #15]	@ zero_extendqisi2
 1029 0028 0133     		adds	r3, r3, #1
 1030 002a FB73     		strb	r3, [r7, #15]
1247:.\Generated_Source\PSoC5/UART_2.c ****             }while(buf_index < byteCount);
 1031              		.loc 1 1247 0 discriminator 1
ARM GAS  C:\Users\Owner\AppData\Local\Temp\cczyEAfi.s 			page 41


 1032 002c FA7B     		ldrb	r2, [r7, #15]	@ zero_extendqisi2
 1033 002e FB78     		ldrb	r3, [r7, #3]	@ zero_extendqisi2
 1034 0030 9A42     		cmp	r2, r3
 1035 0032 F1D3     		bcc	.L74
 1036              	.L72:
1248:.\Generated_Source\PSoC5/UART_2.c ****         }
1249:.\Generated_Source\PSoC5/UART_2.c ****     }
 1037              		.loc 1 1249 0
 1038 0034 1037     		adds	r7, r7, #16
 1039 0036 BD46     		mov	sp, r7
 1040              		@ sp needed
 1041 0038 80BD     		pop	{r7, pc}
 1042              	.L76:
 1043 003a 00BF     		.align	2
 1044              	.L75:
 1045 003c 00000000 		.word	UART_2_initVar
 1046              		.cfi_endproc
 1047              	.LFE21:
 1048              		.size	UART_2_PutArray, .-UART_2_PutArray
 1049              		.section	.text.UART_2_PutCRLF,"ax",%progbits
 1050              		.align	2
 1051              		.global	UART_2_PutCRLF
 1052              		.thumb
 1053              		.thumb_func
 1054              		.type	UART_2_PutCRLF, %function
 1055              	UART_2_PutCRLF:
 1056              	.LFB22:
1250:.\Generated_Source\PSoC5/UART_2.c **** 
1251:.\Generated_Source\PSoC5/UART_2.c **** 
1252:.\Generated_Source\PSoC5/UART_2.c ****     /*******************************************************************************
1253:.\Generated_Source\PSoC5/UART_2.c ****     * Function Name: UART_2_PutCRLF
1254:.\Generated_Source\PSoC5/UART_2.c ****     ********************************************************************************
1255:.\Generated_Source\PSoC5/UART_2.c ****     *
1256:.\Generated_Source\PSoC5/UART_2.c ****     * Summary:
1257:.\Generated_Source\PSoC5/UART_2.c ****     *  Write a character and then carriage return and line feed.
1258:.\Generated_Source\PSoC5/UART_2.c ****     *
1259:.\Generated_Source\PSoC5/UART_2.c ****     * Parameters:
1260:.\Generated_Source\PSoC5/UART_2.c ****     *  txDataByte: uint8 Character to send.
1261:.\Generated_Source\PSoC5/UART_2.c ****     *
1262:.\Generated_Source\PSoC5/UART_2.c ****     * Return:
1263:.\Generated_Source\PSoC5/UART_2.c ****     *  None.
1264:.\Generated_Source\PSoC5/UART_2.c ****     *
1265:.\Generated_Source\PSoC5/UART_2.c ****     * Global Variables:
1266:.\Generated_Source\PSoC5/UART_2.c ****     *  UART_2_initVar - checked to identify that the component has been
1267:.\Generated_Source\PSoC5/UART_2.c ****     *     initialized.
1268:.\Generated_Source\PSoC5/UART_2.c ****     *
1269:.\Generated_Source\PSoC5/UART_2.c ****     * Reentrant:
1270:.\Generated_Source\PSoC5/UART_2.c ****     *  No.
1271:.\Generated_Source\PSoC5/UART_2.c ****     *
1272:.\Generated_Source\PSoC5/UART_2.c ****     *******************************************************************************/
1273:.\Generated_Source\PSoC5/UART_2.c ****     void UART_2_PutCRLF(uint8 txDataByte) 
1274:.\Generated_Source\PSoC5/UART_2.c ****     {
 1057              		.loc 1 1274 0
 1058              		.cfi_startproc
 1059              		@ args = 0, pretend = 0, frame = 8
 1060              		@ frame_needed = 1, uses_anonymous_args = 0
 1061 0000 80B5     		push	{r7, lr}
ARM GAS  C:\Users\Owner\AppData\Local\Temp\cczyEAfi.s 			page 42


 1062              		.cfi_def_cfa_offset 8
 1063              		.cfi_offset 7, -8
 1064              		.cfi_offset 14, -4
 1065 0002 82B0     		sub	sp, sp, #8
 1066              		.cfi_def_cfa_offset 16
 1067 0004 00AF     		add	r7, sp, #0
 1068              		.cfi_def_cfa_register 7
 1069 0006 0346     		mov	r3, r0
 1070 0008 FB71     		strb	r3, [r7, #7]
1275:.\Generated_Source\PSoC5/UART_2.c ****         /* If not Initialized then skip this function*/
1276:.\Generated_Source\PSoC5/UART_2.c ****         if(UART_2_initVar != 0u)
 1071              		.loc 1 1276 0
 1072 000a 084B     		ldr	r3, .L79
 1073 000c 1B78     		ldrb	r3, [r3]	@ zero_extendqisi2
 1074 000e 002B     		cmp	r3, #0
 1075 0010 09D0     		beq	.L77
1277:.\Generated_Source\PSoC5/UART_2.c ****         {
1278:.\Generated_Source\PSoC5/UART_2.c ****             UART_2_PutChar(txDataByte);
 1076              		.loc 1 1278 0
 1077 0012 FB79     		ldrb	r3, [r7, #7]	@ zero_extendqisi2
 1078 0014 1846     		mov	r0, r3
 1079 0016 FFF7FEFF 		bl	UART_2_PutChar
1279:.\Generated_Source\PSoC5/UART_2.c ****             UART_2_PutChar(0x0Du);
 1080              		.loc 1 1279 0
 1081 001a 0D20     		movs	r0, #13
 1082 001c FFF7FEFF 		bl	UART_2_PutChar
1280:.\Generated_Source\PSoC5/UART_2.c ****             UART_2_PutChar(0x0Au);
 1083              		.loc 1 1280 0
 1084 0020 0A20     		movs	r0, #10
 1085 0022 FFF7FEFF 		bl	UART_2_PutChar
 1086              	.L77:
1281:.\Generated_Source\PSoC5/UART_2.c ****         }
1282:.\Generated_Source\PSoC5/UART_2.c ****     }
 1087              		.loc 1 1282 0
 1088 0026 0837     		adds	r7, r7, #8
 1089 0028 BD46     		mov	sp, r7
 1090              		@ sp needed
 1091 002a 80BD     		pop	{r7, pc}
 1092              	.L80:
 1093              		.align	2
 1094              	.L79:
 1095 002c 00000000 		.word	UART_2_initVar
 1096              		.cfi_endproc
 1097              	.LFE22:
 1098              		.size	UART_2_PutCRLF, .-UART_2_PutCRLF
 1099              		.section	.text.UART_2_GetTxBufferSize,"ax",%progbits
 1100              		.align	2
 1101              		.global	UART_2_GetTxBufferSize
 1102              		.thumb
 1103              		.thumb_func
 1104              		.type	UART_2_GetTxBufferSize, %function
 1105              	UART_2_GetTxBufferSize:
 1106              	.LFB23:
1283:.\Generated_Source\PSoC5/UART_2.c **** 
1284:.\Generated_Source\PSoC5/UART_2.c **** 
1285:.\Generated_Source\PSoC5/UART_2.c ****     /*******************************************************************************
1286:.\Generated_Source\PSoC5/UART_2.c ****     * Function Name: UART_2_GetTxBufferSize
ARM GAS  C:\Users\Owner\AppData\Local\Temp\cczyEAfi.s 			page 43


1287:.\Generated_Source\PSoC5/UART_2.c ****     ********************************************************************************
1288:.\Generated_Source\PSoC5/UART_2.c ****     *
1289:.\Generated_Source\PSoC5/UART_2.c ****     * Summary:
1290:.\Generated_Source\PSoC5/UART_2.c ****     *  Determine the amount of space left in the TX buffer and return the count in
1291:.\Generated_Source\PSoC5/UART_2.c ****     *  bytes
1292:.\Generated_Source\PSoC5/UART_2.c ****     *
1293:.\Generated_Source\PSoC5/UART_2.c ****     * Parameters:
1294:.\Generated_Source\PSoC5/UART_2.c ****     *  None.
1295:.\Generated_Source\PSoC5/UART_2.c ****     *
1296:.\Generated_Source\PSoC5/UART_2.c ****     * Return:
1297:.\Generated_Source\PSoC5/UART_2.c ****     *  Integer count of the number of bytes left in the TX buffer
1298:.\Generated_Source\PSoC5/UART_2.c ****     *
1299:.\Generated_Source\PSoC5/UART_2.c ****     * Global Variables:
1300:.\Generated_Source\PSoC5/UART_2.c ****     *  UART_2_txBufferWrite - used to calculate left space.
1301:.\Generated_Source\PSoC5/UART_2.c ****     *  UART_2_txBufferRead - used to calculate left space.
1302:.\Generated_Source\PSoC5/UART_2.c ****     *
1303:.\Generated_Source\PSoC5/UART_2.c ****     * Reentrant:
1304:.\Generated_Source\PSoC5/UART_2.c ****     *  No.
1305:.\Generated_Source\PSoC5/UART_2.c ****     *
1306:.\Generated_Source\PSoC5/UART_2.c ****     * Theory:
1307:.\Generated_Source\PSoC5/UART_2.c ****     *  Allows the user to find out how full the TX Buffer is.
1308:.\Generated_Source\PSoC5/UART_2.c ****     *
1309:.\Generated_Source\PSoC5/UART_2.c ****     *******************************************************************************/
1310:.\Generated_Source\PSoC5/UART_2.c ****     uint8 UART_2_GetTxBufferSize(void)
1311:.\Generated_Source\PSoC5/UART_2.c ****                                                             
1312:.\Generated_Source\PSoC5/UART_2.c ****     {
 1107              		.loc 1 1312 0
 1108              		.cfi_startproc
 1109              		@ args = 0, pretend = 0, frame = 8
 1110              		@ frame_needed = 1, uses_anonymous_args = 0
 1111              		@ link register save eliminated.
 1112 0000 80B4     		push	{r7}
 1113              		.cfi_def_cfa_offset 4
 1114              		.cfi_offset 7, -4
 1115 0002 83B0     		sub	sp, sp, #12
 1116              		.cfi_def_cfa_offset 16
 1117 0004 00AF     		add	r7, sp, #0
 1118              		.cfi_def_cfa_register 7
1313:.\Generated_Source\PSoC5/UART_2.c ****         uint8 size;
1314:.\Generated_Source\PSoC5/UART_2.c **** 
1315:.\Generated_Source\PSoC5/UART_2.c ****         #if(UART_2_TXBUFFERSIZE > UART_2_FIFO_LENGTH)
1316:.\Generated_Source\PSoC5/UART_2.c **** 
1317:.\Generated_Source\PSoC5/UART_2.c ****             /* Disable Tx interrupt. */
1318:.\Generated_Source\PSoC5/UART_2.c ****             /* Protect variables that could change on interrupt. */
1319:.\Generated_Source\PSoC5/UART_2.c ****             #if(UART_2_TX_INTERRUPT_ENABLED)
1320:.\Generated_Source\PSoC5/UART_2.c ****                 UART_2_DisableTxInt();
1321:.\Generated_Source\PSoC5/UART_2.c ****             #endif /* End UART_2_TX_INTERRUPT_ENABLED */
1322:.\Generated_Source\PSoC5/UART_2.c **** 
1323:.\Generated_Source\PSoC5/UART_2.c ****             if(UART_2_txBufferRead == UART_2_txBufferWrite)
1324:.\Generated_Source\PSoC5/UART_2.c ****             {
1325:.\Generated_Source\PSoC5/UART_2.c ****                 size = 0u;
1326:.\Generated_Source\PSoC5/UART_2.c ****             }
1327:.\Generated_Source\PSoC5/UART_2.c ****             else if(UART_2_txBufferRead < UART_2_txBufferWrite)
1328:.\Generated_Source\PSoC5/UART_2.c ****             {
1329:.\Generated_Source\PSoC5/UART_2.c ****                 size = (UART_2_txBufferWrite - UART_2_txBufferRead);
1330:.\Generated_Source\PSoC5/UART_2.c ****             }
1331:.\Generated_Source\PSoC5/UART_2.c ****             else
ARM GAS  C:\Users\Owner\AppData\Local\Temp\cczyEAfi.s 			page 44


1332:.\Generated_Source\PSoC5/UART_2.c ****             {
1333:.\Generated_Source\PSoC5/UART_2.c ****                 size = (UART_2_TXBUFFERSIZE - UART_2_txBufferRead) + UART_2_txBufferWrite;
1334:.\Generated_Source\PSoC5/UART_2.c ****             }
1335:.\Generated_Source\PSoC5/UART_2.c **** 
1336:.\Generated_Source\PSoC5/UART_2.c ****             /* Enable Tx interrupt. */
1337:.\Generated_Source\PSoC5/UART_2.c ****             #if(UART_2_TX_INTERRUPT_ENABLED)
1338:.\Generated_Source\PSoC5/UART_2.c ****                 UART_2_EnableTxInt();
1339:.\Generated_Source\PSoC5/UART_2.c ****             #endif /* End UART_2_TX_INTERRUPT_ENABLED */
1340:.\Generated_Source\PSoC5/UART_2.c **** 
1341:.\Generated_Source\PSoC5/UART_2.c ****         #else /* UART_2_TXBUFFERSIZE > UART_2_FIFO_LENGTH */
1342:.\Generated_Source\PSoC5/UART_2.c **** 
1343:.\Generated_Source\PSoC5/UART_2.c ****             size = UART_2_TXSTATUS_REG;
 1119              		.loc 1 1343 0
 1120 0006 0E4B     		ldr	r3, .L86
 1121 0008 1B78     		ldrb	r3, [r3]
 1122 000a FB71     		strb	r3, [r7, #7]
1344:.\Generated_Source\PSoC5/UART_2.c **** 
1345:.\Generated_Source\PSoC5/UART_2.c ****             /* Is the fifo is full. */
1346:.\Generated_Source\PSoC5/UART_2.c ****             if((size & UART_2_TX_STS_FIFO_FULL) != 0u)
 1123              		.loc 1 1346 0
 1124 000c FB79     		ldrb	r3, [r7, #7]	@ zero_extendqisi2
 1125 000e 03F00403 		and	r3, r3, #4
 1126 0012 002B     		cmp	r3, #0
 1127 0014 02D0     		beq	.L82
1347:.\Generated_Source\PSoC5/UART_2.c ****             {
1348:.\Generated_Source\PSoC5/UART_2.c ****                 size = UART_2_FIFO_LENGTH;
 1128              		.loc 1 1348 0
 1129 0016 0423     		movs	r3, #4
 1130 0018 FB71     		strb	r3, [r7, #7]
 1131 001a 09E0     		b	.L83
 1132              	.L82:
1349:.\Generated_Source\PSoC5/UART_2.c ****             }
1350:.\Generated_Source\PSoC5/UART_2.c ****             else if((size & UART_2_TX_STS_FIFO_EMPTY) != 0u)
 1133              		.loc 1 1350 0
 1134 001c FB79     		ldrb	r3, [r7, #7]	@ zero_extendqisi2
 1135 001e 03F00203 		and	r3, r3, #2
 1136 0022 002B     		cmp	r3, #0
 1137 0024 02D0     		beq	.L84
1351:.\Generated_Source\PSoC5/UART_2.c ****             {
1352:.\Generated_Source\PSoC5/UART_2.c ****                 size = 0u;
 1138              		.loc 1 1352 0
 1139 0026 0023     		movs	r3, #0
 1140 0028 FB71     		strb	r3, [r7, #7]
 1141 002a 01E0     		b	.L83
 1142              	.L84:
1353:.\Generated_Source\PSoC5/UART_2.c ****             }
1354:.\Generated_Source\PSoC5/UART_2.c ****             else
1355:.\Generated_Source\PSoC5/UART_2.c ****             {
1356:.\Generated_Source\PSoC5/UART_2.c ****                 /* We only know there is data in the fifo. */
1357:.\Generated_Source\PSoC5/UART_2.c ****                 size = 1u;
 1143              		.loc 1 1357 0
 1144 002c 0123     		movs	r3, #1
 1145 002e FB71     		strb	r3, [r7, #7]
 1146              	.L83:
1358:.\Generated_Source\PSoC5/UART_2.c ****             }
1359:.\Generated_Source\PSoC5/UART_2.c **** 
1360:.\Generated_Source\PSoC5/UART_2.c ****         #endif /* End UART_2_TXBUFFERSIZE > UART_2_FIFO_LENGTH */
ARM GAS  C:\Users\Owner\AppData\Local\Temp\cczyEAfi.s 			page 45


1361:.\Generated_Source\PSoC5/UART_2.c **** 
1362:.\Generated_Source\PSoC5/UART_2.c ****         return(size);
 1147              		.loc 1 1362 0
 1148 0030 FB79     		ldrb	r3, [r7, #7]	@ zero_extendqisi2
1363:.\Generated_Source\PSoC5/UART_2.c ****     }
 1149              		.loc 1 1363 0
 1150 0032 1846     		mov	r0, r3
 1151 0034 0C37     		adds	r7, r7, #12
 1152 0036 BD46     		mov	sp, r7
 1153              		@ sp needed
 1154 0038 5DF8047B 		ldr	r7, [sp], #4
 1155 003c 7047     		bx	lr
 1156              	.L87:
 1157 003e 00BF     		.align	2
 1158              	.L86:
 1159 0040 67650040 		.word	1073767783
 1160              		.cfi_endproc
 1161              	.LFE23:
 1162              		.size	UART_2_GetTxBufferSize, .-UART_2_GetTxBufferSize
 1163              		.section	.text.UART_2_ClearTxBuffer,"ax",%progbits
 1164              		.align	2
 1165              		.global	UART_2_ClearTxBuffer
 1166              		.thumb
 1167              		.thumb_func
 1168              		.type	UART_2_ClearTxBuffer, %function
 1169              	UART_2_ClearTxBuffer:
 1170              	.LFB24:
1364:.\Generated_Source\PSoC5/UART_2.c **** 
1365:.\Generated_Source\PSoC5/UART_2.c **** 
1366:.\Generated_Source\PSoC5/UART_2.c ****     /*******************************************************************************
1367:.\Generated_Source\PSoC5/UART_2.c ****     * Function Name: UART_2_ClearTxBuffer
1368:.\Generated_Source\PSoC5/UART_2.c ****     ********************************************************************************
1369:.\Generated_Source\PSoC5/UART_2.c ****     *
1370:.\Generated_Source\PSoC5/UART_2.c ****     * Summary:
1371:.\Generated_Source\PSoC5/UART_2.c ****     *  Clears the TX RAM buffer by setting the read and write pointers both to zero.
1372:.\Generated_Source\PSoC5/UART_2.c ****     *  Clears the hardware TX FIFO.  Any data present in the FIFO will not be sent.
1373:.\Generated_Source\PSoC5/UART_2.c ****     *
1374:.\Generated_Source\PSoC5/UART_2.c ****     * Parameters:
1375:.\Generated_Source\PSoC5/UART_2.c ****     *  None.
1376:.\Generated_Source\PSoC5/UART_2.c ****     *
1377:.\Generated_Source\PSoC5/UART_2.c ****     * Return:
1378:.\Generated_Source\PSoC5/UART_2.c ****     *  None.
1379:.\Generated_Source\PSoC5/UART_2.c ****     *
1380:.\Generated_Source\PSoC5/UART_2.c ****     * Global Variables:
1381:.\Generated_Source\PSoC5/UART_2.c ****     *  UART_2_txBufferWrite - cleared to zero.
1382:.\Generated_Source\PSoC5/UART_2.c ****     *  UART_2_txBufferRead - cleared to zero.
1383:.\Generated_Source\PSoC5/UART_2.c ****     *
1384:.\Generated_Source\PSoC5/UART_2.c ****     * Reentrant:
1385:.\Generated_Source\PSoC5/UART_2.c ****     *  No.
1386:.\Generated_Source\PSoC5/UART_2.c ****     *
1387:.\Generated_Source\PSoC5/UART_2.c ****     * Theory:
1388:.\Generated_Source\PSoC5/UART_2.c ****     *  Setting the pointers to zero makes the system believe there is no data to
1389:.\Generated_Source\PSoC5/UART_2.c ****     *  read and writing will resume at address 0 overwriting any data that may have
1390:.\Generated_Source\PSoC5/UART_2.c ****     *  remained in the RAM.
1391:.\Generated_Source\PSoC5/UART_2.c ****     *
1392:.\Generated_Source\PSoC5/UART_2.c ****     * Side Effects:
1393:.\Generated_Source\PSoC5/UART_2.c ****     *  Any received data not read from the RAM buffer will be lost when overwritten.
ARM GAS  C:\Users\Owner\AppData\Local\Temp\cczyEAfi.s 			page 46


1394:.\Generated_Source\PSoC5/UART_2.c ****     *
1395:.\Generated_Source\PSoC5/UART_2.c ****     *******************************************************************************/
1396:.\Generated_Source\PSoC5/UART_2.c ****     void UART_2_ClearTxBuffer(void) 
1397:.\Generated_Source\PSoC5/UART_2.c ****     {
 1171              		.loc 1 1397 0
 1172              		.cfi_startproc
 1173              		@ args = 0, pretend = 0, frame = 8
 1174              		@ frame_needed = 1, uses_anonymous_args = 0
 1175 0000 80B5     		push	{r7, lr}
 1176              		.cfi_def_cfa_offset 8
 1177              		.cfi_offset 7, -8
 1178              		.cfi_offset 14, -4
 1179 0002 82B0     		sub	sp, sp, #8
 1180              		.cfi_def_cfa_offset 16
 1181 0004 00AF     		add	r7, sp, #0
 1182              		.cfi_def_cfa_register 7
1398:.\Generated_Source\PSoC5/UART_2.c ****         uint8 enableInterrupts;
1399:.\Generated_Source\PSoC5/UART_2.c **** 
1400:.\Generated_Source\PSoC5/UART_2.c ****         /* Enter critical section */
1401:.\Generated_Source\PSoC5/UART_2.c ****         enableInterrupts = CyEnterCriticalSection();
 1183              		.loc 1 1401 0
 1184 0006 FFF7FEFF 		bl	CyEnterCriticalSection
 1185 000a 0346     		mov	r3, r0
 1186 000c FB71     		strb	r3, [r7, #7]
1402:.\Generated_Source\PSoC5/UART_2.c ****         /* clear the HW FIFO */
1403:.\Generated_Source\PSoC5/UART_2.c ****         UART_2_TXDATA_AUX_CTL_REG |=  UART_2_TX_FIFO_CLR;
 1187              		.loc 1 1403 0
 1188 000e 0B4B     		ldr	r3, .L89
 1189 0010 0A4A     		ldr	r2, .L89
 1190 0012 1278     		ldrb	r2, [r2]
 1191 0014 D2B2     		uxtb	r2, r2
 1192 0016 42F00102 		orr	r2, r2, #1
 1193 001a D2B2     		uxtb	r2, r2
 1194 001c 1A70     		strb	r2, [r3]
1404:.\Generated_Source\PSoC5/UART_2.c ****         UART_2_TXDATA_AUX_CTL_REG &= (uint8)~UART_2_TX_FIFO_CLR;
 1195              		.loc 1 1404 0
 1196 001e 074B     		ldr	r3, .L89
 1197 0020 064A     		ldr	r2, .L89
 1198 0022 1278     		ldrb	r2, [r2]
 1199 0024 D2B2     		uxtb	r2, r2
 1200 0026 22F00102 		bic	r2, r2, #1
 1201 002a D2B2     		uxtb	r2, r2
 1202 002c 1A70     		strb	r2, [r3]
1405:.\Generated_Source\PSoC5/UART_2.c ****         /* Exit critical section */
1406:.\Generated_Source\PSoC5/UART_2.c ****         CyExitCriticalSection(enableInterrupts);
 1203              		.loc 1 1406 0
 1204 002e FB79     		ldrb	r3, [r7, #7]	@ zero_extendqisi2
 1205 0030 1846     		mov	r0, r3
 1206 0032 FFF7FEFF 		bl	CyExitCriticalSection
1407:.\Generated_Source\PSoC5/UART_2.c **** 
1408:.\Generated_Source\PSoC5/UART_2.c ****         #if(UART_2_TXBUFFERSIZE > UART_2_FIFO_LENGTH)
1409:.\Generated_Source\PSoC5/UART_2.c **** 
1410:.\Generated_Source\PSoC5/UART_2.c ****             /* Disable Tx interrupt. */
1411:.\Generated_Source\PSoC5/UART_2.c ****             /* Protect variables that could change on interrupt. */
1412:.\Generated_Source\PSoC5/UART_2.c ****             #if(UART_2_TX_INTERRUPT_ENABLED)
1413:.\Generated_Source\PSoC5/UART_2.c ****                 UART_2_DisableTxInt();
1414:.\Generated_Source\PSoC5/UART_2.c ****             #endif /* End UART_2_TX_INTERRUPT_ENABLED */
ARM GAS  C:\Users\Owner\AppData\Local\Temp\cczyEAfi.s 			page 47


1415:.\Generated_Source\PSoC5/UART_2.c **** 
1416:.\Generated_Source\PSoC5/UART_2.c ****             UART_2_txBufferRead = 0u;
1417:.\Generated_Source\PSoC5/UART_2.c ****             UART_2_txBufferWrite = 0u;
1418:.\Generated_Source\PSoC5/UART_2.c **** 
1419:.\Generated_Source\PSoC5/UART_2.c ****             /* Enable Tx interrupt. */
1420:.\Generated_Source\PSoC5/UART_2.c ****             #if(UART_2_TX_INTERRUPT_ENABLED)
1421:.\Generated_Source\PSoC5/UART_2.c ****                 UART_2_EnableTxInt();
1422:.\Generated_Source\PSoC5/UART_2.c ****             #endif /* End UART_2_TX_INTERRUPT_ENABLED */
1423:.\Generated_Source\PSoC5/UART_2.c **** 
1424:.\Generated_Source\PSoC5/UART_2.c ****         #endif /* End UART_2_TXBUFFERSIZE > UART_2_FIFO_LENGTH */
1425:.\Generated_Source\PSoC5/UART_2.c ****     }
 1207              		.loc 1 1425 0
 1208 0036 0837     		adds	r7, r7, #8
 1209 0038 BD46     		mov	sp, r7
 1210              		@ sp needed
 1211 003a 80BD     		pop	{r7, pc}
 1212              	.L90:
 1213              		.align	2
 1214              	.L89:
 1215 003c 97650040 		.word	1073767831
 1216              		.cfi_endproc
 1217              	.LFE24:
 1218              		.size	UART_2_ClearTxBuffer, .-UART_2_ClearTxBuffer
 1219              		.section	.text.UART_2_SendBreak,"ax",%progbits
 1220              		.align	2
 1221              		.global	UART_2_SendBreak
 1222              		.thumb
 1223              		.thumb_func
 1224              		.type	UART_2_SendBreak, %function
 1225              	UART_2_SendBreak:
 1226              	.LFB25:
1426:.\Generated_Source\PSoC5/UART_2.c **** 
1427:.\Generated_Source\PSoC5/UART_2.c **** 
1428:.\Generated_Source\PSoC5/UART_2.c ****     /*******************************************************************************
1429:.\Generated_Source\PSoC5/UART_2.c ****     * Function Name: UART_2_SendBreak
1430:.\Generated_Source\PSoC5/UART_2.c ****     ********************************************************************************
1431:.\Generated_Source\PSoC5/UART_2.c ****     *
1432:.\Generated_Source\PSoC5/UART_2.c ****     * Summary:
1433:.\Generated_Source\PSoC5/UART_2.c ****     *  Write a Break command to the UART
1434:.\Generated_Source\PSoC5/UART_2.c ****     *
1435:.\Generated_Source\PSoC5/UART_2.c ****     * Parameters:
1436:.\Generated_Source\PSoC5/UART_2.c ****     *  uint8 retMode:  Wait mode,
1437:.\Generated_Source\PSoC5/UART_2.c ****     *   0 - Initialize registers for Break, sends the Break signal and return
1438:.\Generated_Source\PSoC5/UART_2.c ****     *       imediately.
1439:.\Generated_Source\PSoC5/UART_2.c ****     *   1 - Wait until Break sending is complete, reinitialize registers to normal
1440:.\Generated_Source\PSoC5/UART_2.c ****     *       transmission mode then return.
1441:.\Generated_Source\PSoC5/UART_2.c ****     *   2 - Reinitialize registers to normal transmission mode then return.
1442:.\Generated_Source\PSoC5/UART_2.c ****     *   3 - both steps: 0 and 1
1443:.\Generated_Source\PSoC5/UART_2.c ****     *       init registers for Break, send Break signal
1444:.\Generated_Source\PSoC5/UART_2.c ****     *       wait until Break sending is complete, reinit registers to normal
1445:.\Generated_Source\PSoC5/UART_2.c ****     *       transmission mode then return.
1446:.\Generated_Source\PSoC5/UART_2.c ****     *
1447:.\Generated_Source\PSoC5/UART_2.c ****     * Return:
1448:.\Generated_Source\PSoC5/UART_2.c ****     *  None.
1449:.\Generated_Source\PSoC5/UART_2.c ****     *
1450:.\Generated_Source\PSoC5/UART_2.c ****     * Global Variables:
1451:.\Generated_Source\PSoC5/UART_2.c ****     *  UART_2_initVar - checked to identify that the component has been
ARM GAS  C:\Users\Owner\AppData\Local\Temp\cczyEAfi.s 			page 48


1452:.\Generated_Source\PSoC5/UART_2.c ****     *     initialized.
1453:.\Generated_Source\PSoC5/UART_2.c ****     *  tx_period - static variable, used for keeping TX period configuration.
1454:.\Generated_Source\PSoC5/UART_2.c ****     *
1455:.\Generated_Source\PSoC5/UART_2.c ****     * Reentrant:
1456:.\Generated_Source\PSoC5/UART_2.c ****     *  No.
1457:.\Generated_Source\PSoC5/UART_2.c ****     *
1458:.\Generated_Source\PSoC5/UART_2.c ****     * Theory:
1459:.\Generated_Source\PSoC5/UART_2.c ****     *  SendBreak function initializes registers to send 13-bit break signal. It is
1460:.\Generated_Source\PSoC5/UART_2.c ****     *  important to return the registers configuration to normal for continue 8-bit
1461:.\Generated_Source\PSoC5/UART_2.c ****     *  operation.
1462:.\Generated_Source\PSoC5/UART_2.c ****     *  Trere are 3 variants for this API usage:
1463:.\Generated_Source\PSoC5/UART_2.c ****     *  1) SendBreak(3) - function will send the Break signal and take care on the
1464:.\Generated_Source\PSoC5/UART_2.c ****     *     configuration returning. Funcition will block CPU untill transmition
1465:.\Generated_Source\PSoC5/UART_2.c ****     *     complete.
1466:.\Generated_Source\PSoC5/UART_2.c ****     *  2) User may want to use bloking time if UART configured to the low speed
1467:.\Generated_Source\PSoC5/UART_2.c ****     *     operation
1468:.\Generated_Source\PSoC5/UART_2.c ****     *     Emample for this case:
1469:.\Generated_Source\PSoC5/UART_2.c ****     *     SendBreak(0);     - init Break signal transmition
1470:.\Generated_Source\PSoC5/UART_2.c ****     *         Add your code here to use CPU time
1471:.\Generated_Source\PSoC5/UART_2.c ****     *     SendBreak(1);     - complete Break operation
1472:.\Generated_Source\PSoC5/UART_2.c ****     *  3) Same to 2) but user may want to init and use the interrupt for complete
1473:.\Generated_Source\PSoC5/UART_2.c ****     *     break operation.
1474:.\Generated_Source\PSoC5/UART_2.c ****     *     Example for this case:
1475:.\Generated_Source\PSoC5/UART_2.c ****     *     Init TX interrupt whith "TX - On TX Complete" parameter
1476:.\Generated_Source\PSoC5/UART_2.c ****     *     SendBreak(0);     - init Break signal transmition
1477:.\Generated_Source\PSoC5/UART_2.c ****     *         Add your code here to use CPU time
1478:.\Generated_Source\PSoC5/UART_2.c ****     *     When interrupt appear with UART_TX_STS_COMPLETE status:
1479:.\Generated_Source\PSoC5/UART_2.c ****     *     SendBreak(2);     - complete Break operation
1480:.\Generated_Source\PSoC5/UART_2.c ****     *
1481:.\Generated_Source\PSoC5/UART_2.c ****     * Side Effects:
1482:.\Generated_Source\PSoC5/UART_2.c ****     *   Uses static variable to keep registers configuration.
1483:.\Generated_Source\PSoC5/UART_2.c ****     *
1484:.\Generated_Source\PSoC5/UART_2.c ****     *******************************************************************************/
1485:.\Generated_Source\PSoC5/UART_2.c ****     void UART_2_SendBreak(uint8 retMode) 
1486:.\Generated_Source\PSoC5/UART_2.c ****     {
 1227              		.loc 1 1486 0
 1228              		.cfi_startproc
 1229              		@ args = 0, pretend = 0, frame = 16
 1230              		@ frame_needed = 1, uses_anonymous_args = 0
 1231              		@ link register save eliminated.
 1232 0000 80B4     		push	{r7}
 1233              		.cfi_def_cfa_offset 4
 1234              		.cfi_offset 7, -4
 1235 0002 85B0     		sub	sp, sp, #20
 1236              		.cfi_def_cfa_offset 24
 1237 0004 00AF     		add	r7, sp, #0
 1238              		.cfi_def_cfa_register 7
 1239 0006 0346     		mov	r3, r0
 1240 0008 FB71     		strb	r3, [r7, #7]
1487:.\Generated_Source\PSoC5/UART_2.c **** 
1488:.\Generated_Source\PSoC5/UART_2.c ****         /* If not Initialized then skip this function*/
1489:.\Generated_Source\PSoC5/UART_2.c ****         if(UART_2_initVar != 0u)
 1241              		.loc 1 1489 0
 1242 000a 1F4B     		ldr	r3, .L99
 1243 000c 1B78     		ldrb	r3, [r3]	@ zero_extendqisi2
 1244 000e 002B     		cmp	r3, #0
 1245 0010 35D0     		beq	.L91
ARM GAS  C:\Users\Owner\AppData\Local\Temp\cczyEAfi.s 			page 49


 1246              	.LBB2:
1490:.\Generated_Source\PSoC5/UART_2.c ****         {
1491:.\Generated_Source\PSoC5/UART_2.c ****             /*Set the Counter to 13-bits and transmit a 00 byte*/
1492:.\Generated_Source\PSoC5/UART_2.c ****             /*When that is done then reset the counter value back*/
1493:.\Generated_Source\PSoC5/UART_2.c ****             uint8 tmpStat;
1494:.\Generated_Source\PSoC5/UART_2.c **** 
1495:.\Generated_Source\PSoC5/UART_2.c ****             #if(UART_2_HD_ENABLED) /* Half Duplex mode*/
1496:.\Generated_Source\PSoC5/UART_2.c **** 
1497:.\Generated_Source\PSoC5/UART_2.c ****                 if( (retMode == UART_2_SEND_BREAK) ||
1498:.\Generated_Source\PSoC5/UART_2.c ****                     (retMode == UART_2_SEND_WAIT_REINIT ) )
1499:.\Generated_Source\PSoC5/UART_2.c ****                 {
1500:.\Generated_Source\PSoC5/UART_2.c ****                     /* CTRL_HD_SEND_BREAK - sends break bits in HD mode*/
1501:.\Generated_Source\PSoC5/UART_2.c ****                     UART_2_WriteControlRegister(UART_2_ReadControlRegister() |
1502:.\Generated_Source\PSoC5/UART_2.c ****                                                           UART_2_CTRL_HD_SEND_BREAK);
1503:.\Generated_Source\PSoC5/UART_2.c ****                     /* Send zeros*/
1504:.\Generated_Source\PSoC5/UART_2.c ****                     UART_2_TXDATA_REG = 0u;
1505:.\Generated_Source\PSoC5/UART_2.c **** 
1506:.\Generated_Source\PSoC5/UART_2.c ****                     do /*wait until transmit starts*/
1507:.\Generated_Source\PSoC5/UART_2.c ****                     {
1508:.\Generated_Source\PSoC5/UART_2.c ****                         tmpStat = UART_2_TXSTATUS_REG;
1509:.\Generated_Source\PSoC5/UART_2.c ****                     }while((tmpStat & UART_2_TX_STS_FIFO_EMPTY) != 0u);
1510:.\Generated_Source\PSoC5/UART_2.c ****                 }
1511:.\Generated_Source\PSoC5/UART_2.c **** 
1512:.\Generated_Source\PSoC5/UART_2.c ****                 if( (retMode == UART_2_WAIT_FOR_COMPLETE_REINIT) ||
1513:.\Generated_Source\PSoC5/UART_2.c ****                     (retMode == UART_2_SEND_WAIT_REINIT) )
1514:.\Generated_Source\PSoC5/UART_2.c ****                 {
1515:.\Generated_Source\PSoC5/UART_2.c ****                     do /*wait until transmit complete*/
1516:.\Generated_Source\PSoC5/UART_2.c ****                     {
1517:.\Generated_Source\PSoC5/UART_2.c ****                         tmpStat = UART_2_TXSTATUS_REG;
1518:.\Generated_Source\PSoC5/UART_2.c ****                     }while(((uint8)~tmpStat & UART_2_TX_STS_COMPLETE) != 0u);
1519:.\Generated_Source\PSoC5/UART_2.c ****                 }
1520:.\Generated_Source\PSoC5/UART_2.c **** 
1521:.\Generated_Source\PSoC5/UART_2.c ****                 if( (retMode == UART_2_WAIT_FOR_COMPLETE_REINIT) ||
1522:.\Generated_Source\PSoC5/UART_2.c ****                     (retMode == UART_2_REINIT) ||
1523:.\Generated_Source\PSoC5/UART_2.c ****                     (retMode == UART_2_SEND_WAIT_REINIT) )
1524:.\Generated_Source\PSoC5/UART_2.c ****                 {
1525:.\Generated_Source\PSoC5/UART_2.c ****                     UART_2_WriteControlRegister(UART_2_ReadControlRegister() &
1526:.\Generated_Source\PSoC5/UART_2.c ****                                                   (uint8)~UART_2_CTRL_HD_SEND_BREAK);
1527:.\Generated_Source\PSoC5/UART_2.c ****                 }
1528:.\Generated_Source\PSoC5/UART_2.c **** 
1529:.\Generated_Source\PSoC5/UART_2.c ****             #else /* UART_2_HD_ENABLED Full Duplex mode */
1530:.\Generated_Source\PSoC5/UART_2.c **** 
1531:.\Generated_Source\PSoC5/UART_2.c ****                 static uint8 tx_period;
1532:.\Generated_Source\PSoC5/UART_2.c **** 
1533:.\Generated_Source\PSoC5/UART_2.c ****                 if( (retMode == UART_2_SEND_BREAK) ||
 1247              		.loc 1 1533 0
 1248 0012 FB79     		ldrb	r3, [r7, #7]	@ zero_extendqisi2
 1249 0014 002B     		cmp	r3, #0
 1250 0016 02D0     		beq	.L93
 1251              		.loc 1 1533 0 is_stmt 0 discriminator 1
 1252 0018 FB79     		ldrb	r3, [r7, #7]	@ zero_extendqisi2
 1253 001a 032B     		cmp	r3, #3
 1254 001c 12D1     		bne	.L94
 1255              	.L93:
1534:.\Generated_Source\PSoC5/UART_2.c ****                     (retMode == UART_2_SEND_WAIT_REINIT) )
1535:.\Generated_Source\PSoC5/UART_2.c ****                 {
1536:.\Generated_Source\PSoC5/UART_2.c ****                     /* CTRL_HD_SEND_BREAK - skip to send parity bit at Break signal in Full Duplex 
ARM GAS  C:\Users\Owner\AppData\Local\Temp\cczyEAfi.s 			page 50


1537:.\Generated_Source\PSoC5/UART_2.c ****                     #if( (UART_2_PARITY_TYPE != UART_2__B_UART__NONE_REVB) || \
1538:.\Generated_Source\PSoC5/UART_2.c ****                                         (UART_2_PARITY_TYPE_SW != 0u) )
1539:.\Generated_Source\PSoC5/UART_2.c ****                         UART_2_WriteControlRegister(UART_2_ReadControlRegister() |
1540:.\Generated_Source\PSoC5/UART_2.c ****                                                               UART_2_CTRL_HD_SEND_BREAK);
1541:.\Generated_Source\PSoC5/UART_2.c ****                     #endif /* End UART_2_PARITY_TYPE != UART_2__B_UART__NONE_REVB  */
1542:.\Generated_Source\PSoC5/UART_2.c **** 
1543:.\Generated_Source\PSoC5/UART_2.c ****                     #if(UART_2_TXCLKGEN_DP)
1544:.\Generated_Source\PSoC5/UART_2.c ****                         tx_period = UART_2_TXBITCLKTX_COMPLETE_REG;
 1256              		.loc 1 1544 0 is_stmt 1
 1257 001e 1B4B     		ldr	r3, .L99+4
 1258 0020 1B78     		ldrb	r3, [r3]
 1259 0022 DAB2     		uxtb	r2, r3
 1260 0024 1A4B     		ldr	r3, .L99+8
 1261 0026 1A70     		strb	r2, [r3]
1545:.\Generated_Source\PSoC5/UART_2.c ****                         UART_2_TXBITCLKTX_COMPLETE_REG = UART_2_TXBITCTR_BREAKBITS;
 1262              		.loc 1 1545 0
 1263 0028 184B     		ldr	r3, .L99+4
 1264 002a 6722     		movs	r2, #103
 1265 002c 1A70     		strb	r2, [r3]
1546:.\Generated_Source\PSoC5/UART_2.c ****                     #else
1547:.\Generated_Source\PSoC5/UART_2.c ****                         tx_period = UART_2_TXBITCTR_PERIOD_REG;
1548:.\Generated_Source\PSoC5/UART_2.c ****                         UART_2_TXBITCTR_PERIOD_REG = UART_2_TXBITCTR_BREAKBITS8X;
1549:.\Generated_Source\PSoC5/UART_2.c ****                     #endif /* End UART_2_TXCLKGEN_DP */
1550:.\Generated_Source\PSoC5/UART_2.c **** 
1551:.\Generated_Source\PSoC5/UART_2.c ****                     /* Send zeros*/
1552:.\Generated_Source\PSoC5/UART_2.c ****                     UART_2_TXDATA_REG = 0u;
 1266              		.loc 1 1552 0
 1267 002e 194B     		ldr	r3, .L99+12
 1268 0030 0022     		movs	r2, #0
 1269 0032 1A70     		strb	r2, [r3]
 1270              	.L95:
1553:.\Generated_Source\PSoC5/UART_2.c **** 
1554:.\Generated_Source\PSoC5/UART_2.c ****                     do /* wait until transmit starts */
1555:.\Generated_Source\PSoC5/UART_2.c ****                     {
1556:.\Generated_Source\PSoC5/UART_2.c ****                         tmpStat = UART_2_TXSTATUS_REG;
 1271              		.loc 1 1556 0 discriminator 1
 1272 0034 184B     		ldr	r3, .L99+16
 1273 0036 1B78     		ldrb	r3, [r3]
 1274 0038 FB73     		strb	r3, [r7, #15]
1557:.\Generated_Source\PSoC5/UART_2.c ****                     }while((tmpStat & UART_2_TX_STS_FIFO_EMPTY) != 0u);
 1275              		.loc 1 1557 0 discriminator 1
 1276 003a FB7B     		ldrb	r3, [r7, #15]	@ zero_extendqisi2
 1277 003c 03F00203 		and	r3, r3, #2
 1278 0040 002B     		cmp	r3, #0
 1279 0042 F7D1     		bne	.L95
 1280              	.L94:
1558:.\Generated_Source\PSoC5/UART_2.c ****                 }
1559:.\Generated_Source\PSoC5/UART_2.c **** 
1560:.\Generated_Source\PSoC5/UART_2.c ****                 if( (retMode == UART_2_WAIT_FOR_COMPLETE_REINIT) ||
 1281              		.loc 1 1560 0
 1282 0044 FB79     		ldrb	r3, [r7, #7]	@ zero_extendqisi2
 1283 0046 012B     		cmp	r3, #1
 1284 0048 02D0     		beq	.L96
 1285              		.loc 1 1560 0 is_stmt 0 discriminator 1
 1286 004a FB79     		ldrb	r3, [r7, #7]	@ zero_extendqisi2
 1287 004c 032B     		cmp	r3, #3
 1288 004e 09D1     		bne	.L97
ARM GAS  C:\Users\Owner\AppData\Local\Temp\cczyEAfi.s 			page 51


 1289              	.L96:
1561:.\Generated_Source\PSoC5/UART_2.c ****                     (retMode == UART_2_SEND_WAIT_REINIT) )
1562:.\Generated_Source\PSoC5/UART_2.c ****                 {
1563:.\Generated_Source\PSoC5/UART_2.c ****                     do /*wait until transmit complete*/
1564:.\Generated_Source\PSoC5/UART_2.c ****                     {
1565:.\Generated_Source\PSoC5/UART_2.c ****                         tmpStat = UART_2_TXSTATUS_REG;
 1290              		.loc 1 1565 0 is_stmt 1 discriminator 1
 1291 0050 114B     		ldr	r3, .L99+16
 1292 0052 1B78     		ldrb	r3, [r3]
 1293 0054 FB73     		strb	r3, [r7, #15]
1566:.\Generated_Source\PSoC5/UART_2.c ****                     }while(((uint8)~tmpStat & UART_2_TX_STS_COMPLETE) != 0u);
 1294              		.loc 1 1566 0 discriminator 1
 1295 0056 FB7B     		ldrb	r3, [r7, #15]
 1296 0058 DB43     		mvns	r3, r3
 1297 005a DBB2     		uxtb	r3, r3
 1298 005c 03F00103 		and	r3, r3, #1
 1299 0060 002B     		cmp	r3, #0
 1300 0062 F5D1     		bne	.L96
 1301              	.L97:
1567:.\Generated_Source\PSoC5/UART_2.c ****                 }
1568:.\Generated_Source\PSoC5/UART_2.c **** 
1569:.\Generated_Source\PSoC5/UART_2.c ****                 if( (retMode == UART_2_WAIT_FOR_COMPLETE_REINIT) ||
 1302              		.loc 1 1569 0
 1303 0064 FB79     		ldrb	r3, [r7, #7]	@ zero_extendqisi2
 1304 0066 012B     		cmp	r3, #1
 1305 0068 05D0     		beq	.L98
 1306              		.loc 1 1569 0 is_stmt 0 discriminator 1
 1307 006a FB79     		ldrb	r3, [r7, #7]	@ zero_extendqisi2
 1308 006c 022B     		cmp	r3, #2
 1309 006e 02D0     		beq	.L98
1570:.\Generated_Source\PSoC5/UART_2.c ****                     (retMode == UART_2_REINIT) ||
 1310              		.loc 1 1570 0 is_stmt 1
 1311 0070 FB79     		ldrb	r3, [r7, #7]	@ zero_extendqisi2
 1312 0072 032B     		cmp	r3, #3
 1313 0074 03D1     		bne	.L91
 1314              	.L98:
1571:.\Generated_Source\PSoC5/UART_2.c ****                     (retMode == UART_2_SEND_WAIT_REINIT) )
1572:.\Generated_Source\PSoC5/UART_2.c ****                 {
1573:.\Generated_Source\PSoC5/UART_2.c **** 
1574:.\Generated_Source\PSoC5/UART_2.c ****                     #if(UART_2_TXCLKGEN_DP)
1575:.\Generated_Source\PSoC5/UART_2.c ****                         UART_2_TXBITCLKTX_COMPLETE_REG = tx_period;
 1315              		.loc 1 1575 0
 1316 0076 054B     		ldr	r3, .L99+4
 1317 0078 054A     		ldr	r2, .L99+8
 1318 007a 1278     		ldrb	r2, [r2]	@ zero_extendqisi2
 1319 007c 1A70     		strb	r2, [r3]
 1320              	.L91:
 1321              	.LBE2:
1576:.\Generated_Source\PSoC5/UART_2.c ****                     #else
1577:.\Generated_Source\PSoC5/UART_2.c ****                         UART_2_TXBITCTR_PERIOD_REG = tx_period;
1578:.\Generated_Source\PSoC5/UART_2.c ****                     #endif /* End UART_2_TXCLKGEN_DP */
1579:.\Generated_Source\PSoC5/UART_2.c **** 
1580:.\Generated_Source\PSoC5/UART_2.c ****                     #if( (UART_2_PARITY_TYPE != UART_2__B_UART__NONE_REVB) || \
1581:.\Generated_Source\PSoC5/UART_2.c ****                          (UART_2_PARITY_TYPE_SW != 0u) )
1582:.\Generated_Source\PSoC5/UART_2.c ****                         UART_2_WriteControlRegister(UART_2_ReadControlRegister() &
1583:.\Generated_Source\PSoC5/UART_2.c ****                                                       (uint8)~UART_2_CTRL_HD_SEND_BREAK);
1584:.\Generated_Source\PSoC5/UART_2.c ****                     #endif /* End UART_2_PARITY_TYPE != NONE */
ARM GAS  C:\Users\Owner\AppData\Local\Temp\cczyEAfi.s 			page 52


1585:.\Generated_Source\PSoC5/UART_2.c ****                 }
1586:.\Generated_Source\PSoC5/UART_2.c ****             #endif    /* End UART_2_HD_ENABLED */
1587:.\Generated_Source\PSoC5/UART_2.c ****         }
1588:.\Generated_Source\PSoC5/UART_2.c ****     }
 1322              		.loc 1 1588 0
 1323 007e 1437     		adds	r7, r7, #20
 1324 0080 BD46     		mov	sp, r7
 1325              		@ sp needed
 1326 0082 5DF8047B 		ldr	r7, [sp], #4
 1327 0086 7047     		bx	lr
 1328              	.L100:
 1329              		.align	2
 1330              	.L99:
 1331 0088 00000000 		.word	UART_2_initVar
 1332 008c 36650040 		.word	1073767734
 1333 0090 01000000 		.word	tx_period.4949
 1334 0094 47650040 		.word	1073767751
 1335 0098 67650040 		.word	1073767783
 1336              		.cfi_endproc
 1337              	.LFE25:
 1338              		.size	UART_2_SendBreak, .-UART_2_SendBreak
 1339              		.section	.text.UART_2_SetTxAddressMode,"ax",%progbits
 1340              		.align	2
 1341              		.global	UART_2_SetTxAddressMode
 1342              		.thumb
 1343              		.thumb_func
 1344              		.type	UART_2_SetTxAddressMode, %function
 1345              	UART_2_SetTxAddressMode:
 1346              	.LFB26:
1589:.\Generated_Source\PSoC5/UART_2.c **** 
1590:.\Generated_Source\PSoC5/UART_2.c **** 
1591:.\Generated_Source\PSoC5/UART_2.c ****     /*******************************************************************************
1592:.\Generated_Source\PSoC5/UART_2.c ****     * Function Name: UART_2_SetTxAddressMode
1593:.\Generated_Source\PSoC5/UART_2.c ****     ********************************************************************************
1594:.\Generated_Source\PSoC5/UART_2.c ****     *
1595:.\Generated_Source\PSoC5/UART_2.c ****     * Summary:
1596:.\Generated_Source\PSoC5/UART_2.c ****     *  Set the transmit addressing mode
1597:.\Generated_Source\PSoC5/UART_2.c ****     *
1598:.\Generated_Source\PSoC5/UART_2.c ****     * Parameters:
1599:.\Generated_Source\PSoC5/UART_2.c ****     *  addressMode: 0 -> Space
1600:.\Generated_Source\PSoC5/UART_2.c ****     *               1 -> Mark
1601:.\Generated_Source\PSoC5/UART_2.c ****     *
1602:.\Generated_Source\PSoC5/UART_2.c ****     * Return:
1603:.\Generated_Source\PSoC5/UART_2.c ****     *  None.
1604:.\Generated_Source\PSoC5/UART_2.c ****     *
1605:.\Generated_Source\PSoC5/UART_2.c ****     *******************************************************************************/
1606:.\Generated_Source\PSoC5/UART_2.c ****     void UART_2_SetTxAddressMode(uint8 addressMode) 
1607:.\Generated_Source\PSoC5/UART_2.c ****     {
 1347              		.loc 1 1607 0
 1348              		.cfi_startproc
 1349              		@ args = 0, pretend = 0, frame = 8
 1350              		@ frame_needed = 1, uses_anonymous_args = 0
 1351              		@ link register save eliminated.
 1352 0000 80B4     		push	{r7}
 1353              		.cfi_def_cfa_offset 4
 1354              		.cfi_offset 7, -4
 1355 0002 83B0     		sub	sp, sp, #12
ARM GAS  C:\Users\Owner\AppData\Local\Temp\cczyEAfi.s 			page 53


 1356              		.cfi_def_cfa_offset 16
 1357 0004 00AF     		add	r7, sp, #0
 1358              		.cfi_def_cfa_register 7
 1359 0006 0346     		mov	r3, r0
 1360 0008 FB71     		strb	r3, [r7, #7]
1608:.\Generated_Source\PSoC5/UART_2.c ****         /* Mark/Space sending enable*/
1609:.\Generated_Source\PSoC5/UART_2.c ****         if(addressMode != 0u)
1610:.\Generated_Source\PSoC5/UART_2.c ****         {
1611:.\Generated_Source\PSoC5/UART_2.c ****             #if( UART_2_CONTROL_REG_REMOVED == 0u )
1612:.\Generated_Source\PSoC5/UART_2.c ****                 UART_2_WriteControlRegister(UART_2_ReadControlRegister() |
1613:.\Generated_Source\PSoC5/UART_2.c ****                                                       UART_2_CTRL_MARK);
1614:.\Generated_Source\PSoC5/UART_2.c ****             #endif /* End UART_2_CONTROL_REG_REMOVED == 0u */
1615:.\Generated_Source\PSoC5/UART_2.c ****         }
1616:.\Generated_Source\PSoC5/UART_2.c ****         else
1617:.\Generated_Source\PSoC5/UART_2.c ****         {
1618:.\Generated_Source\PSoC5/UART_2.c ****             #if( UART_2_CONTROL_REG_REMOVED == 0u )
1619:.\Generated_Source\PSoC5/UART_2.c ****                 UART_2_WriteControlRegister(UART_2_ReadControlRegister() &
1620:.\Generated_Source\PSoC5/UART_2.c ****                                                     (uint8)~UART_2_CTRL_MARK);
1621:.\Generated_Source\PSoC5/UART_2.c ****             #endif /* End UART_2_CONTROL_REG_REMOVED == 0u */
1622:.\Generated_Source\PSoC5/UART_2.c ****         }
1623:.\Generated_Source\PSoC5/UART_2.c ****     }
 1361              		.loc 1 1623 0
 1362 000a 0C37     		adds	r7, r7, #12
 1363 000c BD46     		mov	sp, r7
 1364              		@ sp needed
 1365 000e 5DF8047B 		ldr	r7, [sp], #4
 1366 0012 7047     		bx	lr
 1367              		.cfi_endproc
 1368              	.LFE26:
 1369              		.size	UART_2_SetTxAddressMode, .-UART_2_SetTxAddressMode
 1370              		.bss
 1371              	tx_period.4949:
 1372 0001 00       		.space	1
 1373              		.text
 1374              	.Letext0:
 1375              		.file 2 ".\\Generated_Source\\PSoC5\\cytypes.h"