ARM GAS  C:\Users\Owner\AppData\Local\Temp\ccxJF51h.s 			page 1


   1              		.syntax unified
   2              		.cpu cortex-m3
   3              		.fpu softvfp
   4              		.eabi_attribute 20, 1
   5              		.eabi_attribute 21, 1
   6              		.eabi_attribute 23, 3
   7              		.eabi_attribute 24, 1
   8              		.eabi_attribute 25, 1
   9              		.eabi_attribute 26, 1
  10              		.eabi_attribute 30, 6
  11              		.eabi_attribute 34, 1
  12              		.eabi_attribute 18, 4
  13              		.thumb
  14              		.file	"main.c"
  15              		.text
  16              	.Ltext0:
  17              		.cfi_sections	.debug_frame
  18              		.comm	rec,1,1
  19              		.global	get
  20              		.data
  21              		.align	2
  22              		.type	get, %object
  23              		.size	get, 4
  24              	get:
  25 0000 56       		.byte	86
  26 0001 00       		.byte	0
  27 0002 11       		.byte	17
  28 0003 00       		.byte	0
  29              		.global	reset_camera
  30              		.align	2
  31              		.type	reset_camera, %object
  32              		.size	reset_camera, 4
  33              	reset_camera:
  34 0004 56       		.byte	86
  35 0005 00       		.byte	0
  36 0006 26       		.byte	38
  37 0007 00       		.byte	0
  38              		.global	baurate
  39              		.align	2
  40              		.type	baurate, %object
  41              		.size	baurate, 7
  42              	baurate:
  43 0008 56       		.byte	86
  44 0009 00       		.byte	0
  45 000a 24       		.byte	36
  46 000b 16       		.byte	22
  47 000c 01       		.byte	1
  48 000d 2A       		.byte	42
  49 000e F2       		.byte	-14
  50              		.global	config_datasize
  51 000f 00       		.align	2
  52              		.type	config_datasize, %object
  53              		.size	config_datasize, 9
  54              	config_datasize:
  55 0010 56       		.byte	86
  56 0011 00       		.byte	0
  57 0012 31       		.byte	49
ARM GAS  C:\Users\Owner\AppData\Local\Temp\ccxJF51h.s 			page 2


  58 0013 05       		.byte	5
  59 0014 04       		.byte	4
  60 0015 01       		.byte	1
  61 0016 00       		.byte	0
  62 0017 19       		.byte	25
  63 0018 00       		.byte	0
  64              		.global	take_picture
  65 0019 000000   		.align	2
  66              		.type	take_picture, %object
  67              		.size	take_picture, 5
  68              	take_picture:
  69 001c 56       		.byte	86
  70 001d 00       		.byte	0
  71 001e 36       		.byte	54
  72 001f 01       		.byte	1
  73 0020 00       		.byte	0
  74              		.global	read_datasize
  75 0021 000000   		.align	2
  76              		.type	read_datasize, %object
  77              		.size	read_datasize, 5
  78              	read_datasize:
  79 0024 56       		.byte	86
  80 0025 00       		.byte	0
  81 0026 34       		.byte	52
  82 0027 01       		.byte	1
  83 0028 00       		.byte	0
  84              		.global	gashitsu
  85 0029 000000   		.align	2
  86              		.type	gashitsu, %object
  87              		.size	gashitsu, 9
  88              	gashitsu:
  89 002c 56       		.byte	86
  90 002d 00       		.byte	0
  91 002e 31       		.byte	49
  92 002f 05       		.byte	5
  93 0030 01       		.byte	1
  94 0031 01       		.byte	1
  95 0032 12       		.byte	18
  96 0033 04       		.byte	4
  97 0034 36       		.byte	54
  98              		.global	load_data
  99 0035 000000   		.align	2
 100              		.type	load_data, %object
 101              		.size	load_data, 16
 102              	load_data:
 103 0038 56       		.byte	86
 104 0039 00       		.byte	0
 105 003a 32       		.byte	50
 106 003b 0C       		.byte	12
 107 003c 00       		.byte	0
 108 003d 0A       		.byte	10
 109 003e 00       		.byte	0
 110 003f 00       		.byte	0
 111 0040 00       		.byte	0
 112 0041 00       		.byte	0
 113 0042 00       		.byte	0
 114 0043 00       		.byte	0
ARM GAS  C:\Users\Owner\AppData\Local\Temp\ccxJF51h.s 			page 3


 115 0044 BB       		.byte	-69
 116 0045 74       		.byte	116
 117 0046 00       		.byte	0
 118 0047 FF       		.byte	-1
 119              		.section	.text.main,"ax",%progbits
 120              		.align	2
 121              		.global	main
 122              		.thumb
 123              		.thumb_func
 124              		.type	main, %function
 125              	main:
 126              	.LFB56:
 127              		.file 1 ".\\main.c"
   1:.\main.c      **** /* ========================================
   2:.\main.c      ****  *
   3:.\main.c      ****  * Copyright YOUR COMPANY, THE YEAR
   4:.\main.c      ****  * All Rights Reserved
   5:.\main.c      ****  * UNPUBLISHED, LICENSED SOFTWARE.
   6:.\main.c      ****  *
   7:.\main.c      ****  * CONFIDENTIAL AND PROPRIETARY INFORMATION
   8:.\main.c      ****  * WHICH IS THE PROPERTY OF your company.
   9:.\main.c      ****  *
  10:.\main.c      ****  * ========================================
  11:.\main.c      **** */
  12:.\main.c      **** #include <project.h>
  13:.\main.c      **** 
  14:.\main.c      **** uint8 rec;
  15:.\main.c      **** uint8 get[]             =  { 0x56, 0x00, 0x11, 0x00};
  16:.\main.c      **** uint8 reset_camera[]    =  { 0x56, 0x00, 0x26, 0x00 };
  17:.\main.c      **** uint8 baurate[]         =  { 0x56, 0x00, 0x24, 0x16, 0x01, 0x2A, 0xF2 };
  18:.\main.c      **** uint8 config_datasize[] =  { 0x56, 0x00, 0x31, 0x05, 0x04, 0x01, 0x00, 0x19, 0x00 };    //640×480
  19:.\main.c      **** uint8 take_picture[]    =  { 0x56, 0x00, 0x36, 0x01, 0x00 };
  20:.\main.c      **** uint8 read_datasize[]   =  { 0x56, 0x00, 0x34, 0x01, 0x00 };
  21:.\main.c      **** uint8 gashitsu[]        =  { 0x56, 0x00, 0x31, 0x05, 0x01, 0x01, 0x12, 0x04, 0x36 };
  22:.\main.c      **** uint8 load_data[]       =  { 0x56, 0x00, 0x32, 0x0C, 0x00, 0x0A, 0x00, 0x00, 0x00, 0x00, 0x00, 0x00
  23:.\main.c      **** 
  24:.\main.c      **** CY_ISR_PROTO(isr_tx1);
  25:.\main.c      **** CY_ISR_PROTO(isr_tx2);
  26:.\main.c      **** CY_ISR_PROTO(isr_rx1);
  27:.\main.c      **** CY_ISR_PROTO(isr_rx2);
  28:.\main.c      **** 
  29:.\main.c      **** int main()
  30:.\main.c      **** {
 128              		.loc 1 30 0
 129              		.cfi_startproc
 130              		@ args = 0, pretend = 0, frame = 0
 131              		@ frame_needed = 1, uses_anonymous_args = 0
 132 0000 80B5     		push	{r7, lr}
 133              	.LCFI0:
 134              		.cfi_def_cfa_offset 8
 135              		.cfi_offset 7, -8
 136              		.cfi_offset 14, -4
 137 0002 00AF     		add	r7, sp, #0
 138              	.LCFI1:
 139              		.cfi_def_cfa_register 7
  31:.\main.c      **** 
  32:.\main.c      **** UART_1_Start();
ARM GAS  C:\Users\Owner\AppData\Local\Temp\ccxJF51h.s 			page 4


 140              		.loc 1 32 0
 141 0004 FFF7FEFF 		bl	UART_1_Start
  33:.\main.c      **** UART_2_Start();
 142              		.loc 1 33 0
 143 0008 FFF7FEFF 		bl	UART_2_Start
  34:.\main.c      **** isr_rx1_StartEx(isr_rx1 );
 144              		.loc 1 34 0
 145 000c 40F20000 		movw	r0, #:lower16:isr_rx1
 146 0010 C0F20000 		movt	r0, #:upper16:isr_rx1
 147 0014 FFF7FEFF 		bl	isr_rx1_StartEx
  35:.\main.c      **** CyGlobalIntEnable;
 148              		.loc 1 35 0
 149              	@ 35 ".\main.c" 1
 150 0018 62B6     		CPSIE   i
 151              	@ 0 "" 2
  36:.\main.c      **** //UART_1_PutArray(reset_camera,4);
  37:.\main.c      **** CyDelay(500);
 152              		.loc 1 37 0
 153              		.thumb
 154 001a 4FF4FA70 		mov	r0, #500
 155 001e FFF7FEFF 		bl	CyDelay
  38:.\main.c      **** UART_1_PutArray(config_datasize,9);
 156              		.loc 1 38 0
 157 0022 40F20000 		movw	r0, #:lower16:config_datasize
 158 0026 C0F20000 		movt	r0, #:upper16:config_datasize
 159 002a 4FF00901 		mov	r1, #9
 160 002e FFF7FEFF 		bl	UART_1_PutArray
  39:.\main.c      **** CyDelay(300);
 161              		.loc 1 39 0
 162 0032 4FF49670 		mov	r0, #300
 163 0036 FFF7FEFF 		bl	CyDelay
  40:.\main.c      **** UART_1_PutArray(gashitsu,9);
 164              		.loc 1 40 0
 165 003a 40F20000 		movw	r0, #:lower16:gashitsu
 166 003e C0F20000 		movt	r0, #:upper16:gashitsu
 167 0042 4FF00901 		mov	r1, #9
 168 0046 FFF7FEFF 		bl	UART_1_PutArray
  41:.\main.c      **** CyDelay(300);
 169              		.loc 1 41 0
 170 004a 4FF49670 		mov	r0, #300
 171 004e FFF7FEFF 		bl	CyDelay
  42:.\main.c      **** UART_1_PutArray(take_picture,5);
 172              		.loc 1 42 0
 173 0052 40F20000 		movw	r0, #:lower16:take_picture
 174 0056 C0F20000 		movt	r0, #:upper16:take_picture
 175 005a 4FF00501 		mov	r1, #5
 176 005e FFF7FEFF 		bl	UART_1_PutArray
  43:.\main.c      **** CyDelay(300);
 177              		.loc 1 43 0
 178 0062 4FF49670 		mov	r0, #300
 179 0066 FFF7FEFF 		bl	CyDelay
  44:.\main.c      **** UART_1_PutArray(read_datasize,5);
 180              		.loc 1 44 0
 181 006a 40F20000 		movw	r0, #:lower16:read_datasize
 182 006e C0F20000 		movt	r0, #:upper16:read_datasize
 183 0072 4FF00501 		mov	r1, #5
 184 0076 FFF7FEFF 		bl	UART_1_PutArray
ARM GAS  C:\Users\Owner\AppData\Local\Temp\ccxJF51h.s 			page 5


  45:.\main.c      **** CyDelay(300);
 185              		.loc 1 45 0
 186 007a 4FF49670 		mov	r0, #300
 187 007e FFF7FEFF 		bl	CyDelay
  46:.\main.c      **** UART_1_PutArray(load_data,16);
 188              		.loc 1 46 0
 189 0082 40F20000 		movw	r0, #:lower16:load_data
 190 0086 C0F20000 		movt	r0, #:upper16:load_data
 191 008a 4FF01001 		mov	r1, #16
 192 008e FFF7FEFF 		bl	UART_1_PutArray
 193              	.L2:
  47:.\main.c      **** while(1)
  48:.\main.c      **** {}
 194              		.loc 1 48 0 discriminator 1
 195 0092 FEE7     		b	.L2
 196              		.cfi_endproc
 197              	.LFE56:
 198              		.size	main, .-main
 199              		.section	.text.isr_rx1,"ax",%progbits
 200              		.align	2
 201              		.global	isr_rx1
 202              		.thumb
 203              		.thumb_func
 204              		.type	isr_rx1, %function
 205              	isr_rx1:
 206              	.LFB57:
  49:.\main.c      **** }
  50:.\main.c      **** 
  51:.\main.c      **** 
  52:.\main.c      **** 
  53:.\main.c      **** #pragma interrupt_handler isr_rx1
  54:.\main.c      **** CY_ISR(isr_rx1)
  55:.\main.c      **** {
 207              		.loc 1 55 0
 208              		.cfi_startproc
 209              		@ args = 0, pretend = 0, frame = 8
 210              		@ frame_needed = 1, uses_anonymous_args = 0
 211 0000 80B5     		push	{r7, lr}
 212              	.LCFI2:
 213              		.cfi_def_cfa_offset 8
 214              		.cfi_offset 7, -8
 215              		.cfi_offset 14, -4
 216 0002 82B0     		sub	sp, sp, #8
 217              	.LCFI3:
 218              		.cfi_def_cfa_offset 16
 219 0004 00AF     		add	r7, sp, #0
 220              	.LCFI4:
 221              		.cfi_def_cfa_register 7
  56:.\main.c      ****  char recv_data;
  57:.\main.c      ****  recv_data = UART_1_GetChar(); // read UART
 222              		.loc 1 57 0
 223 0006 FFF7FEFF 		bl	UART_1_GetChar
 224 000a 0346     		mov	r3, r0
 225 000c FB71     		strb	r3, [r7, #7]
  58:.\main.c      ****  UART_2_PutChar(recv_data); // echo
 226              		.loc 1 58 0
 227 000e FB79     		ldrb	r3, [r7, #7]	@ zero_extendqisi2
ARM GAS  C:\Users\Owner\AppData\Local\Temp\ccxJF51h.s 			page 6


 228 0010 1846     		mov	r0, r3
 229 0012 FFF7FEFF 		bl	UART_2_PutChar
  59:.\main.c      **** }
 230              		.loc 1 59 0
 231 0016 07F10807 		add	r7, r7, #8
 232 001a BD46     		mov	sp, r7
 233 001c 80BD     		pop	{r7, pc}
 234              		.cfi_endproc
 235              	.LFE57:
 236              		.size	isr_rx1, .-isr_rx1
 237 001e 00BF     		.text
 238              	.Letext0:
 239              		.file 2 "c:\\program files (x86)\\cypress\\psoc creator\\3.0\\psoc creator\\import\\gnu_cs\\arm\\4
 240              		.file 3 "./Generated_Source/PSoC5/cytypes.h"
 241              		.file 4 "./Generated_Source/PSoC5/core_cm3.h"