ARM GAS  C:\Users\Owner\AppData\Local\Temp\ccR6XCwT.s 			page 1


   1              		.syntax unified
   2              		.cpu cortex-m3
   3              		.fpu softvfp
   4              		.eabi_attribute 20, 1
   5              		.eabi_attribute 21, 1
   6              		.eabi_attribute 23, 3
   7              		.eabi_attribute 24, 1
   8              		.eabi_attribute 25, 1
   9              		.eabi_attribute 26, 1
  10              		.eabi_attribute 30, 6
  11              		.eabi_attribute 34, 1
  12              		.eabi_attribute 18, 4
  13              		.thumb
  14              		.file	"UART_2.c"
  15              		.text
  16              	.Ltext0:
  17              		.cfi_sections	.debug_frame
  18              		.global	UART_2_initVar
  19              		.bss
  20              		.type	UART_2_initVar, %object
  21              		.size	UART_2_initVar, 1
  22              	UART_2_initVar:
  23 0000 00       		.space	1
  24              		.section	.text.UART_2_Start,"ax",%progbits
  25              		.align	2
  26              		.global	UART_2_Start
  27              		.thumb
  28              		.thumb_func
  29              		.type	UART_2_Start, %function
  30              	UART_2_Start:
  31              	.LFB0:
  32              		.file 1 ".\\Generated_Source\\PSoC5\\UART_2.c"
   1:.\Generated_Source\PSoC5/UART_2.c **** /*******************************************************************************
   2:.\Generated_Source\PSoC5/UART_2.c **** * File Name: UART_2.c
   3:.\Generated_Source\PSoC5/UART_2.c **** * Version 2.30
   4:.\Generated_Source\PSoC5/UART_2.c **** *
   5:.\Generated_Source\PSoC5/UART_2.c **** * Description:
   6:.\Generated_Source\PSoC5/UART_2.c **** *  This file provides all API functionality of the UART component
   7:.\Generated_Source\PSoC5/UART_2.c **** *
   8:.\Generated_Source\PSoC5/UART_2.c **** * Note:
   9:.\Generated_Source\PSoC5/UART_2.c **** *
  10:.\Generated_Source\PSoC5/UART_2.c **** ********************************************************************************
  11:.\Generated_Source\PSoC5/UART_2.c **** * Copyright 2008-2012, Cypress Semiconductor Corporation.  All rights reserved.
  12:.\Generated_Source\PSoC5/UART_2.c **** * You may use this file only in accordance with the license, terms, conditions,
  13:.\Generated_Source\PSoC5/UART_2.c **** * disclaimers, and limitations in the end user license agreement accompanying
  14:.\Generated_Source\PSoC5/UART_2.c **** * the software package with which this file was provided.
  15:.\Generated_Source\PSoC5/UART_2.c **** *******************************************************************************/
  16:.\Generated_Source\PSoC5/UART_2.c **** 
  17:.\Generated_Source\PSoC5/UART_2.c **** #include "UART_2.h"
  18:.\Generated_Source\PSoC5/UART_2.c **** #include "CyLib.h"
  19:.\Generated_Source\PSoC5/UART_2.c **** #if(UART_2_INTERNAL_CLOCK_USED)
  20:.\Generated_Source\PSoC5/UART_2.c ****     #include "UART_2_IntClock.h"
  21:.\Generated_Source\PSoC5/UART_2.c **** #endif /* End UART_2_INTERNAL_CLOCK_USED */
  22:.\Generated_Source\PSoC5/UART_2.c **** 
  23:.\Generated_Source\PSoC5/UART_2.c **** 
  24:.\Generated_Source\PSoC5/UART_2.c **** /***************************************
  25:.\Generated_Source\PSoC5/UART_2.c **** * Global data allocation
ARM GAS  C:\Users\Owner\AppData\Local\Temp\ccR6XCwT.s 			page 2


  26:.\Generated_Source\PSoC5/UART_2.c **** ***************************************/
  27:.\Generated_Source\PSoC5/UART_2.c **** 
  28:.\Generated_Source\PSoC5/UART_2.c **** uint8 UART_2_initVar = 0u;
  29:.\Generated_Source\PSoC5/UART_2.c **** #if( UART_2_TX_ENABLED && (UART_2_TXBUFFERSIZE > UART_2_FIFO_LENGTH))
  30:.\Generated_Source\PSoC5/UART_2.c ****     volatile uint8 UART_2_txBuffer[UART_2_TXBUFFERSIZE];
  31:.\Generated_Source\PSoC5/UART_2.c ****     volatile uint8 UART_2_txBufferRead = 0u;
  32:.\Generated_Source\PSoC5/UART_2.c ****     uint8 UART_2_txBufferWrite = 0u;
  33:.\Generated_Source\PSoC5/UART_2.c **** #endif /* End UART_2_TX_ENABLED */
  34:.\Generated_Source\PSoC5/UART_2.c **** #if( ( UART_2_RX_ENABLED || UART_2_HD_ENABLED ) && \
  35:.\Generated_Source\PSoC5/UART_2.c ****      (UART_2_RXBUFFERSIZE > UART_2_FIFO_LENGTH) )
  36:.\Generated_Source\PSoC5/UART_2.c ****     volatile uint8 UART_2_rxBuffer[UART_2_RXBUFFERSIZE];
  37:.\Generated_Source\PSoC5/UART_2.c ****     volatile uint8 UART_2_rxBufferRead = 0u;
  38:.\Generated_Source\PSoC5/UART_2.c ****     volatile uint8 UART_2_rxBufferWrite = 0u;
  39:.\Generated_Source\PSoC5/UART_2.c ****     volatile uint8 UART_2_rxBufferLoopDetect = 0u;
  40:.\Generated_Source\PSoC5/UART_2.c ****     volatile uint8 UART_2_rxBufferOverflow = 0u;
  41:.\Generated_Source\PSoC5/UART_2.c ****     #if (UART_2_RXHW_ADDRESS_ENABLED)
  42:.\Generated_Source\PSoC5/UART_2.c ****         volatile uint8 UART_2_rxAddressMode = UART_2_RXADDRESSMODE;
  43:.\Generated_Source\PSoC5/UART_2.c ****         volatile uint8 UART_2_rxAddressDetected = 0u;
  44:.\Generated_Source\PSoC5/UART_2.c ****     #endif /* End EnableHWAddress */
  45:.\Generated_Source\PSoC5/UART_2.c **** #endif /* End UART_2_RX_ENABLED */
  46:.\Generated_Source\PSoC5/UART_2.c **** 
  47:.\Generated_Source\PSoC5/UART_2.c **** 
  48:.\Generated_Source\PSoC5/UART_2.c **** /*******************************************************************************
  49:.\Generated_Source\PSoC5/UART_2.c **** * Function Name: UART_2_Start
  50:.\Generated_Source\PSoC5/UART_2.c **** ********************************************************************************
  51:.\Generated_Source\PSoC5/UART_2.c **** *
  52:.\Generated_Source\PSoC5/UART_2.c **** * Summary:
  53:.\Generated_Source\PSoC5/UART_2.c **** *  Initialize and Enable the UART component.
  54:.\Generated_Source\PSoC5/UART_2.c **** *  Enable the clock input to enable operation.
  55:.\Generated_Source\PSoC5/UART_2.c **** *
  56:.\Generated_Source\PSoC5/UART_2.c **** * Parameters:
  57:.\Generated_Source\PSoC5/UART_2.c **** *  None.
  58:.\Generated_Source\PSoC5/UART_2.c **** *
  59:.\Generated_Source\PSoC5/UART_2.c **** * Return:
  60:.\Generated_Source\PSoC5/UART_2.c **** *  None.
  61:.\Generated_Source\PSoC5/UART_2.c **** *
  62:.\Generated_Source\PSoC5/UART_2.c **** * Global variables:
  63:.\Generated_Source\PSoC5/UART_2.c **** *  The UART_2_intiVar variable is used to indicate initial
  64:.\Generated_Source\PSoC5/UART_2.c **** *  configuration of this component. The variable is initialized to zero (0u)
  65:.\Generated_Source\PSoC5/UART_2.c **** *  and set to one (1u) the first time UART_Start() is called. This allows for
  66:.\Generated_Source\PSoC5/UART_2.c **** *  component initialization without re-initialization in all subsequent calls
  67:.\Generated_Source\PSoC5/UART_2.c **** *  to the UART_2_Start() routine.
  68:.\Generated_Source\PSoC5/UART_2.c **** *
  69:.\Generated_Source\PSoC5/UART_2.c **** * Reentrant:
  70:.\Generated_Source\PSoC5/UART_2.c **** *  No.
  71:.\Generated_Source\PSoC5/UART_2.c **** *
  72:.\Generated_Source\PSoC5/UART_2.c **** *******************************************************************************/
  73:.\Generated_Source\PSoC5/UART_2.c **** void UART_2_Start(void) 
  74:.\Generated_Source\PSoC5/UART_2.c **** {
  33              		.loc 1 74 0
  34              		.cfi_startproc
  35              		@ args = 0, pretend = 0, frame = 0
  36              		@ frame_needed = 1, uses_anonymous_args = 0
  37 0000 80B5     		push	{r7, lr}
  38              	.LCFI0:
  39              		.cfi_def_cfa_offset 8
  40              		.cfi_offset 7, -8
ARM GAS  C:\Users\Owner\AppData\Local\Temp\ccR6XCwT.s 			page 3


  41              		.cfi_offset 14, -4
  42 0002 00AF     		add	r7, sp, #0
  43              	.LCFI1:
  44              		.cfi_def_cfa_register 7
  75:.\Generated_Source\PSoC5/UART_2.c ****     /* If not Initialized then initialize all required hardware and software */
  76:.\Generated_Source\PSoC5/UART_2.c ****     if(UART_2_initVar == 0u)
  45              		.loc 1 76 0
  46 0004 40F20003 		movw	r3, #:lower16:UART_2_initVar
  47 0008 C0F20003 		movt	r3, #:upper16:UART_2_initVar
  48 000c 1B78     		ldrb	r3, [r3, #0]	@ zero_extendqisi2
  49 000e 002B     		cmp	r3, #0
  50 0010 08D1     		bne	.L2
  77:.\Generated_Source\PSoC5/UART_2.c ****     {
  78:.\Generated_Source\PSoC5/UART_2.c ****         UART_2_Init();
  51              		.loc 1 78 0
  52 0012 FFF7FEFF 		bl	UART_2_Init
  79:.\Generated_Source\PSoC5/UART_2.c ****         UART_2_initVar = 1u;
  53              		.loc 1 79 0
  54 0016 40F20003 		movw	r3, #:lower16:UART_2_initVar
  55 001a C0F20003 		movt	r3, #:upper16:UART_2_initVar
  56 001e 4FF00102 		mov	r2, #1
  57 0022 1A70     		strb	r2, [r3, #0]
  58              	.L2:
  80:.\Generated_Source\PSoC5/UART_2.c ****     }
  81:.\Generated_Source\PSoC5/UART_2.c ****     UART_2_Enable();
  59              		.loc 1 81 0
  60 0024 FFF7FEFF 		bl	UART_2_Enable
  82:.\Generated_Source\PSoC5/UART_2.c **** }
  61              		.loc 1 82 0
  62 0028 80BD     		pop	{r7, pc}
  63              		.cfi_endproc
  64              	.LFE0:
  65              		.size	UART_2_Start, .-UART_2_Start
  66 002a 00BF     		.section	.text.UART_2_Init,"ax",%progbits
  67              		.align	2
  68              		.global	UART_2_Init
  69              		.thumb
  70              		.thumb_func
  71              		.type	UART_2_Init, %function
  72              	UART_2_Init:
  73              	.LFB1:
  83:.\Generated_Source\PSoC5/UART_2.c **** 
  84:.\Generated_Source\PSoC5/UART_2.c **** 
  85:.\Generated_Source\PSoC5/UART_2.c **** /*******************************************************************************
  86:.\Generated_Source\PSoC5/UART_2.c **** * Function Name: UART_2_Init
  87:.\Generated_Source\PSoC5/UART_2.c **** ********************************************************************************
  88:.\Generated_Source\PSoC5/UART_2.c **** *
  89:.\Generated_Source\PSoC5/UART_2.c **** * Summary:
  90:.\Generated_Source\PSoC5/UART_2.c **** *  Initialize component's parameters to the parameters set by user in the
  91:.\Generated_Source\PSoC5/UART_2.c **** *  customizer of the component placed onto schematic. Usually called in
  92:.\Generated_Source\PSoC5/UART_2.c **** *  UART_2_Start().
  93:.\Generated_Source\PSoC5/UART_2.c **** *
  94:.\Generated_Source\PSoC5/UART_2.c **** * Parameters:
  95:.\Generated_Source\PSoC5/UART_2.c **** *  None.
  96:.\Generated_Source\PSoC5/UART_2.c **** *
  97:.\Generated_Source\PSoC5/UART_2.c **** * Return:
  98:.\Generated_Source\PSoC5/UART_2.c **** *  None.
ARM GAS  C:\Users\Owner\AppData\Local\Temp\ccR6XCwT.s 			page 4


  99:.\Generated_Source\PSoC5/UART_2.c **** *
 100:.\Generated_Source\PSoC5/UART_2.c **** *******************************************************************************/
 101:.\Generated_Source\PSoC5/UART_2.c **** void UART_2_Init(void) 
 102:.\Generated_Source\PSoC5/UART_2.c **** {
  74              		.loc 1 102 0
  75              		.cfi_startproc
  76              		@ args = 0, pretend = 0, frame = 0
  77              		@ frame_needed = 1, uses_anonymous_args = 0
  78              		@ link register save eliminated.
  79 0000 80B4     		push	{r7}
  80              	.LCFI2:
  81              		.cfi_def_cfa_offset 4
  82              		.cfi_offset 7, -4
  83 0002 00AF     		add	r7, sp, #0
  84              	.LCFI3:
  85              		.cfi_def_cfa_register 7
 103:.\Generated_Source\PSoC5/UART_2.c ****     #if(UART_2_RX_ENABLED || UART_2_HD_ENABLED)
 104:.\Generated_Source\PSoC5/UART_2.c **** 
 105:.\Generated_Source\PSoC5/UART_2.c ****         #if(UART_2_RX_INTERRUPT_ENABLED && (UART_2_RXBUFFERSIZE > UART_2_FIFO_LENGTH))
 106:.\Generated_Source\PSoC5/UART_2.c ****             /* Set the RX Interrupt. */
 107:.\Generated_Source\PSoC5/UART_2.c ****             (void)CyIntSetVector(UART_2_RX_VECT_NUM, &UART_2_RXISR);
 108:.\Generated_Source\PSoC5/UART_2.c ****             CyIntSetPriority(UART_2_RX_VECT_NUM, UART_2_RX_PRIOR_NUM);
 109:.\Generated_Source\PSoC5/UART_2.c ****         #endif /* End UART_2_RX_INTERRUPT_ENABLED */
 110:.\Generated_Source\PSoC5/UART_2.c **** 
 111:.\Generated_Source\PSoC5/UART_2.c ****         #if (UART_2_RXHW_ADDRESS_ENABLED)
 112:.\Generated_Source\PSoC5/UART_2.c ****             UART_2_SetRxAddressMode(UART_2_RXAddressMode);
 113:.\Generated_Source\PSoC5/UART_2.c ****             UART_2_SetRxAddress1(UART_2_RXHWADDRESS1);
 114:.\Generated_Source\PSoC5/UART_2.c ****             UART_2_SetRxAddress2(UART_2_RXHWADDRESS2);
 115:.\Generated_Source\PSoC5/UART_2.c ****         #endif /* End UART_2_RXHW_ADDRESS_ENABLED */
 116:.\Generated_Source\PSoC5/UART_2.c **** 
 117:.\Generated_Source\PSoC5/UART_2.c ****         /* Init Count7 period */
 118:.\Generated_Source\PSoC5/UART_2.c ****         UART_2_RXBITCTR_PERIOD_REG = UART_2_RXBITCTR_INIT;
  86              		.loc 1 118 0
  87 0004 46F28453 		movw	r3, #25988
  88 0008 C4F20003 		movt	r3, 16384
  89 000c 4FF07202 		mov	r2, #114
  90 0010 1A70     		strb	r2, [r3, #0]
 119:.\Generated_Source\PSoC5/UART_2.c ****         /* Configure the Initial RX interrupt mask */
 120:.\Generated_Source\PSoC5/UART_2.c ****         UART_2_RXSTATUS_MASK_REG  = UART_2_INIT_RX_INTERRUPTS_MASK;
  91              		.loc 1 120 0
  92 0012 46F28743 		movw	r3, #25735
  93 0016 C4F20003 		movt	r3, 16384
  94 001a 4FF02002 		mov	r2, #32
  95 001e 1A70     		strb	r2, [r3, #0]
 121:.\Generated_Source\PSoC5/UART_2.c ****     #endif /* End UART_2_RX_ENABLED || UART_2_HD_ENABLED*/
 122:.\Generated_Source\PSoC5/UART_2.c **** 
 123:.\Generated_Source\PSoC5/UART_2.c ****     #if(UART_2_TX_ENABLED)
 124:.\Generated_Source\PSoC5/UART_2.c ****         #if(UART_2_TX_INTERRUPT_ENABLED && (UART_2_TXBUFFERSIZE > UART_2_FIFO_LENGTH))
 125:.\Generated_Source\PSoC5/UART_2.c ****             /* Set the TX Interrupt. */
 126:.\Generated_Source\PSoC5/UART_2.c ****             (void)CyIntSetVector(UART_2_TX_VECT_NUM, &UART_2_TXISR);
 127:.\Generated_Source\PSoC5/UART_2.c ****             CyIntSetPriority(UART_2_TX_VECT_NUM, UART_2_TX_PRIOR_NUM);
 128:.\Generated_Source\PSoC5/UART_2.c ****         #endif /* End UART_2_TX_INTERRUPT_ENABLED */
 129:.\Generated_Source\PSoC5/UART_2.c **** 
 130:.\Generated_Source\PSoC5/UART_2.c ****         /* Write Counter Value for TX Bit Clk Generator*/
 131:.\Generated_Source\PSoC5/UART_2.c ****         #if(UART_2_TXCLKGEN_DP)
 132:.\Generated_Source\PSoC5/UART_2.c ****             UART_2_TXBITCLKGEN_CTR_REG = UART_2_BIT_CENTER;
  96              		.loc 1 132 0
ARM GAS  C:\Users\Owner\AppData\Local\Temp\ccR6XCwT.s 			page 5


  97 0020 46F22743 		movw	r3, #25639
  98 0024 C4F20003 		movt	r3, 16384
  99 0028 4FF00702 		mov	r2, #7
 100 002c 1A70     		strb	r2, [r3, #0]
 133:.\Generated_Source\PSoC5/UART_2.c ****             UART_2_TXBITCLKTX_COMPLETE_REG = (UART_2_NUMBER_OF_DATA_BITS +
 101              		.loc 1 133 0
 102 002e 46F23743 		movw	r3, #25655
 103 0032 C4F20003 		movt	r3, 16384
 104 0036 4FF04802 		mov	r2, #72
 105 003a 1A70     		strb	r2, [r3, #0]
 134:.\Generated_Source\PSoC5/UART_2.c ****                         UART_2_NUMBER_OF_START_BIT) * UART_2_OVER_SAMPLE_COUNT;
 135:.\Generated_Source\PSoC5/UART_2.c ****         #else
 136:.\Generated_Source\PSoC5/UART_2.c ****             UART_2_TXBITCTR_PERIOD_REG = ((UART_2_NUMBER_OF_DATA_BITS +
 137:.\Generated_Source\PSoC5/UART_2.c ****                         UART_2_NUMBER_OF_START_BIT) * UART_2_OVER_SAMPLE_8) - 1u;
 138:.\Generated_Source\PSoC5/UART_2.c ****         #endif /* End UART_2_TXCLKGEN_DP */
 139:.\Generated_Source\PSoC5/UART_2.c **** 
 140:.\Generated_Source\PSoC5/UART_2.c ****         /* Configure the Initial TX interrupt mask */
 141:.\Generated_Source\PSoC5/UART_2.c ****         #if(UART_2_TX_INTERRUPT_ENABLED && (UART_2_TXBUFFERSIZE > UART_2_FIFO_LENGTH))
 142:.\Generated_Source\PSoC5/UART_2.c ****             UART_2_TXSTATUS_MASK_REG = UART_2_TX_STS_FIFO_EMPTY;
 143:.\Generated_Source\PSoC5/UART_2.c ****         #else
 144:.\Generated_Source\PSoC5/UART_2.c ****             UART_2_TXSTATUS_MASK_REG = UART_2_INIT_TX_INTERRUPTS_MASK;
 106              		.loc 1 144 0
 107 003c 46F28443 		movw	r3, #25732
 108 0040 C4F20003 		movt	r3, 16384
 109 0044 4FF00002 		mov	r2, #0
 110 0048 1A70     		strb	r2, [r3, #0]
 145:.\Generated_Source\PSoC5/UART_2.c ****         #endif /*End UART_2_TX_INTERRUPT_ENABLED*/
 146:.\Generated_Source\PSoC5/UART_2.c **** 
 147:.\Generated_Source\PSoC5/UART_2.c ****     #endif /* End UART_2_TX_ENABLED */
 148:.\Generated_Source\PSoC5/UART_2.c **** 
 149:.\Generated_Source\PSoC5/UART_2.c ****     #if(UART_2_PARITY_TYPE_SW)  /* Write Parity to Control Register */
 150:.\Generated_Source\PSoC5/UART_2.c ****         UART_2_WriteControlRegister( \
 151:.\Generated_Source\PSoC5/UART_2.c ****             (UART_2_ReadControlRegister() & (uint8)~UART_2_CTRL_PARITY_TYPE_MASK) | \
 152:.\Generated_Source\PSoC5/UART_2.c ****             (uint8)(UART_2_PARITY_TYPE << UART_2_CTRL_PARITY_TYPE0_SHIFT) );
 153:.\Generated_Source\PSoC5/UART_2.c ****     #endif /* End UART_2_PARITY_TYPE_SW */
 154:.\Generated_Source\PSoC5/UART_2.c **** }
 111              		.loc 1 154 0
 112 004a BD46     		mov	sp, r7
 113 004c 80BC     		pop	{r7}
 114 004e 7047     		bx	lr
 115              		.cfi_endproc
 116              	.LFE1:
 117              		.size	UART_2_Init, .-UART_2_Init
 118              		.section	.text.UART_2_Enable,"ax",%progbits
 119              		.align	2
 120              		.global	UART_2_Enable
 121              		.thumb
 122              		.thumb_func
 123              		.type	UART_2_Enable, %function
 124              	UART_2_Enable:
 125              	.LFB2:
 155:.\Generated_Source\PSoC5/UART_2.c **** 
 156:.\Generated_Source\PSoC5/UART_2.c **** 
 157:.\Generated_Source\PSoC5/UART_2.c **** /*******************************************************************************
 158:.\Generated_Source\PSoC5/UART_2.c **** * Function Name: UART_2_Enable
 159:.\Generated_Source\PSoC5/UART_2.c **** ********************************************************************************
 160:.\Generated_Source\PSoC5/UART_2.c **** *
ARM GAS  C:\Users\Owner\AppData\Local\Temp\ccR6XCwT.s 			page 6


 161:.\Generated_Source\PSoC5/UART_2.c **** * Summary:
 162:.\Generated_Source\PSoC5/UART_2.c **** *  Enables the UART block operation
 163:.\Generated_Source\PSoC5/UART_2.c **** *
 164:.\Generated_Source\PSoC5/UART_2.c **** * Parameters:
 165:.\Generated_Source\PSoC5/UART_2.c **** *  None.
 166:.\Generated_Source\PSoC5/UART_2.c **** *
 167:.\Generated_Source\PSoC5/UART_2.c **** * Return:
 168:.\Generated_Source\PSoC5/UART_2.c **** *  None.
 169:.\Generated_Source\PSoC5/UART_2.c **** *
 170:.\Generated_Source\PSoC5/UART_2.c **** * Global Variables:
 171:.\Generated_Source\PSoC5/UART_2.c **** *  UART_2_rxAddressDetected - set to initial state (0).
 172:.\Generated_Source\PSoC5/UART_2.c **** *
 173:.\Generated_Source\PSoC5/UART_2.c **** *******************************************************************************/
 174:.\Generated_Source\PSoC5/UART_2.c **** void UART_2_Enable(void) 
 175:.\Generated_Source\PSoC5/UART_2.c **** {
 126              		.loc 1 175 0
 127              		.cfi_startproc
 128              		@ args = 0, pretend = 0, frame = 8
 129              		@ frame_needed = 1, uses_anonymous_args = 0
 130 0000 80B5     		push	{r7, lr}
 131              	.LCFI4:
 132              		.cfi_def_cfa_offset 8
 133              		.cfi_offset 7, -8
 134              		.cfi_offset 14, -4
 135 0002 82B0     		sub	sp, sp, #8
 136              	.LCFI5:
 137              		.cfi_def_cfa_offset 16
 138 0004 00AF     		add	r7, sp, #0
 139              	.LCFI6:
 140              		.cfi_def_cfa_register 7
 176:.\Generated_Source\PSoC5/UART_2.c ****     uint8 enableInterrupts;
 177:.\Generated_Source\PSoC5/UART_2.c ****     enableInterrupts = CyEnterCriticalSection();
 141              		.loc 1 177 0
 142 0006 FFF7FEFF 		bl	CyEnterCriticalSection
 143 000a 0346     		mov	r3, r0
 144 000c FB71     		strb	r3, [r7, #7]
 178:.\Generated_Source\PSoC5/UART_2.c **** 
 179:.\Generated_Source\PSoC5/UART_2.c ****     #if(UART_2_RX_ENABLED || UART_2_HD_ENABLED)
 180:.\Generated_Source\PSoC5/UART_2.c ****         /*RX Counter (Count7) Enable */
 181:.\Generated_Source\PSoC5/UART_2.c ****         UART_2_RXBITCTR_CONTROL_REG |= UART_2_CNTR_ENABLE;
 145              		.loc 1 181 0
 146 000e 46F29453 		movw	r3, #26004
 147 0012 C4F20003 		movt	r3, 16384
 148 0016 46F29452 		movw	r2, #26004
 149 001a C4F20002 		movt	r2, 16384
 150 001e 1278     		ldrb	r2, [r2, #0]
 151 0020 D2B2     		uxtb	r2, r2
 152 0022 42F02002 		orr	r2, r2, #32
 153 0026 D2B2     		uxtb	r2, r2
 154 0028 1A70     		strb	r2, [r3, #0]
 182:.\Generated_Source\PSoC5/UART_2.c ****         /* Enable the RX Interrupt. */
 183:.\Generated_Source\PSoC5/UART_2.c ****         UART_2_RXSTATUS_ACTL_REG  |= UART_2_INT_ENABLE;
 155              		.loc 1 183 0
 156 002a 46F29743 		movw	r3, #25751
 157 002e C4F20003 		movt	r3, 16384
 158 0032 46F29742 		movw	r2, #25751
 159 0036 C4F20002 		movt	r2, 16384
ARM GAS  C:\Users\Owner\AppData\Local\Temp\ccR6XCwT.s 			page 7


 160 003a 1278     		ldrb	r2, [r2, #0]
 161 003c D2B2     		uxtb	r2, r2
 162 003e 42F01002 		orr	r2, r2, #16
 163 0042 D2B2     		uxtb	r2, r2
 164 0044 1A70     		strb	r2, [r3, #0]
 184:.\Generated_Source\PSoC5/UART_2.c ****         #if(UART_2_RX_INTERRUPT_ENABLED && (UART_2_RXBUFFERSIZE > UART_2_FIFO_LENGTH))
 185:.\Generated_Source\PSoC5/UART_2.c ****             CyIntEnable(UART_2_RX_VECT_NUM);
 186:.\Generated_Source\PSoC5/UART_2.c ****             #if (UART_2_RXHW_ADDRESS_ENABLED)
 187:.\Generated_Source\PSoC5/UART_2.c ****                 UART_2_rxAddressDetected = 0u;
 188:.\Generated_Source\PSoC5/UART_2.c ****             #endif /* End UART_2_RXHW_ADDRESS_ENABLED */
 189:.\Generated_Source\PSoC5/UART_2.c ****         #endif /* End UART_2_RX_INTERRUPT_ENABLED */
 190:.\Generated_Source\PSoC5/UART_2.c ****     #endif /* End UART_2_RX_ENABLED || UART_2_HD_ENABLED*/
 191:.\Generated_Source\PSoC5/UART_2.c **** 
 192:.\Generated_Source\PSoC5/UART_2.c ****     #if(UART_2_TX_ENABLED)
 193:.\Generated_Source\PSoC5/UART_2.c ****         /*TX Counter (DP/Count7) Enable */
 194:.\Generated_Source\PSoC5/UART_2.c ****         #if(!UART_2_TXCLKGEN_DP)
 195:.\Generated_Source\PSoC5/UART_2.c ****             UART_2_TXBITCTR_CONTROL_REG |= UART_2_CNTR_ENABLE;
 196:.\Generated_Source\PSoC5/UART_2.c ****         #endif /* End UART_2_TXCLKGEN_DP */
 197:.\Generated_Source\PSoC5/UART_2.c ****         /* Enable the TX Interrupt. */
 198:.\Generated_Source\PSoC5/UART_2.c ****         UART_2_TXSTATUS_ACTL_REG |= UART_2_INT_ENABLE;
 165              		.loc 1 198 0
 166 0046 46F29443 		movw	r3, #25748
 167 004a C4F20003 		movt	r3, 16384
 168 004e 46F29442 		movw	r2, #25748
 169 0052 C4F20002 		movt	r2, 16384
 170 0056 1278     		ldrb	r2, [r2, #0]
 171 0058 D2B2     		uxtb	r2, r2
 172 005a 42F01002 		orr	r2, r2, #16
 173 005e D2B2     		uxtb	r2, r2
 174 0060 1A70     		strb	r2, [r3, #0]
 199:.\Generated_Source\PSoC5/UART_2.c ****         #if(UART_2_TX_INTERRUPT_ENABLED && (UART_2_TXBUFFERSIZE > UART_2_FIFO_LENGTH))
 200:.\Generated_Source\PSoC5/UART_2.c ****             CyIntEnable(UART_2_TX_VECT_NUM);
 201:.\Generated_Source\PSoC5/UART_2.c ****         #endif /* End UART_2_TX_INTERRUPT_ENABLED*/
 202:.\Generated_Source\PSoC5/UART_2.c ****      #endif /* End UART_2_TX_ENABLED */
 203:.\Generated_Source\PSoC5/UART_2.c **** 
 204:.\Generated_Source\PSoC5/UART_2.c ****     #if(UART_2_INTERNAL_CLOCK_USED)
 205:.\Generated_Source\PSoC5/UART_2.c ****         /* Enable the clock. */
 206:.\Generated_Source\PSoC5/UART_2.c ****         UART_2_IntClock_Start();
 175              		.loc 1 206 0
 176 0062 FFF7FEFF 		bl	UART_2_IntClock_Start
 207:.\Generated_Source\PSoC5/UART_2.c ****     #endif /* End UART_2_INTERNAL_CLOCK_USED */
 208:.\Generated_Source\PSoC5/UART_2.c **** 
 209:.\Generated_Source\PSoC5/UART_2.c ****     CyExitCriticalSection(enableInterrupts);
 177              		.loc 1 209 0
 178 0066 FB79     		ldrb	r3, [r7, #7]	@ zero_extendqisi2
 179 0068 1846     		mov	r0, r3
 180 006a FFF7FEFF 		bl	CyExitCriticalSection
 210:.\Generated_Source\PSoC5/UART_2.c **** }
 181              		.loc 1 210 0
 182 006e 07F10807 		add	r7, r7, #8
 183 0072 BD46     		mov	sp, r7
 184 0074 80BD     		pop	{r7, pc}
 185              		.cfi_endproc
 186              	.LFE2:
 187              		.size	UART_2_Enable, .-UART_2_Enable
 188 0076 00BF     		.section	.text.UART_2_Stop,"ax",%progbits
 189              		.align	2
ARM GAS  C:\Users\Owner\AppData\Local\Temp\ccR6XCwT.s 			page 8


 190              		.global	UART_2_Stop
 191              		.thumb
 192              		.thumb_func
 193              		.type	UART_2_Stop, %function
 194              	UART_2_Stop:
 195              	.LFB3:
 211:.\Generated_Source\PSoC5/UART_2.c **** 
 212:.\Generated_Source\PSoC5/UART_2.c **** 
 213:.\Generated_Source\PSoC5/UART_2.c **** /*******************************************************************************
 214:.\Generated_Source\PSoC5/UART_2.c **** * Function Name: UART_2_Stop
 215:.\Generated_Source\PSoC5/UART_2.c **** ********************************************************************************
 216:.\Generated_Source\PSoC5/UART_2.c **** *
 217:.\Generated_Source\PSoC5/UART_2.c **** * Summary:
 218:.\Generated_Source\PSoC5/UART_2.c **** *  Disable the UART component
 219:.\Generated_Source\PSoC5/UART_2.c **** *
 220:.\Generated_Source\PSoC5/UART_2.c **** * Parameters:
 221:.\Generated_Source\PSoC5/UART_2.c **** *  None.
 222:.\Generated_Source\PSoC5/UART_2.c **** *
 223:.\Generated_Source\PSoC5/UART_2.c **** * Return:
 224:.\Generated_Source\PSoC5/UART_2.c **** *  None.
 225:.\Generated_Source\PSoC5/UART_2.c **** *
 226:.\Generated_Source\PSoC5/UART_2.c **** *******************************************************************************/
 227:.\Generated_Source\PSoC5/UART_2.c **** void UART_2_Stop(void) 
 228:.\Generated_Source\PSoC5/UART_2.c **** {
 196              		.loc 1 228 0
 197              		.cfi_startproc
 198              		@ args = 0, pretend = 0, frame = 8
 199              		@ frame_needed = 1, uses_anonymous_args = 0
 200 0000 80B5     		push	{r7, lr}
 201              	.LCFI7:
 202              		.cfi_def_cfa_offset 8
 203              		.cfi_offset 7, -8
 204              		.cfi_offset 14, -4
 205 0002 82B0     		sub	sp, sp, #8
 206              	.LCFI8:
 207              		.cfi_def_cfa_offset 16
 208 0004 00AF     		add	r7, sp, #0
 209              	.LCFI9:
 210              		.cfi_def_cfa_register 7
 229:.\Generated_Source\PSoC5/UART_2.c ****     uint8 enableInterrupts;
 230:.\Generated_Source\PSoC5/UART_2.c ****     enableInterrupts = CyEnterCriticalSection();
 211              		.loc 1 230 0
 212 0006 FFF7FEFF 		bl	CyEnterCriticalSection
 213 000a 0346     		mov	r3, r0
 214 000c FB71     		strb	r3, [r7, #7]
 231:.\Generated_Source\PSoC5/UART_2.c **** 
 232:.\Generated_Source\PSoC5/UART_2.c ****     /* Write Bit Counter Disable */
 233:.\Generated_Source\PSoC5/UART_2.c ****     #if(UART_2_RX_ENABLED || UART_2_HD_ENABLED)
 234:.\Generated_Source\PSoC5/UART_2.c ****         UART_2_RXBITCTR_CONTROL_REG &= (uint8)~UART_2_CNTR_ENABLE;
 215              		.loc 1 234 0
 216 000e 46F29453 		movw	r3, #26004
 217 0012 C4F20003 		movt	r3, 16384
 218 0016 46F29452 		movw	r2, #26004
 219 001a C4F20002 		movt	r2, 16384
 220 001e 1278     		ldrb	r2, [r2, #0]
 221 0020 D2B2     		uxtb	r2, r2
 222 0022 22F02002 		bic	r2, r2, #32
ARM GAS  C:\Users\Owner\AppData\Local\Temp\ccR6XCwT.s 			page 9


 223 0026 D2B2     		uxtb	r2, r2
 224 0028 1A70     		strb	r2, [r3, #0]
 235:.\Generated_Source\PSoC5/UART_2.c ****     #endif /* End UART_2_RX_ENABLED */
 236:.\Generated_Source\PSoC5/UART_2.c **** 
 237:.\Generated_Source\PSoC5/UART_2.c ****     #if(UART_2_TX_ENABLED)
 238:.\Generated_Source\PSoC5/UART_2.c ****         #if(!UART_2_TXCLKGEN_DP)
 239:.\Generated_Source\PSoC5/UART_2.c ****             UART_2_TXBITCTR_CONTROL_REG &= (uint8)~UART_2_CNTR_ENABLE;
 240:.\Generated_Source\PSoC5/UART_2.c ****         #endif /* End UART_2_TXCLKGEN_DP */
 241:.\Generated_Source\PSoC5/UART_2.c ****     #endif /* UART_2_TX_ENABLED */
 242:.\Generated_Source\PSoC5/UART_2.c **** 
 243:.\Generated_Source\PSoC5/UART_2.c ****     #if(UART_2_INTERNAL_CLOCK_USED)
 244:.\Generated_Source\PSoC5/UART_2.c ****         /* Disable the clock. */
 245:.\Generated_Source\PSoC5/UART_2.c ****         UART_2_IntClock_Stop();
 225              		.loc 1 245 0
 226 002a FFF7FEFF 		bl	UART_2_IntClock_Stop
 246:.\Generated_Source\PSoC5/UART_2.c ****     #endif /* End UART_2_INTERNAL_CLOCK_USED */
 247:.\Generated_Source\PSoC5/UART_2.c **** 
 248:.\Generated_Source\PSoC5/UART_2.c ****     /* Disable internal interrupt component */
 249:.\Generated_Source\PSoC5/UART_2.c ****     #if(UART_2_RX_ENABLED || UART_2_HD_ENABLED)
 250:.\Generated_Source\PSoC5/UART_2.c ****         UART_2_RXSTATUS_ACTL_REG  &= (uint8)~UART_2_INT_ENABLE;
 227              		.loc 1 250 0
 228 002e 46F29743 		movw	r3, #25751
 229 0032 C4F20003 		movt	r3, 16384
 230 0036 46F29742 		movw	r2, #25751
 231 003a C4F20002 		movt	r2, 16384
 232 003e 1278     		ldrb	r2, [r2, #0]
 233 0040 D2B2     		uxtb	r2, r2
 234 0042 22F01002 		bic	r2, r2, #16
 235 0046 D2B2     		uxtb	r2, r2
 236 0048 1A70     		strb	r2, [r3, #0]
 251:.\Generated_Source\PSoC5/UART_2.c ****         #if(UART_2_RX_INTERRUPT_ENABLED && (UART_2_RXBUFFERSIZE > UART_2_FIFO_LENGTH))
 252:.\Generated_Source\PSoC5/UART_2.c ****             UART_2_DisableRxInt();
 253:.\Generated_Source\PSoC5/UART_2.c ****         #endif /* End UART_2_RX_INTERRUPT_ENABLED */
 254:.\Generated_Source\PSoC5/UART_2.c ****     #endif /* End UART_2_RX_ENABLED */
 255:.\Generated_Source\PSoC5/UART_2.c **** 
 256:.\Generated_Source\PSoC5/UART_2.c ****     #if(UART_2_TX_ENABLED)
 257:.\Generated_Source\PSoC5/UART_2.c ****         UART_2_TXSTATUS_ACTL_REG &= (uint8)~UART_2_INT_ENABLE;
 237              		.loc 1 257 0
 238 004a 46F29443 		movw	r3, #25748
 239 004e C4F20003 		movt	r3, 16384
 240 0052 46F29442 		movw	r2, #25748
 241 0056 C4F20002 		movt	r2, 16384
 242 005a 1278     		ldrb	r2, [r2, #0]
 243 005c D2B2     		uxtb	r2, r2
 244 005e 22F01002 		bic	r2, r2, #16
 245 0062 D2B2     		uxtb	r2, r2
 246 0064 1A70     		strb	r2, [r3, #0]
 258:.\Generated_Source\PSoC5/UART_2.c ****         #if(UART_2_TX_INTERRUPT_ENABLED && (UART_2_TXBUFFERSIZE > UART_2_FIFO_LENGTH))
 259:.\Generated_Source\PSoC5/UART_2.c ****             UART_2_DisableTxInt();
 260:.\Generated_Source\PSoC5/UART_2.c ****         #endif /* End UART_2_TX_INTERRUPT_ENABLED */
 261:.\Generated_Source\PSoC5/UART_2.c ****     #endif /* End UART_2_TX_ENABLED */
 262:.\Generated_Source\PSoC5/UART_2.c **** 
 263:.\Generated_Source\PSoC5/UART_2.c ****     CyExitCriticalSection(enableInterrupts);
 247              		.loc 1 263 0
 248 0066 FB79     		ldrb	r3, [r7, #7]	@ zero_extendqisi2
 249 0068 1846     		mov	r0, r3
 250 006a FFF7FEFF 		bl	CyExitCriticalSection
ARM GAS  C:\Users\Owner\AppData\Local\Temp\ccR6XCwT.s 			page 10


 264:.\Generated_Source\PSoC5/UART_2.c **** }
 251              		.loc 1 264 0
 252 006e 07F10807 		add	r7, r7, #8
 253 0072 BD46     		mov	sp, r7
 254 0074 80BD     		pop	{r7, pc}
 255              		.cfi_endproc
 256              	.LFE3:
 257              		.size	UART_2_Stop, .-UART_2_Stop
 258 0076 00BF     		.section	.text.UART_2_ReadControlRegister,"ax",%progbits
 259              		.align	2
 260              		.global	UART_2_ReadControlRegister
 261              		.thumb
 262              		.thumb_func
 263              		.type	UART_2_ReadControlRegister, %function
 264              	UART_2_ReadControlRegister:
 265              	.LFB4:
 265:.\Generated_Source\PSoC5/UART_2.c **** 
 266:.\Generated_Source\PSoC5/UART_2.c **** 
 267:.\Generated_Source\PSoC5/UART_2.c **** /*******************************************************************************
 268:.\Generated_Source\PSoC5/UART_2.c **** * Function Name: UART_2_ReadControlRegister
 269:.\Generated_Source\PSoC5/UART_2.c **** ********************************************************************************
 270:.\Generated_Source\PSoC5/UART_2.c **** *
 271:.\Generated_Source\PSoC5/UART_2.c **** * Summary:
 272:.\Generated_Source\PSoC5/UART_2.c **** *  Read the current state of the control register
 273:.\Generated_Source\PSoC5/UART_2.c **** *
 274:.\Generated_Source\PSoC5/UART_2.c **** * Parameters:
 275:.\Generated_Source\PSoC5/UART_2.c **** *  None.
 276:.\Generated_Source\PSoC5/UART_2.c **** *
 277:.\Generated_Source\PSoC5/UART_2.c **** * Return:
 278:.\Generated_Source\PSoC5/UART_2.c **** *  Current state of the control register.
 279:.\Generated_Source\PSoC5/UART_2.c **** *
 280:.\Generated_Source\PSoC5/UART_2.c **** *******************************************************************************/
 281:.\Generated_Source\PSoC5/UART_2.c **** uint8 UART_2_ReadControlRegister(void) 
 282:.\Generated_Source\PSoC5/UART_2.c **** {
 266              		.loc 1 282 0
 267              		.cfi_startproc
 268              		@ args = 0, pretend = 0, frame = 0
 269              		@ frame_needed = 1, uses_anonymous_args = 0
 270              		@ link register save eliminated.
 271 0000 80B4     		push	{r7}
 272              	.LCFI10:
 273              		.cfi_def_cfa_offset 4
 274              		.cfi_offset 7, -4
 275 0002 00AF     		add	r7, sp, #0
 276              	.LCFI11:
 277              		.cfi_def_cfa_register 7
 283:.\Generated_Source\PSoC5/UART_2.c ****     #if( UART_2_CONTROL_REG_REMOVED )
 284:.\Generated_Source\PSoC5/UART_2.c ****         return(0u);
 278              		.loc 1 284 0
 279 0004 4FF00003 		mov	r3, #0
 285:.\Generated_Source\PSoC5/UART_2.c ****     #else
 286:.\Generated_Source\PSoC5/UART_2.c ****         return(UART_2_CONTROL_REG);
 287:.\Generated_Source\PSoC5/UART_2.c ****     #endif /* End UART_2_CONTROL_REG_REMOVED */
 288:.\Generated_Source\PSoC5/UART_2.c **** }
 280              		.loc 1 288 0
 281 0008 1846     		mov	r0, r3
 282 000a BD46     		mov	sp, r7
ARM GAS  C:\Users\Owner\AppData\Local\Temp\ccR6XCwT.s 			page 11


 283 000c 80BC     		pop	{r7}
 284 000e 7047     		bx	lr
 285              		.cfi_endproc
 286              	.LFE4:
 287              		.size	UART_2_ReadControlRegister, .-UART_2_ReadControlRegister
 288              		.section	.text.UART_2_WriteControlRegister,"ax",%progbits
 289              		.align	2
 290              		.global	UART_2_WriteControlRegister
 291              		.thumb
 292              		.thumb_func
 293              		.type	UART_2_WriteControlRegister, %function
 294              	UART_2_WriteControlRegister:
 295              	.LFB5:
 289:.\Generated_Source\PSoC5/UART_2.c **** 
 290:.\Generated_Source\PSoC5/UART_2.c **** 
 291:.\Generated_Source\PSoC5/UART_2.c **** /*******************************************************************************
 292:.\Generated_Source\PSoC5/UART_2.c **** * Function Name: UART_2_WriteControlRegister
 293:.\Generated_Source\PSoC5/UART_2.c **** ********************************************************************************
 294:.\Generated_Source\PSoC5/UART_2.c **** *
 295:.\Generated_Source\PSoC5/UART_2.c **** * Summary:
 296:.\Generated_Source\PSoC5/UART_2.c **** *  Writes an 8-bit value into the control register
 297:.\Generated_Source\PSoC5/UART_2.c **** *
 298:.\Generated_Source\PSoC5/UART_2.c **** * Parameters:
 299:.\Generated_Source\PSoC5/UART_2.c **** *  control:  control register value
 300:.\Generated_Source\PSoC5/UART_2.c **** *
 301:.\Generated_Source\PSoC5/UART_2.c **** * Return:
 302:.\Generated_Source\PSoC5/UART_2.c **** *  None.
 303:.\Generated_Source\PSoC5/UART_2.c **** *
 304:.\Generated_Source\PSoC5/UART_2.c **** *******************************************************************************/
 305:.\Generated_Source\PSoC5/UART_2.c **** void  UART_2_WriteControlRegister(uint8 control) 
 306:.\Generated_Source\PSoC5/UART_2.c **** {
 296              		.loc 1 306 0
 297              		.cfi_startproc
 298              		@ args = 0, pretend = 0, frame = 8
 299              		@ frame_needed = 1, uses_anonymous_args = 0
 300              		@ link register save eliminated.
 301 0000 80B4     		push	{r7}
 302              	.LCFI12:
 303              		.cfi_def_cfa_offset 4
 304              		.cfi_offset 7, -4
 305 0002 83B0     		sub	sp, sp, #12
 306              	.LCFI13:
 307              		.cfi_def_cfa_offset 16
 308 0004 00AF     		add	r7, sp, #0
 309              	.LCFI14:
 310              		.cfi_def_cfa_register 7
 311 0006 0346     		mov	r3, r0
 312 0008 FB71     		strb	r3, [r7, #7]
 307:.\Generated_Source\PSoC5/UART_2.c ****     #if( UART_2_CONTROL_REG_REMOVED )
 308:.\Generated_Source\PSoC5/UART_2.c ****         if(control != 0u) { }      /* release compiler warning */
 309:.\Generated_Source\PSoC5/UART_2.c ****     #else
 310:.\Generated_Source\PSoC5/UART_2.c ****        UART_2_CONTROL_REG = control;
 311:.\Generated_Source\PSoC5/UART_2.c ****     #endif /* End UART_2_CONTROL_REG_REMOVED */
 312:.\Generated_Source\PSoC5/UART_2.c **** }
 313              		.loc 1 312 0
 314 000a 07F10C07 		add	r7, r7, #12
 315 000e BD46     		mov	sp, r7
ARM GAS  C:\Users\Owner\AppData\Local\Temp\ccR6XCwT.s 			page 12


 316 0010 80BC     		pop	{r7}
 317 0012 7047     		bx	lr
 318              		.cfi_endproc
 319              	.LFE5:
 320              		.size	UART_2_WriteControlRegister, .-UART_2_WriteControlRegister
 321              		.section	.text.UART_2_SetRxInterruptMode,"ax",%progbits
 322              		.align	2
 323              		.global	UART_2_SetRxInterruptMode
 324              		.thumb
 325              		.thumb_func
 326              		.type	UART_2_SetRxInterruptMode, %function
 327              	UART_2_SetRxInterruptMode:
 328              	.LFB6:
 313:.\Generated_Source\PSoC5/UART_2.c **** 
 314:.\Generated_Source\PSoC5/UART_2.c **** 
 315:.\Generated_Source\PSoC5/UART_2.c **** #if(UART_2_RX_ENABLED || UART_2_HD_ENABLED)
 316:.\Generated_Source\PSoC5/UART_2.c **** 
 317:.\Generated_Source\PSoC5/UART_2.c ****     #if(UART_2_RX_INTERRUPT_ENABLED)
 318:.\Generated_Source\PSoC5/UART_2.c **** 
 319:.\Generated_Source\PSoC5/UART_2.c ****         /*******************************************************************************
 320:.\Generated_Source\PSoC5/UART_2.c ****         * Function Name: UART_2_EnableRxInt
 321:.\Generated_Source\PSoC5/UART_2.c ****         ********************************************************************************
 322:.\Generated_Source\PSoC5/UART_2.c ****         *
 323:.\Generated_Source\PSoC5/UART_2.c ****         * Summary:
 324:.\Generated_Source\PSoC5/UART_2.c ****         *  Enable RX interrupt generation
 325:.\Generated_Source\PSoC5/UART_2.c ****         *
 326:.\Generated_Source\PSoC5/UART_2.c ****         * Parameters:
 327:.\Generated_Source\PSoC5/UART_2.c ****         *  None.
 328:.\Generated_Source\PSoC5/UART_2.c ****         *
 329:.\Generated_Source\PSoC5/UART_2.c ****         * Return:
 330:.\Generated_Source\PSoC5/UART_2.c ****         *  None.
 331:.\Generated_Source\PSoC5/UART_2.c ****         *
 332:.\Generated_Source\PSoC5/UART_2.c ****         * Theory:
 333:.\Generated_Source\PSoC5/UART_2.c ****         *  Enable the interrupt output -or- the interrupt component itself
 334:.\Generated_Source\PSoC5/UART_2.c ****         *
 335:.\Generated_Source\PSoC5/UART_2.c ****         *******************************************************************************/
 336:.\Generated_Source\PSoC5/UART_2.c ****         void UART_2_EnableRxInt(void) 
 337:.\Generated_Source\PSoC5/UART_2.c ****         {
 338:.\Generated_Source\PSoC5/UART_2.c ****             CyIntEnable(UART_2_RX_VECT_NUM);
 339:.\Generated_Source\PSoC5/UART_2.c ****         }
 340:.\Generated_Source\PSoC5/UART_2.c **** 
 341:.\Generated_Source\PSoC5/UART_2.c **** 
 342:.\Generated_Source\PSoC5/UART_2.c ****         /*******************************************************************************
 343:.\Generated_Source\PSoC5/UART_2.c ****         * Function Name: UART_2_DisableRxInt
 344:.\Generated_Source\PSoC5/UART_2.c ****         ********************************************************************************
 345:.\Generated_Source\PSoC5/UART_2.c ****         *
 346:.\Generated_Source\PSoC5/UART_2.c ****         * Summary:
 347:.\Generated_Source\PSoC5/UART_2.c ****         *  Disable RX interrupt generation
 348:.\Generated_Source\PSoC5/UART_2.c ****         *
 349:.\Generated_Source\PSoC5/UART_2.c ****         * Parameters:
 350:.\Generated_Source\PSoC5/UART_2.c ****         *  None.
 351:.\Generated_Source\PSoC5/UART_2.c ****         *
 352:.\Generated_Source\PSoC5/UART_2.c ****         * Return:
 353:.\Generated_Source\PSoC5/UART_2.c ****         *  None.
 354:.\Generated_Source\PSoC5/UART_2.c ****         *
 355:.\Generated_Source\PSoC5/UART_2.c ****         * Theory:
 356:.\Generated_Source\PSoC5/UART_2.c ****         *  Disable the interrupt output -or- the interrupt component itself
ARM GAS  C:\Users\Owner\AppData\Local\Temp\ccR6XCwT.s 			page 13


 357:.\Generated_Source\PSoC5/UART_2.c ****         *
 358:.\Generated_Source\PSoC5/UART_2.c ****         *******************************************************************************/
 359:.\Generated_Source\PSoC5/UART_2.c ****         void UART_2_DisableRxInt(void) 
 360:.\Generated_Source\PSoC5/UART_2.c ****         {
 361:.\Generated_Source\PSoC5/UART_2.c ****             CyIntDisable(UART_2_RX_VECT_NUM);
 362:.\Generated_Source\PSoC5/UART_2.c ****         }
 363:.\Generated_Source\PSoC5/UART_2.c **** 
 364:.\Generated_Source\PSoC5/UART_2.c ****     #endif /* UART_2_RX_INTERRUPT_ENABLED */
 365:.\Generated_Source\PSoC5/UART_2.c **** 
 366:.\Generated_Source\PSoC5/UART_2.c **** 
 367:.\Generated_Source\PSoC5/UART_2.c ****     /*******************************************************************************
 368:.\Generated_Source\PSoC5/UART_2.c ****     * Function Name: UART_2_SetRxInterruptMode
 369:.\Generated_Source\PSoC5/UART_2.c ****     ********************************************************************************
 370:.\Generated_Source\PSoC5/UART_2.c ****     *
 371:.\Generated_Source\PSoC5/UART_2.c ****     * Summary:
 372:.\Generated_Source\PSoC5/UART_2.c ****     *  Configure which status bits trigger an interrupt event
 373:.\Generated_Source\PSoC5/UART_2.c ****     *
 374:.\Generated_Source\PSoC5/UART_2.c ****     * Parameters:
 375:.\Generated_Source\PSoC5/UART_2.c ****     *  IntSrc:  An or'd combination of the desired status bit masks (defined in
 376:.\Generated_Source\PSoC5/UART_2.c ****     *           the header file)
 377:.\Generated_Source\PSoC5/UART_2.c ****     *
 378:.\Generated_Source\PSoC5/UART_2.c ****     * Return:
 379:.\Generated_Source\PSoC5/UART_2.c ****     *  None.
 380:.\Generated_Source\PSoC5/UART_2.c ****     *
 381:.\Generated_Source\PSoC5/UART_2.c ****     * Theory:
 382:.\Generated_Source\PSoC5/UART_2.c ****     *  Enables the output of specific status bits to the interrupt controller
 383:.\Generated_Source\PSoC5/UART_2.c ****     *
 384:.\Generated_Source\PSoC5/UART_2.c ****     *******************************************************************************/
 385:.\Generated_Source\PSoC5/UART_2.c ****     void UART_2_SetRxInterruptMode(uint8 intSrc) 
 386:.\Generated_Source\PSoC5/UART_2.c ****     {
 329              		.loc 1 386 0
 330              		.cfi_startproc
 331              		@ args = 0, pretend = 0, frame = 8
 332              		@ frame_needed = 1, uses_anonymous_args = 0
 333              		@ link register save eliminated.
 334 0000 80B4     		push	{r7}
 335              	.LCFI15:
 336              		.cfi_def_cfa_offset 4
 337              		.cfi_offset 7, -4
 338 0002 83B0     		sub	sp, sp, #12
 339              	.LCFI16:
 340              		.cfi_def_cfa_offset 16
 341 0004 00AF     		add	r7, sp, #0
 342              	.LCFI17:
 343              		.cfi_def_cfa_register 7
 344 0006 0346     		mov	r3, r0
 345 0008 FB71     		strb	r3, [r7, #7]
 387:.\Generated_Source\PSoC5/UART_2.c ****         UART_2_RXSTATUS_MASK_REG  = intSrc;
 346              		.loc 1 387 0
 347 000a 46F28743 		movw	r3, #25735
 348 000e C4F20003 		movt	r3, 16384
 349 0012 FA79     		ldrb	r2, [r7, #7]
 350 0014 1A70     		strb	r2, [r3, #0]
 388:.\Generated_Source\PSoC5/UART_2.c ****     }
 351              		.loc 1 388 0
 352 0016 07F10C07 		add	r7, r7, #12
 353 001a BD46     		mov	sp, r7
ARM GAS  C:\Users\Owner\AppData\Local\Temp\ccR6XCwT.s 			page 14


 354 001c 80BC     		pop	{r7}
 355 001e 7047     		bx	lr
 356              		.cfi_endproc
 357              	.LFE6:
 358              		.size	UART_2_SetRxInterruptMode, .-UART_2_SetRxInterruptMode
 359              		.section	.text.UART_2_ReadRxData,"ax",%progbits
 360              		.align	2
 361              		.global	UART_2_ReadRxData
 362              		.thumb
 363              		.thumb_func
 364              		.type	UART_2_ReadRxData, %function
 365              	UART_2_ReadRxData:
 366              	.LFB7:
 389:.\Generated_Source\PSoC5/UART_2.c **** 
 390:.\Generated_Source\PSoC5/UART_2.c **** 
 391:.\Generated_Source\PSoC5/UART_2.c ****     /*******************************************************************************
 392:.\Generated_Source\PSoC5/UART_2.c ****     * Function Name: UART_2_ReadRxData
 393:.\Generated_Source\PSoC5/UART_2.c ****     ********************************************************************************
 394:.\Generated_Source\PSoC5/UART_2.c ****     *
 395:.\Generated_Source\PSoC5/UART_2.c ****     * Summary:
 396:.\Generated_Source\PSoC5/UART_2.c ****     *  Returns data in RX Data register without checking status register to
 397:.\Generated_Source\PSoC5/UART_2.c ****     *  determine if data is valid
 398:.\Generated_Source\PSoC5/UART_2.c ****     *
 399:.\Generated_Source\PSoC5/UART_2.c ****     * Parameters:
 400:.\Generated_Source\PSoC5/UART_2.c ****     *  None.
 401:.\Generated_Source\PSoC5/UART_2.c ****     *
 402:.\Generated_Source\PSoC5/UART_2.c ****     * Return:
 403:.\Generated_Source\PSoC5/UART_2.c ****     *  Received data from RX register
 404:.\Generated_Source\PSoC5/UART_2.c ****     *
 405:.\Generated_Source\PSoC5/UART_2.c ****     * Global Variables:
 406:.\Generated_Source\PSoC5/UART_2.c ****     *  UART_2_rxBuffer - RAM buffer pointer for save received data.
 407:.\Generated_Source\PSoC5/UART_2.c ****     *  UART_2_rxBufferWrite - cyclic index for write to rxBuffer,
 408:.\Generated_Source\PSoC5/UART_2.c ****     *     checked to identify new data.
 409:.\Generated_Source\PSoC5/UART_2.c ****     *  UART_2_rxBufferRead - cyclic index for read from rxBuffer,
 410:.\Generated_Source\PSoC5/UART_2.c ****     *     incremented after each byte has been read from buffer.
 411:.\Generated_Source\PSoC5/UART_2.c ****     *  UART_2_rxBufferLoopDetect - creared if loop condition was detected
 412:.\Generated_Source\PSoC5/UART_2.c ****     *     in RX ISR.
 413:.\Generated_Source\PSoC5/UART_2.c ****     *
 414:.\Generated_Source\PSoC5/UART_2.c ****     * Reentrant:
 415:.\Generated_Source\PSoC5/UART_2.c ****     *  No.
 416:.\Generated_Source\PSoC5/UART_2.c ****     *
 417:.\Generated_Source\PSoC5/UART_2.c ****     *******************************************************************************/
 418:.\Generated_Source\PSoC5/UART_2.c ****     uint8 UART_2_ReadRxData(void) 
 419:.\Generated_Source\PSoC5/UART_2.c ****     {
 367              		.loc 1 419 0
 368              		.cfi_startproc
 369              		@ args = 0, pretend = 0, frame = 8
 370              		@ frame_needed = 1, uses_anonymous_args = 0
 371              		@ link register save eliminated.
 372 0000 80B4     		push	{r7}
 373              	.LCFI18:
 374              		.cfi_def_cfa_offset 4
 375              		.cfi_offset 7, -4
 376 0002 83B0     		sub	sp, sp, #12
 377              	.LCFI19:
 378              		.cfi_def_cfa_offset 16
 379 0004 00AF     		add	r7, sp, #0
ARM GAS  C:\Users\Owner\AppData\Local\Temp\ccR6XCwT.s 			page 15


 380              	.LCFI20:
 381              		.cfi_def_cfa_register 7
 420:.\Generated_Source\PSoC5/UART_2.c ****         uint8 rxData;
 421:.\Generated_Source\PSoC5/UART_2.c **** 
 422:.\Generated_Source\PSoC5/UART_2.c ****         #if(UART_2_RXBUFFERSIZE > UART_2_FIFO_LENGTH)
 423:.\Generated_Source\PSoC5/UART_2.c ****             uint8 loc_rxBufferRead;
 424:.\Generated_Source\PSoC5/UART_2.c ****             uint8 loc_rxBufferWrite;
 425:.\Generated_Source\PSoC5/UART_2.c ****             /* Protect variables that could change on interrupt. */
 426:.\Generated_Source\PSoC5/UART_2.c ****             /* Disable Rx interrupt. */
 427:.\Generated_Source\PSoC5/UART_2.c ****             #if(UART_2_RX_INTERRUPT_ENABLED)
 428:.\Generated_Source\PSoC5/UART_2.c ****                 UART_2_DisableRxInt();
 429:.\Generated_Source\PSoC5/UART_2.c ****             #endif /* UART_2_RX_INTERRUPT_ENABLED */
 430:.\Generated_Source\PSoC5/UART_2.c ****             loc_rxBufferRead = UART_2_rxBufferRead;
 431:.\Generated_Source\PSoC5/UART_2.c ****             loc_rxBufferWrite = UART_2_rxBufferWrite;
 432:.\Generated_Source\PSoC5/UART_2.c **** 
 433:.\Generated_Source\PSoC5/UART_2.c ****             if( (UART_2_rxBufferLoopDetect != 0u) || (loc_rxBufferRead != loc_rxBufferWrite) )
 434:.\Generated_Source\PSoC5/UART_2.c ****             {
 435:.\Generated_Source\PSoC5/UART_2.c ****                 rxData = UART_2_rxBuffer[loc_rxBufferRead];
 436:.\Generated_Source\PSoC5/UART_2.c ****                 loc_rxBufferRead++;
 437:.\Generated_Source\PSoC5/UART_2.c **** 
 438:.\Generated_Source\PSoC5/UART_2.c ****                 if(loc_rxBufferRead >= UART_2_RXBUFFERSIZE)
 439:.\Generated_Source\PSoC5/UART_2.c ****                 {
 440:.\Generated_Source\PSoC5/UART_2.c ****                     loc_rxBufferRead = 0u;
 441:.\Generated_Source\PSoC5/UART_2.c ****                 }
 442:.\Generated_Source\PSoC5/UART_2.c ****                 /* Update the real pointer */
 443:.\Generated_Source\PSoC5/UART_2.c ****                 UART_2_rxBufferRead = loc_rxBufferRead;
 444:.\Generated_Source\PSoC5/UART_2.c **** 
 445:.\Generated_Source\PSoC5/UART_2.c ****                 if(UART_2_rxBufferLoopDetect != 0u )
 446:.\Generated_Source\PSoC5/UART_2.c ****                 {
 447:.\Generated_Source\PSoC5/UART_2.c ****                     UART_2_rxBufferLoopDetect = 0u;
 448:.\Generated_Source\PSoC5/UART_2.c ****                     #if( (UART_2_RX_INTERRUPT_ENABLED) && (UART_2_FLOW_CONTROL != 0u) && \
 449:.\Generated_Source\PSoC5/UART_2.c ****                          (UART_2_RXBUFFERSIZE > UART_2_FIFO_LENGTH) )
 450:.\Generated_Source\PSoC5/UART_2.c ****                         /* When Hardware Flow Control selected - return RX mask */
 451:.\Generated_Source\PSoC5/UART_2.c ****                         #if( UART_2_HD_ENABLED )
 452:.\Generated_Source\PSoC5/UART_2.c ****                             if((UART_2_CONTROL_REG & UART_2_CTRL_HD_SEND) == 0u)
 453:.\Generated_Source\PSoC5/UART_2.c ****                             {   /* In Half duplex mode return RX mask only in RX
 454:.\Generated_Source\PSoC5/UART_2.c ****                                 *  configuration set, otherwise
 455:.\Generated_Source\PSoC5/UART_2.c ****                                 *  mask will be returned in LoadRxConfig() API.
 456:.\Generated_Source\PSoC5/UART_2.c ****                                 */
 457:.\Generated_Source\PSoC5/UART_2.c ****                                 UART_2_RXSTATUS_MASK_REG  |= UART_2_RX_STS_FIFO_NOTEMPTY;
 458:.\Generated_Source\PSoC5/UART_2.c ****                             }
 459:.\Generated_Source\PSoC5/UART_2.c ****                         #else
 460:.\Generated_Source\PSoC5/UART_2.c ****                             UART_2_RXSTATUS_MASK_REG  |= UART_2_RX_STS_FIFO_NOTEMPTY;
 461:.\Generated_Source\PSoC5/UART_2.c ****                         #endif /* end UART_2_HD_ENABLED */
 462:.\Generated_Source\PSoC5/UART_2.c ****                     #endif /* UART_2_RX_INTERRUPT_ENABLED and Hardware flow control*/
 463:.\Generated_Source\PSoC5/UART_2.c ****                 }
 464:.\Generated_Source\PSoC5/UART_2.c ****             }
 465:.\Generated_Source\PSoC5/UART_2.c ****             else
 466:.\Generated_Source\PSoC5/UART_2.c ****             {   /* Needs to check status for RX_STS_FIFO_NOTEMPTY bit*/
 467:.\Generated_Source\PSoC5/UART_2.c ****                 rxData = UART_2_RXDATA_REG;
 468:.\Generated_Source\PSoC5/UART_2.c ****             }
 469:.\Generated_Source\PSoC5/UART_2.c **** 
 470:.\Generated_Source\PSoC5/UART_2.c ****             /* Enable Rx interrupt. */
 471:.\Generated_Source\PSoC5/UART_2.c ****             #if(UART_2_RX_INTERRUPT_ENABLED)
 472:.\Generated_Source\PSoC5/UART_2.c ****                 UART_2_EnableRxInt();
 473:.\Generated_Source\PSoC5/UART_2.c ****             #endif /* End UART_2_RX_INTERRUPT_ENABLED */
 474:.\Generated_Source\PSoC5/UART_2.c **** 
ARM GAS  C:\Users\Owner\AppData\Local\Temp\ccR6XCwT.s 			page 16


 475:.\Generated_Source\PSoC5/UART_2.c ****         #else /* UART_2_RXBUFFERSIZE > UART_2_FIFO_LENGTH */
 476:.\Generated_Source\PSoC5/UART_2.c **** 
 477:.\Generated_Source\PSoC5/UART_2.c ****             /* Needs to check status for RX_STS_FIFO_NOTEMPTY bit*/
 478:.\Generated_Source\PSoC5/UART_2.c ****             rxData = UART_2_RXDATA_REG;
 382              		.loc 1 478 0
 383 0006 46F24753 		movw	r3, #25927
 384 000a C4F20003 		movt	r3, 16384
 385 000e 1B78     		ldrb	r3, [r3, #0]
 386 0010 FB71     		strb	r3, [r7, #7]
 479:.\Generated_Source\PSoC5/UART_2.c **** 
 480:.\Generated_Source\PSoC5/UART_2.c ****         #endif /* UART_2_RXBUFFERSIZE > UART_2_FIFO_LENGTH */
 481:.\Generated_Source\PSoC5/UART_2.c **** 
 482:.\Generated_Source\PSoC5/UART_2.c ****         return(rxData);
 387              		.loc 1 482 0
 388 0012 FB79     		ldrb	r3, [r7, #7]	@ zero_extendqisi2
 483:.\Generated_Source\PSoC5/UART_2.c ****     }
 389              		.loc 1 483 0
 390 0014 1846     		mov	r0, r3
 391 0016 07F10C07 		add	r7, r7, #12
 392 001a BD46     		mov	sp, r7
 393 001c 80BC     		pop	{r7}
 394 001e 7047     		bx	lr
 395              		.cfi_endproc
 396              	.LFE7:
 397              		.size	UART_2_ReadRxData, .-UART_2_ReadRxData
 398              		.section	.text.UART_2_ReadRxStatus,"ax",%progbits
 399              		.align	2
 400              		.global	UART_2_ReadRxStatus
 401              		.thumb
 402              		.thumb_func
 403              		.type	UART_2_ReadRxStatus, %function
 404              	UART_2_ReadRxStatus:
 405              	.LFB8:
 484:.\Generated_Source\PSoC5/UART_2.c **** 
 485:.\Generated_Source\PSoC5/UART_2.c **** 
 486:.\Generated_Source\PSoC5/UART_2.c ****     /*******************************************************************************
 487:.\Generated_Source\PSoC5/UART_2.c ****     * Function Name: UART_2_ReadRxStatus
 488:.\Generated_Source\PSoC5/UART_2.c ****     ********************************************************************************
 489:.\Generated_Source\PSoC5/UART_2.c ****     *
 490:.\Generated_Source\PSoC5/UART_2.c ****     * Summary:
 491:.\Generated_Source\PSoC5/UART_2.c ****     *  Read the current state of the status register
 492:.\Generated_Source\PSoC5/UART_2.c ****     *  And detect software buffer overflow.
 493:.\Generated_Source\PSoC5/UART_2.c ****     *
 494:.\Generated_Source\PSoC5/UART_2.c ****     * Parameters:
 495:.\Generated_Source\PSoC5/UART_2.c ****     *  None.
 496:.\Generated_Source\PSoC5/UART_2.c ****     *
 497:.\Generated_Source\PSoC5/UART_2.c ****     * Return:
 498:.\Generated_Source\PSoC5/UART_2.c ****     *  Current state of the status register.
 499:.\Generated_Source\PSoC5/UART_2.c ****     *
 500:.\Generated_Source\PSoC5/UART_2.c ****     * Global Variables:
 501:.\Generated_Source\PSoC5/UART_2.c ****     *  UART_2_rxBufferOverflow - used to indicate overload condition.
 502:.\Generated_Source\PSoC5/UART_2.c ****     *   It set to one in RX interrupt when there isn?t free space in
 503:.\Generated_Source\PSoC5/UART_2.c ****     *   UART_2_rxBufferRead to write new data. This condition returned
 504:.\Generated_Source\PSoC5/UART_2.c ****     *   and cleared to zero by this API as an
 505:.\Generated_Source\PSoC5/UART_2.c ****     *   UART_2_RX_STS_SOFT_BUFF_OVER bit along with RX Status register
 506:.\Generated_Source\PSoC5/UART_2.c ****     *   bits.
 507:.\Generated_Source\PSoC5/UART_2.c ****     *
ARM GAS  C:\Users\Owner\AppData\Local\Temp\ccR6XCwT.s 			page 17


 508:.\Generated_Source\PSoC5/UART_2.c ****     *******************************************************************************/
 509:.\Generated_Source\PSoC5/UART_2.c ****     uint8 UART_2_ReadRxStatus(void) 
 510:.\Generated_Source\PSoC5/UART_2.c ****     {
 406              		.loc 1 510 0
 407              		.cfi_startproc
 408              		@ args = 0, pretend = 0, frame = 8
 409              		@ frame_needed = 1, uses_anonymous_args = 0
 410              		@ link register save eliminated.
 411 0000 80B4     		push	{r7}
 412              	.LCFI21:
 413              		.cfi_def_cfa_offset 4
 414              		.cfi_offset 7, -4
 415 0002 83B0     		sub	sp, sp, #12
 416              	.LCFI22:
 417              		.cfi_def_cfa_offset 16
 418 0004 00AF     		add	r7, sp, #0
 419              	.LCFI23:
 420              		.cfi_def_cfa_register 7
 511:.\Generated_Source\PSoC5/UART_2.c ****         uint8 status;
 512:.\Generated_Source\PSoC5/UART_2.c **** 
 513:.\Generated_Source\PSoC5/UART_2.c ****         status = UART_2_RXSTATUS_REG & UART_2_RX_HW_MASK;
 421              		.loc 1 513 0
 422 0006 46F26743 		movw	r3, #25703
 423 000a C4F20003 		movt	r3, 16384
 424 000e 1B78     		ldrb	r3, [r3, #0]
 425 0010 DBB2     		uxtb	r3, r3
 426 0012 03F07F03 		and	r3, r3, #127
 427 0016 FB71     		strb	r3, [r7, #7]
 514:.\Generated_Source\PSoC5/UART_2.c **** 
 515:.\Generated_Source\PSoC5/UART_2.c ****         #if(UART_2_RXBUFFERSIZE > UART_2_FIFO_LENGTH)
 516:.\Generated_Source\PSoC5/UART_2.c ****             if( UART_2_rxBufferOverflow != 0u )
 517:.\Generated_Source\PSoC5/UART_2.c ****             {
 518:.\Generated_Source\PSoC5/UART_2.c ****                 status |= UART_2_RX_STS_SOFT_BUFF_OVER;
 519:.\Generated_Source\PSoC5/UART_2.c ****                 UART_2_rxBufferOverflow = 0u;
 520:.\Generated_Source\PSoC5/UART_2.c ****             }
 521:.\Generated_Source\PSoC5/UART_2.c ****         #endif /* UART_2_RXBUFFERSIZE */
 522:.\Generated_Source\PSoC5/UART_2.c **** 
 523:.\Generated_Source\PSoC5/UART_2.c ****         return(status);
 428              		.loc 1 523 0
 429 0018 FB79     		ldrb	r3, [r7, #7]	@ zero_extendqisi2
 524:.\Generated_Source\PSoC5/UART_2.c ****     }
 430              		.loc 1 524 0
 431 001a 1846     		mov	r0, r3
 432 001c 07F10C07 		add	r7, r7, #12
 433 0020 BD46     		mov	sp, r7
 434 0022 80BC     		pop	{r7}
 435 0024 7047     		bx	lr
 436              		.cfi_endproc
 437              	.LFE8:
 438              		.size	UART_2_ReadRxStatus, .-UART_2_ReadRxStatus
 439 0026 00BF     		.section	.text.UART_2_GetChar,"ax",%progbits
 440              		.align	2
 441              		.global	UART_2_GetChar
 442              		.thumb
 443              		.thumb_func
 444              		.type	UART_2_GetChar, %function
 445              	UART_2_GetChar:
ARM GAS  C:\Users\Owner\AppData\Local\Temp\ccR6XCwT.s 			page 18


 446              	.LFB9:
 525:.\Generated_Source\PSoC5/UART_2.c **** 
 526:.\Generated_Source\PSoC5/UART_2.c **** 
 527:.\Generated_Source\PSoC5/UART_2.c ****     /*******************************************************************************
 528:.\Generated_Source\PSoC5/UART_2.c ****     * Function Name: UART_2_GetChar
 529:.\Generated_Source\PSoC5/UART_2.c ****     ********************************************************************************
 530:.\Generated_Source\PSoC5/UART_2.c ****     *
 531:.\Generated_Source\PSoC5/UART_2.c ****     * Summary:
 532:.\Generated_Source\PSoC5/UART_2.c ****     *  Reads UART RX buffer immediately, if data is not available or an error
 533:.\Generated_Source\PSoC5/UART_2.c ****     *  condition exists, zero is returned; otherwise, character is read and
 534:.\Generated_Source\PSoC5/UART_2.c ****     *  returned.
 535:.\Generated_Source\PSoC5/UART_2.c ****     *
 536:.\Generated_Source\PSoC5/UART_2.c ****     * Parameters:
 537:.\Generated_Source\PSoC5/UART_2.c ****     *  None.
 538:.\Generated_Source\PSoC5/UART_2.c ****     *
 539:.\Generated_Source\PSoC5/UART_2.c ****     * Return:
 540:.\Generated_Source\PSoC5/UART_2.c ****     *  Character read from UART RX buffer. ASCII characters from 1 to 255 are valid.
 541:.\Generated_Source\PSoC5/UART_2.c ****     *  A returned zero signifies an error condition or no data available.
 542:.\Generated_Source\PSoC5/UART_2.c ****     *
 543:.\Generated_Source\PSoC5/UART_2.c ****     * Global Variables:
 544:.\Generated_Source\PSoC5/UART_2.c ****     *  UART_2_rxBuffer - RAM buffer pointer for save received data.
 545:.\Generated_Source\PSoC5/UART_2.c ****     *  UART_2_rxBufferWrite - cyclic index for write to rxBuffer,
 546:.\Generated_Source\PSoC5/UART_2.c ****     *     checked to identify new data.
 547:.\Generated_Source\PSoC5/UART_2.c ****     *  UART_2_rxBufferRead - cyclic index for read from rxBuffer,
 548:.\Generated_Source\PSoC5/UART_2.c ****     *     incremented after each byte has been read from buffer.
 549:.\Generated_Source\PSoC5/UART_2.c ****     *  UART_2_rxBufferLoopDetect - creared if loop condition was detected
 550:.\Generated_Source\PSoC5/UART_2.c ****     *     in RX ISR.
 551:.\Generated_Source\PSoC5/UART_2.c ****     *
 552:.\Generated_Source\PSoC5/UART_2.c ****     * Reentrant:
 553:.\Generated_Source\PSoC5/UART_2.c ****     *  No.
 554:.\Generated_Source\PSoC5/UART_2.c ****     *
 555:.\Generated_Source\PSoC5/UART_2.c ****     *******************************************************************************/
 556:.\Generated_Source\PSoC5/UART_2.c ****     uint8 UART_2_GetChar(void) 
 557:.\Generated_Source\PSoC5/UART_2.c ****     {
 447              		.loc 1 557 0
 448              		.cfi_startproc
 449              		@ args = 0, pretend = 0, frame = 8
 450              		@ frame_needed = 1, uses_anonymous_args = 0
 451              		@ link register save eliminated.
 452 0000 80B4     		push	{r7}
 453              	.LCFI24:
 454              		.cfi_def_cfa_offset 4
 455              		.cfi_offset 7, -4
 456 0002 83B0     		sub	sp, sp, #12
 457              	.LCFI25:
 458              		.cfi_def_cfa_offset 16
 459 0004 00AF     		add	r7, sp, #0
 460              	.LCFI26:
 461              		.cfi_def_cfa_register 7
 558:.\Generated_Source\PSoC5/UART_2.c ****         uint8 rxData = 0u;
 462              		.loc 1 558 0
 463 0006 4FF00003 		mov	r3, #0
 464 000a FB71     		strb	r3, [r7, #7]
 559:.\Generated_Source\PSoC5/UART_2.c ****         uint8 rxStatus;
 560:.\Generated_Source\PSoC5/UART_2.c **** 
 561:.\Generated_Source\PSoC5/UART_2.c ****         #if(UART_2_RXBUFFERSIZE > UART_2_FIFO_LENGTH)
 562:.\Generated_Source\PSoC5/UART_2.c ****             uint8 loc_rxBufferRead;
ARM GAS  C:\Users\Owner\AppData\Local\Temp\ccR6XCwT.s 			page 19


 563:.\Generated_Source\PSoC5/UART_2.c ****             uint8 loc_rxBufferWrite;
 564:.\Generated_Source\PSoC5/UART_2.c ****             /* Protect variables that could change on interrupt. */
 565:.\Generated_Source\PSoC5/UART_2.c ****             /* Disable Rx interrupt. */
 566:.\Generated_Source\PSoC5/UART_2.c ****             #if(UART_2_RX_INTERRUPT_ENABLED)
 567:.\Generated_Source\PSoC5/UART_2.c ****                 UART_2_DisableRxInt();
 568:.\Generated_Source\PSoC5/UART_2.c ****             #endif /* UART_2_RX_INTERRUPT_ENABLED */
 569:.\Generated_Source\PSoC5/UART_2.c ****             loc_rxBufferRead = UART_2_rxBufferRead;
 570:.\Generated_Source\PSoC5/UART_2.c ****             loc_rxBufferWrite = UART_2_rxBufferWrite;
 571:.\Generated_Source\PSoC5/UART_2.c **** 
 572:.\Generated_Source\PSoC5/UART_2.c ****             if( (UART_2_rxBufferLoopDetect != 0u) || (loc_rxBufferRead != loc_rxBufferWrite) )
 573:.\Generated_Source\PSoC5/UART_2.c ****             {
 574:.\Generated_Source\PSoC5/UART_2.c ****                 rxData = UART_2_rxBuffer[loc_rxBufferRead];
 575:.\Generated_Source\PSoC5/UART_2.c ****                 loc_rxBufferRead++;
 576:.\Generated_Source\PSoC5/UART_2.c ****                 if(loc_rxBufferRead >= UART_2_RXBUFFERSIZE)
 577:.\Generated_Source\PSoC5/UART_2.c ****                 {
 578:.\Generated_Source\PSoC5/UART_2.c ****                     loc_rxBufferRead = 0u;
 579:.\Generated_Source\PSoC5/UART_2.c ****                 }
 580:.\Generated_Source\PSoC5/UART_2.c ****                 /* Update the real pointer */
 581:.\Generated_Source\PSoC5/UART_2.c ****                 UART_2_rxBufferRead = loc_rxBufferRead;
 582:.\Generated_Source\PSoC5/UART_2.c **** 
 583:.\Generated_Source\PSoC5/UART_2.c ****                 if(UART_2_rxBufferLoopDetect > 0u )
 584:.\Generated_Source\PSoC5/UART_2.c ****                 {
 585:.\Generated_Source\PSoC5/UART_2.c ****                     UART_2_rxBufferLoopDetect = 0u;
 586:.\Generated_Source\PSoC5/UART_2.c ****                     #if( (UART_2_RX_INTERRUPT_ENABLED) && (UART_2_FLOW_CONTROL != 0u) )
 587:.\Generated_Source\PSoC5/UART_2.c ****                         /* When Hardware Flow Control selected - return RX mask */
 588:.\Generated_Source\PSoC5/UART_2.c ****                         #if( UART_2_HD_ENABLED )
 589:.\Generated_Source\PSoC5/UART_2.c ****                             if((UART_2_CONTROL_REG & UART_2_CTRL_HD_SEND) == 0u)
 590:.\Generated_Source\PSoC5/UART_2.c ****                             {   /* In Half duplex mode return RX mask only if
 591:.\Generated_Source\PSoC5/UART_2.c ****                                 *  RX configuration set, otherwise
 592:.\Generated_Source\PSoC5/UART_2.c ****                                 *  mask will be returned in LoadRxConfig() API.
 593:.\Generated_Source\PSoC5/UART_2.c ****                                 */
 594:.\Generated_Source\PSoC5/UART_2.c ****                                 UART_2_RXSTATUS_MASK_REG  |= UART_2_RX_STS_FIFO_NOTEMPTY;
 595:.\Generated_Source\PSoC5/UART_2.c ****                             }
 596:.\Generated_Source\PSoC5/UART_2.c ****                         #else
 597:.\Generated_Source\PSoC5/UART_2.c ****                             UART_2_RXSTATUS_MASK_REG  |= UART_2_RX_STS_FIFO_NOTEMPTY;
 598:.\Generated_Source\PSoC5/UART_2.c ****                         #endif /* end UART_2_HD_ENABLED */
 599:.\Generated_Source\PSoC5/UART_2.c ****                     #endif /* UART_2_RX_INTERRUPT_ENABLED and Hardware flow control*/
 600:.\Generated_Source\PSoC5/UART_2.c ****                 }
 601:.\Generated_Source\PSoC5/UART_2.c **** 
 602:.\Generated_Source\PSoC5/UART_2.c ****             }
 603:.\Generated_Source\PSoC5/UART_2.c ****             else
 604:.\Generated_Source\PSoC5/UART_2.c ****             {   rxStatus = UART_2_RXSTATUS_REG;
 605:.\Generated_Source\PSoC5/UART_2.c ****                 if((rxStatus & UART_2_RX_STS_FIFO_NOTEMPTY) != 0u)
 606:.\Generated_Source\PSoC5/UART_2.c ****                 {   /* Read received data from FIFO*/
 607:.\Generated_Source\PSoC5/UART_2.c ****                     rxData = UART_2_RXDATA_REG;
 608:.\Generated_Source\PSoC5/UART_2.c ****                     /*Check status on error*/
 609:.\Generated_Source\PSoC5/UART_2.c ****                     if((rxStatus & (UART_2_RX_STS_BREAK | UART_2_RX_STS_PAR_ERROR |
 610:.\Generated_Source\PSoC5/UART_2.c ****                                    UART_2_RX_STS_STOP_ERROR | UART_2_RX_STS_OVERRUN)) != 0u)
 611:.\Generated_Source\PSoC5/UART_2.c ****                     {
 612:.\Generated_Source\PSoC5/UART_2.c ****                         rxData = 0u;
 613:.\Generated_Source\PSoC5/UART_2.c ****                     }
 614:.\Generated_Source\PSoC5/UART_2.c ****                 }
 615:.\Generated_Source\PSoC5/UART_2.c ****             }
 616:.\Generated_Source\PSoC5/UART_2.c **** 
 617:.\Generated_Source\PSoC5/UART_2.c ****             /* Enable Rx interrupt. */
 618:.\Generated_Source\PSoC5/UART_2.c ****             #if(UART_2_RX_INTERRUPT_ENABLED)
 619:.\Generated_Source\PSoC5/UART_2.c ****                 UART_2_EnableRxInt();
ARM GAS  C:\Users\Owner\AppData\Local\Temp\ccR6XCwT.s 			page 20


 620:.\Generated_Source\PSoC5/UART_2.c ****             #endif /* UART_2_RX_INTERRUPT_ENABLED */
 621:.\Generated_Source\PSoC5/UART_2.c **** 
 622:.\Generated_Source\PSoC5/UART_2.c ****         #else /* UART_2_RXBUFFERSIZE > UART_2_FIFO_LENGTH */
 623:.\Generated_Source\PSoC5/UART_2.c **** 
 624:.\Generated_Source\PSoC5/UART_2.c ****             rxStatus =UART_2_RXSTATUS_REG;
 465              		.loc 1 624 0
 466 000c 46F26743 		movw	r3, #25703
 467 0010 C4F20003 		movt	r3, 16384
 468 0014 1B78     		ldrb	r3, [r3, #0]
 469 0016 BB71     		strb	r3, [r7, #6]
 625:.\Generated_Source\PSoC5/UART_2.c ****             if((rxStatus & UART_2_RX_STS_FIFO_NOTEMPTY) != 0u)
 470              		.loc 1 625 0
 471 0018 BB79     		ldrb	r3, [r7, #6]	@ zero_extendqisi2
 472 001a 03F02003 		and	r3, r3, #32
 473 001e 002B     		cmp	r3, #0
 474 0020 0DD0     		beq	.L15
 626:.\Generated_Source\PSoC5/UART_2.c ****             {   /* Read received data from FIFO*/
 627:.\Generated_Source\PSoC5/UART_2.c ****                 rxData = UART_2_RXDATA_REG;
 475              		.loc 1 627 0
 476 0022 46F24753 		movw	r3, #25927
 477 0026 C4F20003 		movt	r3, 16384
 478 002a 1B78     		ldrb	r3, [r3, #0]
 479 002c FB71     		strb	r3, [r7, #7]
 628:.\Generated_Source\PSoC5/UART_2.c ****                 /*Check status on error*/
 629:.\Generated_Source\PSoC5/UART_2.c ****                 if((rxStatus & (UART_2_RX_STS_BREAK | UART_2_RX_STS_PAR_ERROR |
 630:.\Generated_Source\PSoC5/UART_2.c ****                                UART_2_RX_STS_STOP_ERROR | UART_2_RX_STS_OVERRUN)) != 0u)
 480              		.loc 1 630 0
 481 002e BB79     		ldrb	r3, [r7, #6]	@ zero_extendqisi2
 482 0030 03F01E03 		and	r3, r3, #30
 629:.\Generated_Source\PSoC5/UART_2.c ****                 if((rxStatus & (UART_2_RX_STS_BREAK | UART_2_RX_STS_PAR_ERROR |
 483              		.loc 1 629 0
 484 0034 002B     		cmp	r3, #0
 485 0036 02D0     		beq	.L15
 631:.\Generated_Source\PSoC5/UART_2.c ****                 {
 632:.\Generated_Source\PSoC5/UART_2.c ****                     rxData = 0u;
 486              		.loc 1 632 0
 487 0038 4FF00003 		mov	r3, #0
 488 003c FB71     		strb	r3, [r7, #7]
 489              	.L15:
 633:.\Generated_Source\PSoC5/UART_2.c ****                 }
 634:.\Generated_Source\PSoC5/UART_2.c ****             }
 635:.\Generated_Source\PSoC5/UART_2.c ****         #endif /* UART_2_RXBUFFERSIZE > UART_2_FIFO_LENGTH */
 636:.\Generated_Source\PSoC5/UART_2.c **** 
 637:.\Generated_Source\PSoC5/UART_2.c ****         return(rxData);
 490              		.loc 1 637 0
 491 003e FB79     		ldrb	r3, [r7, #7]	@ zero_extendqisi2
 638:.\Generated_Source\PSoC5/UART_2.c ****     }
 492              		.loc 1 638 0
 493 0040 1846     		mov	r0, r3
 494 0042 07F10C07 		add	r7, r7, #12
 495 0046 BD46     		mov	sp, r7
 496 0048 80BC     		pop	{r7}
 497 004a 7047     		bx	lr
 498              		.cfi_endproc
 499              	.LFE9:
 500              		.size	UART_2_GetChar, .-UART_2_GetChar
 501              		.section	.text.UART_2_GetByte,"ax",%progbits
ARM GAS  C:\Users\Owner\AppData\Local\Temp\ccR6XCwT.s 			page 21


 502              		.align	2
 503              		.global	UART_2_GetByte
 504              		.thumb
 505              		.thumb_func
 506              		.type	UART_2_GetByte, %function
 507              	UART_2_GetByte:
 508              	.LFB10:
 639:.\Generated_Source\PSoC5/UART_2.c **** 
 640:.\Generated_Source\PSoC5/UART_2.c **** 
 641:.\Generated_Source\PSoC5/UART_2.c ****     /*******************************************************************************
 642:.\Generated_Source\PSoC5/UART_2.c ****     * Function Name: UART_2_GetByte
 643:.\Generated_Source\PSoC5/UART_2.c ****     ********************************************************************************
 644:.\Generated_Source\PSoC5/UART_2.c ****     *
 645:.\Generated_Source\PSoC5/UART_2.c ****     * Summary:
 646:.\Generated_Source\PSoC5/UART_2.c ****     *  Grab the next available byte of data from the recieve FIFO
 647:.\Generated_Source\PSoC5/UART_2.c ****     *
 648:.\Generated_Source\PSoC5/UART_2.c ****     * Parameters:
 649:.\Generated_Source\PSoC5/UART_2.c ****     *  None.
 650:.\Generated_Source\PSoC5/UART_2.c ****     *
 651:.\Generated_Source\PSoC5/UART_2.c ****     * Return:
 652:.\Generated_Source\PSoC5/UART_2.c ****     *  MSB contains Status Register and LSB contains UART RX data
 653:.\Generated_Source\PSoC5/UART_2.c ****     *
 654:.\Generated_Source\PSoC5/UART_2.c ****     * Reentrant:
 655:.\Generated_Source\PSoC5/UART_2.c ****     *  No.
 656:.\Generated_Source\PSoC5/UART_2.c ****     *
 657:.\Generated_Source\PSoC5/UART_2.c ****     *******************************************************************************/
 658:.\Generated_Source\PSoC5/UART_2.c ****     uint16 UART_2_GetByte(void) 
 659:.\Generated_Source\PSoC5/UART_2.c ****     {
 509              		.loc 1 659 0
 510              		.cfi_startproc
 511              		@ args = 0, pretend = 0, frame = 0
 512              		@ frame_needed = 1, uses_anonymous_args = 0
 513 0000 98B5     		push	{r3, r4, r7, lr}
 514              	.LCFI27:
 515              		.cfi_def_cfa_offset 16
 516              		.cfi_offset 3, -16
 517              		.cfi_offset 4, -12
 518              		.cfi_offset 7, -8
 519              		.cfi_offset 14, -4
 520 0002 00AF     		add	r7, sp, #0
 521              	.LCFI28:
 522              		.cfi_def_cfa_register 7
 660:.\Generated_Source\PSoC5/UART_2.c ****         return ( ((uint16)UART_2_ReadRxStatus() << 8u) | UART_2_ReadRxData() );
 523              		.loc 1 660 0
 524 0004 FFF7FEFF 		bl	UART_2_ReadRxStatus
 525 0008 0346     		mov	r3, r0
 526 000a 4FEA0323 		lsl	r3, r3, #8
 527 000e 9CB2     		uxth	r4, r3
 528 0010 FFF7FEFF 		bl	UART_2_ReadRxData
 529 0014 0346     		mov	r3, r0
 530 0016 2246     		mov	r2, r4	@ movhi
 531 0018 1343     		orrs	r3, r3, r2
 532 001a 9BB2     		uxth	r3, r3
 533 001c 9BB2     		uxth	r3, r3
 661:.\Generated_Source\PSoC5/UART_2.c ****     }
 534              		.loc 1 661 0
 535 001e 1846     		mov	r0, r3
ARM GAS  C:\Users\Owner\AppData\Local\Temp\ccR6XCwT.s 			page 22


 536 0020 98BD     		pop	{r3, r4, r7, pc}
 537              		.cfi_endproc
 538              	.LFE10:
 539              		.size	UART_2_GetByte, .-UART_2_GetByte
 540 0022 00BF     		.section	.text.UART_2_GetRxBufferSize,"ax",%progbits
 541              		.align	2
 542              		.global	UART_2_GetRxBufferSize
 543              		.thumb
 544              		.thumb_func
 545              		.type	UART_2_GetRxBufferSize, %function
 546              	UART_2_GetRxBufferSize:
 547              	.LFB11:
 662:.\Generated_Source\PSoC5/UART_2.c **** 
 663:.\Generated_Source\PSoC5/UART_2.c **** 
 664:.\Generated_Source\PSoC5/UART_2.c ****     /*******************************************************************************
 665:.\Generated_Source\PSoC5/UART_2.c ****     * Function Name: UART_2_GetRxBufferSize
 666:.\Generated_Source\PSoC5/UART_2.c ****     ********************************************************************************
 667:.\Generated_Source\PSoC5/UART_2.c ****     *
 668:.\Generated_Source\PSoC5/UART_2.c ****     * Summary:
 669:.\Generated_Source\PSoC5/UART_2.c ****     *  Determine the amount of bytes left in the RX buffer and return the count in
 670:.\Generated_Source\PSoC5/UART_2.c ****     *  bytes
 671:.\Generated_Source\PSoC5/UART_2.c ****     *
 672:.\Generated_Source\PSoC5/UART_2.c ****     * Parameters:
 673:.\Generated_Source\PSoC5/UART_2.c ****     *  None.
 674:.\Generated_Source\PSoC5/UART_2.c ****     *
 675:.\Generated_Source\PSoC5/UART_2.c ****     * Return:
 676:.\Generated_Source\PSoC5/UART_2.c ****     *  uint8: Integer count of the number of bytes left
 677:.\Generated_Source\PSoC5/UART_2.c ****     *  in the RX buffer
 678:.\Generated_Source\PSoC5/UART_2.c ****     *
 679:.\Generated_Source\PSoC5/UART_2.c ****     * Global Variables:
 680:.\Generated_Source\PSoC5/UART_2.c ****     *  UART_2_rxBufferWrite - used to calculate left bytes.
 681:.\Generated_Source\PSoC5/UART_2.c ****     *  UART_2_rxBufferRead - used to calculate left bytes.
 682:.\Generated_Source\PSoC5/UART_2.c ****     *  UART_2_rxBufferLoopDetect - checked to decide left bytes amount.
 683:.\Generated_Source\PSoC5/UART_2.c ****     *
 684:.\Generated_Source\PSoC5/UART_2.c ****     * Reentrant:
 685:.\Generated_Source\PSoC5/UART_2.c ****     *  No.
 686:.\Generated_Source\PSoC5/UART_2.c ****     *
 687:.\Generated_Source\PSoC5/UART_2.c ****     * Theory:
 688:.\Generated_Source\PSoC5/UART_2.c ****     *  Allows the user to find out how full the RX Buffer is.
 689:.\Generated_Source\PSoC5/UART_2.c ****     *
 690:.\Generated_Source\PSoC5/UART_2.c ****     *******************************************************************************/
 691:.\Generated_Source\PSoC5/UART_2.c ****     uint8 UART_2_GetRxBufferSize(void)
 692:.\Generated_Source\PSoC5/UART_2.c ****                                                             
 693:.\Generated_Source\PSoC5/UART_2.c ****     {
 548              		.loc 1 693 0
 549              		.cfi_startproc
 550              		@ args = 0, pretend = 0, frame = 8
 551              		@ frame_needed = 1, uses_anonymous_args = 0
 552              		@ link register save eliminated.
 553 0000 80B4     		push	{r7}
 554              	.LCFI29:
 555              		.cfi_def_cfa_offset 4
 556              		.cfi_offset 7, -4
 557 0002 83B0     		sub	sp, sp, #12
 558              	.LCFI30:
 559              		.cfi_def_cfa_offset 16
 560 0004 00AF     		add	r7, sp, #0
ARM GAS  C:\Users\Owner\AppData\Local\Temp\ccR6XCwT.s 			page 23


 561              	.LCFI31:
 562              		.cfi_def_cfa_register 7
 694:.\Generated_Source\PSoC5/UART_2.c ****         uint8 size;
 695:.\Generated_Source\PSoC5/UART_2.c **** 
 696:.\Generated_Source\PSoC5/UART_2.c ****         #if(UART_2_RXBUFFERSIZE > UART_2_FIFO_LENGTH)
 697:.\Generated_Source\PSoC5/UART_2.c **** 
 698:.\Generated_Source\PSoC5/UART_2.c ****             /* Disable Rx interrupt. */
 699:.\Generated_Source\PSoC5/UART_2.c ****             /* Protect variables that could change on interrupt. */
 700:.\Generated_Source\PSoC5/UART_2.c ****             #if(UART_2_RX_INTERRUPT_ENABLED)
 701:.\Generated_Source\PSoC5/UART_2.c ****                 UART_2_DisableRxInt();
 702:.\Generated_Source\PSoC5/UART_2.c ****             #endif /* UART_2_RX_INTERRUPT_ENABLED */
 703:.\Generated_Source\PSoC5/UART_2.c **** 
 704:.\Generated_Source\PSoC5/UART_2.c ****             if(UART_2_rxBufferRead == UART_2_rxBufferWrite)
 705:.\Generated_Source\PSoC5/UART_2.c ****             {
 706:.\Generated_Source\PSoC5/UART_2.c ****                 if(UART_2_rxBufferLoopDetect > 0u)
 707:.\Generated_Source\PSoC5/UART_2.c ****                 {
 708:.\Generated_Source\PSoC5/UART_2.c ****                     size = UART_2_RXBUFFERSIZE;
 709:.\Generated_Source\PSoC5/UART_2.c ****                 }
 710:.\Generated_Source\PSoC5/UART_2.c ****                 else
 711:.\Generated_Source\PSoC5/UART_2.c ****                 {
 712:.\Generated_Source\PSoC5/UART_2.c ****                     size = 0u;
 713:.\Generated_Source\PSoC5/UART_2.c ****                 }
 714:.\Generated_Source\PSoC5/UART_2.c ****             }
 715:.\Generated_Source\PSoC5/UART_2.c ****             else if(UART_2_rxBufferRead < UART_2_rxBufferWrite)
 716:.\Generated_Source\PSoC5/UART_2.c ****             {
 717:.\Generated_Source\PSoC5/UART_2.c ****                 size = (UART_2_rxBufferWrite - UART_2_rxBufferRead);
 718:.\Generated_Source\PSoC5/UART_2.c ****             }
 719:.\Generated_Source\PSoC5/UART_2.c ****             else
 720:.\Generated_Source\PSoC5/UART_2.c ****             {
 721:.\Generated_Source\PSoC5/UART_2.c ****                 size = (UART_2_RXBUFFERSIZE - UART_2_rxBufferRead) + UART_2_rxBufferWrite;
 722:.\Generated_Source\PSoC5/UART_2.c ****             }
 723:.\Generated_Source\PSoC5/UART_2.c **** 
 724:.\Generated_Source\PSoC5/UART_2.c ****             /* Enable Rx interrupt. */
 725:.\Generated_Source\PSoC5/UART_2.c ****             #if(UART_2_RX_INTERRUPT_ENABLED)
 726:.\Generated_Source\PSoC5/UART_2.c ****                 UART_2_EnableRxInt();
 727:.\Generated_Source\PSoC5/UART_2.c ****             #endif /* End UART_2_RX_INTERRUPT_ENABLED */
 728:.\Generated_Source\PSoC5/UART_2.c **** 
 729:.\Generated_Source\PSoC5/UART_2.c ****         #else /* UART_2_RXBUFFERSIZE > UART_2_FIFO_LENGTH */
 730:.\Generated_Source\PSoC5/UART_2.c **** 
 731:.\Generated_Source\PSoC5/UART_2.c ****             /* We can only know if there is data in the fifo. */
 732:.\Generated_Source\PSoC5/UART_2.c ****             size = ((UART_2_RXSTATUS_REG & UART_2_RX_STS_FIFO_NOTEMPTY) != 0u) ? 1u : 0u;
 563              		.loc 1 732 0
 564 0006 46F26743 		movw	r3, #25703
 565 000a C4F20003 		movt	r3, 16384
 566 000e 1B78     		ldrb	r3, [r3, #0]
 567 0010 DBB2     		uxtb	r3, r3
 568 0012 03F02003 		and	r3, r3, #32
 569 0016 002B     		cmp	r3, #0
 570 0018 02D0     		beq	.L20
 571              		.loc 1 732 0 is_stmt 0 discriminator 1
 572 001a 4FF00103 		mov	r3, #1
 573 001e 01E0     		b	.L21
 574              	.L20:
 575              		.loc 1 732 0 discriminator 2
 576 0020 4FF00003 		mov	r3, #0
 577              	.L21:
 578              		.loc 1 732 0 discriminator 3
ARM GAS  C:\Users\Owner\AppData\Local\Temp\ccR6XCwT.s 			page 24


 579 0024 FB71     		strb	r3, [r7, #7]
 733:.\Generated_Source\PSoC5/UART_2.c **** 
 734:.\Generated_Source\PSoC5/UART_2.c ****         #endif /* End UART_2_RXBUFFERSIZE > UART_2_FIFO_LENGTH */
 735:.\Generated_Source\PSoC5/UART_2.c **** 
 736:.\Generated_Source\PSoC5/UART_2.c ****         return(size);
 580              		.loc 1 736 0 is_stmt 1 discriminator 3
 581 0026 FB79     		ldrb	r3, [r7, #7]	@ zero_extendqisi2
 737:.\Generated_Source\PSoC5/UART_2.c ****     }
 582              		.loc 1 737 0 discriminator 3
 583 0028 1846     		mov	r0, r3
 584 002a 07F10C07 		add	r7, r7, #12
 585 002e BD46     		mov	sp, r7
 586 0030 80BC     		pop	{r7}
 587 0032 7047     		bx	lr
 588              		.cfi_endproc
 589              	.LFE11:
 590              		.size	UART_2_GetRxBufferSize, .-UART_2_GetRxBufferSize
 591              		.section	.text.UART_2_ClearRxBuffer,"ax",%progbits
 592              		.align	2
 593              		.global	UART_2_ClearRxBuffer
 594              		.thumb
 595              		.thumb_func
 596              		.type	UART_2_ClearRxBuffer, %function
 597              	UART_2_ClearRxBuffer:
 598              	.LFB12:
 738:.\Generated_Source\PSoC5/UART_2.c **** 
 739:.\Generated_Source\PSoC5/UART_2.c **** 
 740:.\Generated_Source\PSoC5/UART_2.c ****     /*******************************************************************************
 741:.\Generated_Source\PSoC5/UART_2.c ****     * Function Name: UART_2_ClearRxBuffer
 742:.\Generated_Source\PSoC5/UART_2.c ****     ********************************************************************************
 743:.\Generated_Source\PSoC5/UART_2.c ****     *
 744:.\Generated_Source\PSoC5/UART_2.c ****     * Summary:
 745:.\Generated_Source\PSoC5/UART_2.c ****     *  Clears the RX RAM buffer by setting the read and write pointers both to zero.
 746:.\Generated_Source\PSoC5/UART_2.c ****     *  Clears hardware RX FIFO.
 747:.\Generated_Source\PSoC5/UART_2.c ****     *
 748:.\Generated_Source\PSoC5/UART_2.c ****     * Parameters:
 749:.\Generated_Source\PSoC5/UART_2.c ****     *  None.
 750:.\Generated_Source\PSoC5/UART_2.c ****     *
 751:.\Generated_Source\PSoC5/UART_2.c ****     * Return:
 752:.\Generated_Source\PSoC5/UART_2.c ****     *  None.
 753:.\Generated_Source\PSoC5/UART_2.c ****     *
 754:.\Generated_Source\PSoC5/UART_2.c ****     * Global Variables:
 755:.\Generated_Source\PSoC5/UART_2.c ****     *  UART_2_rxBufferWrite - cleared to zero.
 756:.\Generated_Source\PSoC5/UART_2.c ****     *  UART_2_rxBufferRead - cleared to zero.
 757:.\Generated_Source\PSoC5/UART_2.c ****     *  UART_2_rxBufferLoopDetect - cleared to zero.
 758:.\Generated_Source\PSoC5/UART_2.c ****     *  UART_2_rxBufferOverflow - cleared to zero.
 759:.\Generated_Source\PSoC5/UART_2.c ****     *
 760:.\Generated_Source\PSoC5/UART_2.c ****     * Reentrant:
 761:.\Generated_Source\PSoC5/UART_2.c ****     *  No.
 762:.\Generated_Source\PSoC5/UART_2.c ****     *
 763:.\Generated_Source\PSoC5/UART_2.c ****     * Theory:
 764:.\Generated_Source\PSoC5/UART_2.c ****     *  Setting the pointers to zero makes the system believe there is no data to
 765:.\Generated_Source\PSoC5/UART_2.c ****     *  read and writing will resume at address 0 overwriting any data that may
 766:.\Generated_Source\PSoC5/UART_2.c ****     *  have remained in the RAM.
 767:.\Generated_Source\PSoC5/UART_2.c ****     *
 768:.\Generated_Source\PSoC5/UART_2.c ****     * Side Effects:
 769:.\Generated_Source\PSoC5/UART_2.c ****     *  Any received data not read from the RAM or FIFO buffer will be lost.
ARM GAS  C:\Users\Owner\AppData\Local\Temp\ccR6XCwT.s 			page 25


 770:.\Generated_Source\PSoC5/UART_2.c ****     *******************************************************************************/
 771:.\Generated_Source\PSoC5/UART_2.c ****     void UART_2_ClearRxBuffer(void) 
 772:.\Generated_Source\PSoC5/UART_2.c ****     {
 599              		.loc 1 772 0
 600              		.cfi_startproc
 601              		@ args = 0, pretend = 0, frame = 8
 602              		@ frame_needed = 1, uses_anonymous_args = 0
 603 0000 80B5     		push	{r7, lr}
 604              	.LCFI32:
 605              		.cfi_def_cfa_offset 8
 606              		.cfi_offset 7, -8
 607              		.cfi_offset 14, -4
 608 0002 82B0     		sub	sp, sp, #8
 609              	.LCFI33:
 610              		.cfi_def_cfa_offset 16
 611 0004 00AF     		add	r7, sp, #0
 612              	.LCFI34:
 613              		.cfi_def_cfa_register 7
 773:.\Generated_Source\PSoC5/UART_2.c ****         uint8 enableInterrupts;
 774:.\Generated_Source\PSoC5/UART_2.c **** 
 775:.\Generated_Source\PSoC5/UART_2.c ****         /* clear the HW FIFO */
 776:.\Generated_Source\PSoC5/UART_2.c ****         /* Enter critical section */
 777:.\Generated_Source\PSoC5/UART_2.c ****         enableInterrupts = CyEnterCriticalSection();
 614              		.loc 1 777 0
 615 0006 FFF7FEFF 		bl	CyEnterCriticalSection
 616 000a 0346     		mov	r3, r0
 617 000c FB71     		strb	r3, [r7, #7]
 778:.\Generated_Source\PSoC5/UART_2.c ****         UART_2_RXDATA_AUX_CTL_REG |=  UART_2_RX_FIFO_CLR;
 618              		.loc 1 778 0
 619 000e 46F29753 		movw	r3, #26007
 620 0012 C4F20003 		movt	r3, 16384
 621 0016 46F29752 		movw	r2, #26007
 622 001a C4F20002 		movt	r2, 16384
 623 001e 1278     		ldrb	r2, [r2, #0]
 624 0020 D2B2     		uxtb	r2, r2
 625 0022 42F00102 		orr	r2, r2, #1
 626 0026 D2B2     		uxtb	r2, r2
 627 0028 1A70     		strb	r2, [r3, #0]
 779:.\Generated_Source\PSoC5/UART_2.c ****         UART_2_RXDATA_AUX_CTL_REG &= (uint8)~UART_2_RX_FIFO_CLR;
 628              		.loc 1 779 0
 629 002a 46F29753 		movw	r3, #26007
 630 002e C4F20003 		movt	r3, 16384
 631 0032 46F29752 		movw	r2, #26007
 632 0036 C4F20002 		movt	r2, 16384
 633 003a 1278     		ldrb	r2, [r2, #0]
 634 003c D2B2     		uxtb	r2, r2
 635 003e 22F00102 		bic	r2, r2, #1
 636 0042 D2B2     		uxtb	r2, r2
 637 0044 1A70     		strb	r2, [r3, #0]
 780:.\Generated_Source\PSoC5/UART_2.c ****         /* Exit critical section */
 781:.\Generated_Source\PSoC5/UART_2.c ****         CyExitCriticalSection(enableInterrupts);
 638              		.loc 1 781 0
 639 0046 FB79     		ldrb	r3, [r7, #7]	@ zero_extendqisi2
 640 0048 1846     		mov	r0, r3
 641 004a FFF7FEFF 		bl	CyExitCriticalSection
 782:.\Generated_Source\PSoC5/UART_2.c **** 
 783:.\Generated_Source\PSoC5/UART_2.c ****         #if(UART_2_RXBUFFERSIZE > UART_2_FIFO_LENGTH)
ARM GAS  C:\Users\Owner\AppData\Local\Temp\ccR6XCwT.s 			page 26


 784:.\Generated_Source\PSoC5/UART_2.c ****             /* Disable Rx interrupt. */
 785:.\Generated_Source\PSoC5/UART_2.c ****             /* Protect variables that could change on interrupt. */
 786:.\Generated_Source\PSoC5/UART_2.c ****             #if(UART_2_RX_INTERRUPT_ENABLED)
 787:.\Generated_Source\PSoC5/UART_2.c ****                 UART_2_DisableRxInt();
 788:.\Generated_Source\PSoC5/UART_2.c ****             #endif /* End UART_2_RX_INTERRUPT_ENABLED */
 789:.\Generated_Source\PSoC5/UART_2.c **** 
 790:.\Generated_Source\PSoC5/UART_2.c ****             UART_2_rxBufferRead = 0u;
 791:.\Generated_Source\PSoC5/UART_2.c ****             UART_2_rxBufferWrite = 0u;
 792:.\Generated_Source\PSoC5/UART_2.c ****             UART_2_rxBufferLoopDetect = 0u;
 793:.\Generated_Source\PSoC5/UART_2.c ****             UART_2_rxBufferOverflow = 0u;
 794:.\Generated_Source\PSoC5/UART_2.c **** 
 795:.\Generated_Source\PSoC5/UART_2.c ****             /* Enable Rx interrupt. */
 796:.\Generated_Source\PSoC5/UART_2.c ****             #if(UART_2_RX_INTERRUPT_ENABLED)
 797:.\Generated_Source\PSoC5/UART_2.c ****                 UART_2_EnableRxInt();
 798:.\Generated_Source\PSoC5/UART_2.c ****             #endif /* End UART_2_RX_INTERRUPT_ENABLED */
 799:.\Generated_Source\PSoC5/UART_2.c ****         #endif /* End UART_2_RXBUFFERSIZE > UART_2_FIFO_LENGTH */
 800:.\Generated_Source\PSoC5/UART_2.c **** 
 801:.\Generated_Source\PSoC5/UART_2.c ****     }
 642              		.loc 1 801 0
 643 004e 07F10807 		add	r7, r7, #8
 644 0052 BD46     		mov	sp, r7
 645 0054 80BD     		pop	{r7, pc}
 646              		.cfi_endproc
 647              	.LFE12:
 648              		.size	UART_2_ClearRxBuffer, .-UART_2_ClearRxBuffer
 649 0056 00BF     		.section	.text.UART_2_SetRxAddressMode,"ax",%progbits
 650              		.align	2
 651              		.global	UART_2_SetRxAddressMode
 652              		.thumb
 653              		.thumb_func
 654              		.type	UART_2_SetRxAddressMode, %function
 655              	UART_2_SetRxAddressMode:
 656              	.LFB13:
 802:.\Generated_Source\PSoC5/UART_2.c **** 
 803:.\Generated_Source\PSoC5/UART_2.c **** 
 804:.\Generated_Source\PSoC5/UART_2.c ****     /*******************************************************************************
 805:.\Generated_Source\PSoC5/UART_2.c ****     * Function Name: UART_2_SetRxAddressMode
 806:.\Generated_Source\PSoC5/UART_2.c ****     ********************************************************************************
 807:.\Generated_Source\PSoC5/UART_2.c ****     *
 808:.\Generated_Source\PSoC5/UART_2.c ****     * Summary:
 809:.\Generated_Source\PSoC5/UART_2.c ****     *  Set the receive addressing mode
 810:.\Generated_Source\PSoC5/UART_2.c ****     *
 811:.\Generated_Source\PSoC5/UART_2.c ****     * Parameters:
 812:.\Generated_Source\PSoC5/UART_2.c ****     *  addressMode: Enumerated value indicating the mode of RX addressing
 813:.\Generated_Source\PSoC5/UART_2.c ****     *  UART_2__B_UART__AM_SW_BYTE_BYTE -  Software Byte-by-Byte address
 814:.\Generated_Source\PSoC5/UART_2.c ****     *                                               detection
 815:.\Generated_Source\PSoC5/UART_2.c ****     *  UART_2__B_UART__AM_SW_DETECT_TO_BUFFER - Software Detect to Buffer
 816:.\Generated_Source\PSoC5/UART_2.c ****     *                                               address detection
 817:.\Generated_Source\PSoC5/UART_2.c ****     *  UART_2__B_UART__AM_HW_BYTE_BY_BYTE - Hardware Byte-by-Byte address
 818:.\Generated_Source\PSoC5/UART_2.c ****     *                                               detection
 819:.\Generated_Source\PSoC5/UART_2.c ****     *  UART_2__B_UART__AM_HW_DETECT_TO_BUFFER - Hardware Detect to Buffer
 820:.\Generated_Source\PSoC5/UART_2.c ****     *                                               address detection
 821:.\Generated_Source\PSoC5/UART_2.c ****     *  UART_2__B_UART__AM_NONE - No address detection
 822:.\Generated_Source\PSoC5/UART_2.c ****     *
 823:.\Generated_Source\PSoC5/UART_2.c ****     * Return:
 824:.\Generated_Source\PSoC5/UART_2.c ****     *  None.
 825:.\Generated_Source\PSoC5/UART_2.c ****     *
ARM GAS  C:\Users\Owner\AppData\Local\Temp\ccR6XCwT.s 			page 27


 826:.\Generated_Source\PSoC5/UART_2.c ****     * Global Variables:
 827:.\Generated_Source\PSoC5/UART_2.c ****     *  UART_2_rxAddressMode - the parameter stored in this variable for
 828:.\Generated_Source\PSoC5/UART_2.c ****     *   the farther usage in RX ISR.
 829:.\Generated_Source\PSoC5/UART_2.c ****     *  UART_2_rxAddressDetected - set to initial state (0).
 830:.\Generated_Source\PSoC5/UART_2.c ****     *
 831:.\Generated_Source\PSoC5/UART_2.c ****     *******************************************************************************/
 832:.\Generated_Source\PSoC5/UART_2.c ****     void UART_2_SetRxAddressMode(uint8 addressMode)
 833:.\Generated_Source\PSoC5/UART_2.c ****                                                         
 834:.\Generated_Source\PSoC5/UART_2.c ****     {
 657              		.loc 1 834 0
 658              		.cfi_startproc
 659              		@ args = 0, pretend = 0, frame = 8
 660              		@ frame_needed = 1, uses_anonymous_args = 0
 661              		@ link register save eliminated.
 662 0000 80B4     		push	{r7}
 663              	.LCFI35:
 664              		.cfi_def_cfa_offset 4
 665              		.cfi_offset 7, -4
 666 0002 83B0     		sub	sp, sp, #12
 667              	.LCFI36:
 668              		.cfi_def_cfa_offset 16
 669 0004 00AF     		add	r7, sp, #0
 670              	.LCFI37:
 671              		.cfi_def_cfa_register 7
 672 0006 0346     		mov	r3, r0
 673 0008 FB71     		strb	r3, [r7, #7]
 835:.\Generated_Source\PSoC5/UART_2.c ****         #if(UART_2_RXHW_ADDRESS_ENABLED)
 836:.\Generated_Source\PSoC5/UART_2.c ****             #if(UART_2_CONTROL_REG_REMOVED)
 837:.\Generated_Source\PSoC5/UART_2.c ****                 if(addressMode != 0u) { }     /* release compiler warning */
 838:.\Generated_Source\PSoC5/UART_2.c ****             #else /* UART_2_CONTROL_REG_REMOVED */
 839:.\Generated_Source\PSoC5/UART_2.c ****                 uint8 tmpCtrl;
 840:.\Generated_Source\PSoC5/UART_2.c ****                 tmpCtrl = UART_2_CONTROL_REG & (uint8)~UART_2_CTRL_RXADDR_MODE_MASK;
 841:.\Generated_Source\PSoC5/UART_2.c ****                 tmpCtrl |= (uint8)(addressMode << UART_2_CTRL_RXADDR_MODE0_SHIFT);
 842:.\Generated_Source\PSoC5/UART_2.c ****                 UART_2_CONTROL_REG = tmpCtrl;
 843:.\Generated_Source\PSoC5/UART_2.c ****                 #if(UART_2_RX_INTERRUPT_ENABLED && \
 844:.\Generated_Source\PSoC5/UART_2.c ****                    (UART_2_RXBUFFERSIZE > UART_2_FIFO_LENGTH) )
 845:.\Generated_Source\PSoC5/UART_2.c ****                     UART_2_rxAddressMode = addressMode;
 846:.\Generated_Source\PSoC5/UART_2.c ****                     UART_2_rxAddressDetected = 0u;
 847:.\Generated_Source\PSoC5/UART_2.c ****                 #endif /* End UART_2_RXBUFFERSIZE > UART_2_FIFO_LENGTH*/
 848:.\Generated_Source\PSoC5/UART_2.c ****             #endif /* End UART_2_CONTROL_REG_REMOVED */
 849:.\Generated_Source\PSoC5/UART_2.c ****         #else /* UART_2_RXHW_ADDRESS_ENABLED */
 850:.\Generated_Source\PSoC5/UART_2.c ****             if(addressMode != 0u) { }     /* release compiler warning */
 851:.\Generated_Source\PSoC5/UART_2.c ****         #endif /* End UART_2_RXHW_ADDRESS_ENABLED */
 852:.\Generated_Source\PSoC5/UART_2.c ****     }
 674              		.loc 1 852 0
 675 000a 07F10C07 		add	r7, r7, #12
 676 000e BD46     		mov	sp, r7
 677 0010 80BC     		pop	{r7}
 678 0012 7047     		bx	lr
 679              		.cfi_endproc
 680              	.LFE13:
 681              		.size	UART_2_SetRxAddressMode, .-UART_2_SetRxAddressMode
 682              		.section	.text.UART_2_SetRxAddress1,"ax",%progbits
 683              		.align	2
 684              		.global	UART_2_SetRxAddress1
 685              		.thumb
 686              		.thumb_func
ARM GAS  C:\Users\Owner\AppData\Local\Temp\ccR6XCwT.s 			page 28


 687              		.type	UART_2_SetRxAddress1, %function
 688              	UART_2_SetRxAddress1:
 689              	.LFB14:
 853:.\Generated_Source\PSoC5/UART_2.c **** 
 854:.\Generated_Source\PSoC5/UART_2.c **** 
 855:.\Generated_Source\PSoC5/UART_2.c ****     /*******************************************************************************
 856:.\Generated_Source\PSoC5/UART_2.c ****     * Function Name: UART_2_SetRxAddress1
 857:.\Generated_Source\PSoC5/UART_2.c ****     ********************************************************************************
 858:.\Generated_Source\PSoC5/UART_2.c ****     *
 859:.\Generated_Source\PSoC5/UART_2.c ****     * Summary:
 860:.\Generated_Source\PSoC5/UART_2.c ****     *  Set the first hardware address compare value
 861:.\Generated_Source\PSoC5/UART_2.c ****     *
 862:.\Generated_Source\PSoC5/UART_2.c ****     * Parameters:
 863:.\Generated_Source\PSoC5/UART_2.c ****     *  address
 864:.\Generated_Source\PSoC5/UART_2.c ****     *
 865:.\Generated_Source\PSoC5/UART_2.c ****     * Return:
 866:.\Generated_Source\PSoC5/UART_2.c ****     *  None.
 867:.\Generated_Source\PSoC5/UART_2.c ****     *
 868:.\Generated_Source\PSoC5/UART_2.c ****     *******************************************************************************/
 869:.\Generated_Source\PSoC5/UART_2.c ****     void UART_2_SetRxAddress1(uint8 address) 
 870:.\Generated_Source\PSoC5/UART_2.c **** 
 871:.\Generated_Source\PSoC5/UART_2.c ****     {
 690              		.loc 1 871 0
 691              		.cfi_startproc
 692              		@ args = 0, pretend = 0, frame = 8
 693              		@ frame_needed = 1, uses_anonymous_args = 0
 694              		@ link register save eliminated.
 695 0000 80B4     		push	{r7}
 696              	.LCFI38:
 697              		.cfi_def_cfa_offset 4
 698              		.cfi_offset 7, -4
 699 0002 83B0     		sub	sp, sp, #12
 700              	.LCFI39:
 701              		.cfi_def_cfa_offset 16
 702 0004 00AF     		add	r7, sp, #0
 703              	.LCFI40:
 704              		.cfi_def_cfa_register 7
 705 0006 0346     		mov	r3, r0
 706 0008 FB71     		strb	r3, [r7, #7]
 872:.\Generated_Source\PSoC5/UART_2.c ****         UART_2_RXADDRESS1_REG = address;
 707              		.loc 1 872 0
 708 000a 46F22753 		movw	r3, #25895
 709 000e C4F20003 		movt	r3, 16384
 710 0012 FA79     		ldrb	r2, [r7, #7]
 711 0014 1A70     		strb	r2, [r3, #0]
 873:.\Generated_Source\PSoC5/UART_2.c ****     }
 712              		.loc 1 873 0
 713 0016 07F10C07 		add	r7, r7, #12
 714 001a BD46     		mov	sp, r7
 715 001c 80BC     		pop	{r7}
 716 001e 7047     		bx	lr
 717              		.cfi_endproc
 718              	.LFE14:
 719              		.size	UART_2_SetRxAddress1, .-UART_2_SetRxAddress1
 720              		.section	.text.UART_2_SetRxAddress2,"ax",%progbits
 721              		.align	2
 722              		.global	UART_2_SetRxAddress2
ARM GAS  C:\Users\Owner\AppData\Local\Temp\ccR6XCwT.s 			page 29


 723              		.thumb
 724              		.thumb_func
 725              		.type	UART_2_SetRxAddress2, %function
 726              	UART_2_SetRxAddress2:
 727              	.LFB15:
 874:.\Generated_Source\PSoC5/UART_2.c **** 
 875:.\Generated_Source\PSoC5/UART_2.c **** 
 876:.\Generated_Source\PSoC5/UART_2.c ****     /*******************************************************************************
 877:.\Generated_Source\PSoC5/UART_2.c ****     * Function Name: UART_2_SetRxAddress2
 878:.\Generated_Source\PSoC5/UART_2.c ****     ********************************************************************************
 879:.\Generated_Source\PSoC5/UART_2.c ****     *
 880:.\Generated_Source\PSoC5/UART_2.c ****     * Summary:
 881:.\Generated_Source\PSoC5/UART_2.c ****     *  Set the second hardware address compare value
 882:.\Generated_Source\PSoC5/UART_2.c ****     *
 883:.\Generated_Source\PSoC5/UART_2.c ****     * Parameters:
 884:.\Generated_Source\PSoC5/UART_2.c ****     *  address
 885:.\Generated_Source\PSoC5/UART_2.c ****     *
 886:.\Generated_Source\PSoC5/UART_2.c ****     * Return:
 887:.\Generated_Source\PSoC5/UART_2.c ****     *  None.
 888:.\Generated_Source\PSoC5/UART_2.c ****     *
 889:.\Generated_Source\PSoC5/UART_2.c ****     *******************************************************************************/
 890:.\Generated_Source\PSoC5/UART_2.c ****     void UART_2_SetRxAddress2(uint8 address) 
 891:.\Generated_Source\PSoC5/UART_2.c ****     {
 728              		.loc 1 891 0
 729              		.cfi_startproc
 730              		@ args = 0, pretend = 0, frame = 8
 731              		@ frame_needed = 1, uses_anonymous_args = 0
 732              		@ link register save eliminated.
 733 0000 80B4     		push	{r7}
 734              	.LCFI41:
 735              		.cfi_def_cfa_offset 4
 736              		.cfi_offset 7, -4
 737 0002 83B0     		sub	sp, sp, #12
 738              	.LCFI42:
 739              		.cfi_def_cfa_offset 16
 740 0004 00AF     		add	r7, sp, #0
 741              	.LCFI43:
 742              		.cfi_def_cfa_register 7
 743 0006 0346     		mov	r3, r0
 744 0008 FB71     		strb	r3, [r7, #7]
 892:.\Generated_Source\PSoC5/UART_2.c ****         UART_2_RXADDRESS2_REG = address;
 745              		.loc 1 892 0
 746 000a 46F23753 		movw	r3, #25911
 747 000e C4F20003 		movt	r3, 16384
 748 0012 FA79     		ldrb	r2, [r7, #7]
 749 0014 1A70     		strb	r2, [r3, #0]
 893:.\Generated_Source\PSoC5/UART_2.c ****     }
 750              		.loc 1 893 0
 751 0016 07F10C07 		add	r7, r7, #12
 752 001a BD46     		mov	sp, r7
 753 001c 80BC     		pop	{r7}
 754 001e 7047     		bx	lr
 755              		.cfi_endproc
 756              	.LFE15:
 757              		.size	UART_2_SetRxAddress2, .-UART_2_SetRxAddress2
 758              		.section	.text.UART_2_SetTxInterruptMode,"ax",%progbits
 759              		.align	2
ARM GAS  C:\Users\Owner\AppData\Local\Temp\ccR6XCwT.s 			page 30


 760              		.global	UART_2_SetTxInterruptMode
 761              		.thumb
 762              		.thumb_func
 763              		.type	UART_2_SetTxInterruptMode, %function
 764              	UART_2_SetTxInterruptMode:
 765              	.LFB16:
 894:.\Generated_Source\PSoC5/UART_2.c **** 
 895:.\Generated_Source\PSoC5/UART_2.c **** #endif  /* UART_2_RX_ENABLED || UART_2_HD_ENABLED*/
 896:.\Generated_Source\PSoC5/UART_2.c **** 
 897:.\Generated_Source\PSoC5/UART_2.c **** 
 898:.\Generated_Source\PSoC5/UART_2.c **** #if( (UART_2_TX_ENABLED) || (UART_2_HD_ENABLED) )
 899:.\Generated_Source\PSoC5/UART_2.c **** 
 900:.\Generated_Source\PSoC5/UART_2.c ****     #if(UART_2_TX_INTERRUPT_ENABLED)
 901:.\Generated_Source\PSoC5/UART_2.c **** 
 902:.\Generated_Source\PSoC5/UART_2.c ****         /*******************************************************************************
 903:.\Generated_Source\PSoC5/UART_2.c ****         * Function Name: UART_2_EnableTxInt
 904:.\Generated_Source\PSoC5/UART_2.c ****         ********************************************************************************
 905:.\Generated_Source\PSoC5/UART_2.c ****         *
 906:.\Generated_Source\PSoC5/UART_2.c ****         * Summary:
 907:.\Generated_Source\PSoC5/UART_2.c ****         *  Enable TX interrupt generation
 908:.\Generated_Source\PSoC5/UART_2.c ****         *
 909:.\Generated_Source\PSoC5/UART_2.c ****         * Parameters:
 910:.\Generated_Source\PSoC5/UART_2.c ****         *  None.
 911:.\Generated_Source\PSoC5/UART_2.c ****         *
 912:.\Generated_Source\PSoC5/UART_2.c ****         * Return:
 913:.\Generated_Source\PSoC5/UART_2.c ****         *  None.
 914:.\Generated_Source\PSoC5/UART_2.c ****         *
 915:.\Generated_Source\PSoC5/UART_2.c ****         * Theory:
 916:.\Generated_Source\PSoC5/UART_2.c ****         *  Enable the interrupt output -or- the interrupt component itself
 917:.\Generated_Source\PSoC5/UART_2.c ****         *
 918:.\Generated_Source\PSoC5/UART_2.c ****         *******************************************************************************/
 919:.\Generated_Source\PSoC5/UART_2.c ****         void UART_2_EnableTxInt(void) 
 920:.\Generated_Source\PSoC5/UART_2.c ****         {
 921:.\Generated_Source\PSoC5/UART_2.c ****             CyIntEnable(UART_2_TX_VECT_NUM);
 922:.\Generated_Source\PSoC5/UART_2.c ****         }
 923:.\Generated_Source\PSoC5/UART_2.c **** 
 924:.\Generated_Source\PSoC5/UART_2.c **** 
 925:.\Generated_Source\PSoC5/UART_2.c ****         /*******************************************************************************
 926:.\Generated_Source\PSoC5/UART_2.c ****         * Function Name: UART_2_DisableTxInt
 927:.\Generated_Source\PSoC5/UART_2.c ****         ********************************************************************************
 928:.\Generated_Source\PSoC5/UART_2.c ****         *
 929:.\Generated_Source\PSoC5/UART_2.c ****         * Summary:
 930:.\Generated_Source\PSoC5/UART_2.c ****         *  Disable TX interrupt generation
 931:.\Generated_Source\PSoC5/UART_2.c ****         *
 932:.\Generated_Source\PSoC5/UART_2.c ****         * Parameters:
 933:.\Generated_Source\PSoC5/UART_2.c ****         *  None.
 934:.\Generated_Source\PSoC5/UART_2.c ****         *
 935:.\Generated_Source\PSoC5/UART_2.c ****         * Return:
 936:.\Generated_Source\PSoC5/UART_2.c ****         *  None.
 937:.\Generated_Source\PSoC5/UART_2.c ****         *
 938:.\Generated_Source\PSoC5/UART_2.c ****         * Theory:
 939:.\Generated_Source\PSoC5/UART_2.c ****         *  Disable the interrupt output -or- the interrupt component itself
 940:.\Generated_Source\PSoC5/UART_2.c ****         *
 941:.\Generated_Source\PSoC5/UART_2.c ****         *******************************************************************************/
 942:.\Generated_Source\PSoC5/UART_2.c ****         void UART_2_DisableTxInt(void) 
 943:.\Generated_Source\PSoC5/UART_2.c ****         {
 944:.\Generated_Source\PSoC5/UART_2.c ****             CyIntDisable(UART_2_TX_VECT_NUM);
ARM GAS  C:\Users\Owner\AppData\Local\Temp\ccR6XCwT.s 			page 31


 945:.\Generated_Source\PSoC5/UART_2.c ****         }
 946:.\Generated_Source\PSoC5/UART_2.c **** 
 947:.\Generated_Source\PSoC5/UART_2.c ****     #endif /* UART_2_TX_INTERRUPT_ENABLED */
 948:.\Generated_Source\PSoC5/UART_2.c **** 
 949:.\Generated_Source\PSoC5/UART_2.c **** 
 950:.\Generated_Source\PSoC5/UART_2.c ****     /*******************************************************************************
 951:.\Generated_Source\PSoC5/UART_2.c ****     * Function Name: UART_2_SetTxInterruptMode
 952:.\Generated_Source\PSoC5/UART_2.c ****     ********************************************************************************
 953:.\Generated_Source\PSoC5/UART_2.c ****     *
 954:.\Generated_Source\PSoC5/UART_2.c ****     * Summary:
 955:.\Generated_Source\PSoC5/UART_2.c ****     *  Configure which status bits trigger an interrupt event
 956:.\Generated_Source\PSoC5/UART_2.c ****     *
 957:.\Generated_Source\PSoC5/UART_2.c ****     * Parameters:
 958:.\Generated_Source\PSoC5/UART_2.c ****     *  intSrc: An or'd combination of the desired status bit masks (defined in
 959:.\Generated_Source\PSoC5/UART_2.c ****     *          the header file)
 960:.\Generated_Source\PSoC5/UART_2.c ****     *
 961:.\Generated_Source\PSoC5/UART_2.c ****     * Return:
 962:.\Generated_Source\PSoC5/UART_2.c ****     *  None.
 963:.\Generated_Source\PSoC5/UART_2.c ****     *
 964:.\Generated_Source\PSoC5/UART_2.c ****     * Theory:
 965:.\Generated_Source\PSoC5/UART_2.c ****     *  Enables the output of specific status bits to the interrupt controller
 966:.\Generated_Source\PSoC5/UART_2.c ****     *
 967:.\Generated_Source\PSoC5/UART_2.c ****     *******************************************************************************/
 968:.\Generated_Source\PSoC5/UART_2.c ****     void UART_2_SetTxInterruptMode(uint8 intSrc) 
 969:.\Generated_Source\PSoC5/UART_2.c ****     {
 766              		.loc 1 969 0
 767              		.cfi_startproc
 768              		@ args = 0, pretend = 0, frame = 8
 769              		@ frame_needed = 1, uses_anonymous_args = 0
 770              		@ link register save eliminated.
 771 0000 80B4     		push	{r7}
 772              	.LCFI44:
 773              		.cfi_def_cfa_offset 4
 774              		.cfi_offset 7, -4
 775 0002 83B0     		sub	sp, sp, #12
 776              	.LCFI45:
 777              		.cfi_def_cfa_offset 16
 778 0004 00AF     		add	r7, sp, #0
 779              	.LCFI46:
 780              		.cfi_def_cfa_register 7
 781 0006 0346     		mov	r3, r0
 782 0008 FB71     		strb	r3, [r7, #7]
 970:.\Generated_Source\PSoC5/UART_2.c ****         UART_2_TXSTATUS_MASK_REG = intSrc;
 783              		.loc 1 970 0
 784 000a 46F28443 		movw	r3, #25732
 785 000e C4F20003 		movt	r3, 16384
 786 0012 FA79     		ldrb	r2, [r7, #7]
 787 0014 1A70     		strb	r2, [r3, #0]
 971:.\Generated_Source\PSoC5/UART_2.c ****     }
 788              		.loc 1 971 0
 789 0016 07F10C07 		add	r7, r7, #12
 790 001a BD46     		mov	sp, r7
 791 001c 80BC     		pop	{r7}
 792 001e 7047     		bx	lr
 793              		.cfi_endproc
 794              	.LFE16:
 795              		.size	UART_2_SetTxInterruptMode, .-UART_2_SetTxInterruptMode
ARM GAS  C:\Users\Owner\AppData\Local\Temp\ccR6XCwT.s 			page 32


 796              		.section	.text.UART_2_WriteTxData,"ax",%progbits
 797              		.align	2
 798              		.global	UART_2_WriteTxData
 799              		.thumb
 800              		.thumb_func
 801              		.type	UART_2_WriteTxData, %function
 802              	UART_2_WriteTxData:
 803              	.LFB17:
 972:.\Generated_Source\PSoC5/UART_2.c **** 
 973:.\Generated_Source\PSoC5/UART_2.c **** 
 974:.\Generated_Source\PSoC5/UART_2.c ****     /*******************************************************************************
 975:.\Generated_Source\PSoC5/UART_2.c ****     * Function Name: UART_2_WriteTxData
 976:.\Generated_Source\PSoC5/UART_2.c ****     ********************************************************************************
 977:.\Generated_Source\PSoC5/UART_2.c ****     *
 978:.\Generated_Source\PSoC5/UART_2.c ****     * Summary:
 979:.\Generated_Source\PSoC5/UART_2.c ****     *  Write a byte of data to the Transmit FIFO or TX buffer to be sent when the
 980:.\Generated_Source\PSoC5/UART_2.c ****     *  bus is available. WriteTxData sends a byte without checking for buffer room
 981:.\Generated_Source\PSoC5/UART_2.c ****     *  or status. It is up to the user to separately check status.
 982:.\Generated_Source\PSoC5/UART_2.c ****     *
 983:.\Generated_Source\PSoC5/UART_2.c ****     * Parameters:
 984:.\Generated_Source\PSoC5/UART_2.c ****     *  TXDataByte: byte of data to place in the transmit FIFO
 985:.\Generated_Source\PSoC5/UART_2.c ****     *
 986:.\Generated_Source\PSoC5/UART_2.c ****     * Return:
 987:.\Generated_Source\PSoC5/UART_2.c ****     * void
 988:.\Generated_Source\PSoC5/UART_2.c ****     *
 989:.\Generated_Source\PSoC5/UART_2.c ****     * Global Variables:
 990:.\Generated_Source\PSoC5/UART_2.c ****     *  UART_2_txBuffer - RAM buffer pointer for save data for transmission
 991:.\Generated_Source\PSoC5/UART_2.c ****     *  UART_2_txBufferWrite - cyclic index for write to txBuffer,
 992:.\Generated_Source\PSoC5/UART_2.c ****     *    incremented after each byte saved to buffer.
 993:.\Generated_Source\PSoC5/UART_2.c ****     *  UART_2_txBufferRead - cyclic index for read from txBuffer,
 994:.\Generated_Source\PSoC5/UART_2.c ****     *    checked to identify the condition to write to FIFO directly or to TX buffer
 995:.\Generated_Source\PSoC5/UART_2.c ****     *  UART_2_initVar - checked to identify that the component has been
 996:.\Generated_Source\PSoC5/UART_2.c ****     *    initialized.
 997:.\Generated_Source\PSoC5/UART_2.c ****     *
 998:.\Generated_Source\PSoC5/UART_2.c ****     * Reentrant:
 999:.\Generated_Source\PSoC5/UART_2.c ****     *  No.
1000:.\Generated_Source\PSoC5/UART_2.c ****     *
1001:.\Generated_Source\PSoC5/UART_2.c ****     *******************************************************************************/
1002:.\Generated_Source\PSoC5/UART_2.c ****     void UART_2_WriteTxData(uint8 txDataByte) 
1003:.\Generated_Source\PSoC5/UART_2.c ****     {
 804              		.loc 1 1003 0
 805              		.cfi_startproc
 806              		@ args = 0, pretend = 0, frame = 8
 807              		@ frame_needed = 1, uses_anonymous_args = 0
 808              		@ link register save eliminated.
 809 0000 80B4     		push	{r7}
 810              	.LCFI47:
 811              		.cfi_def_cfa_offset 4
 812              		.cfi_offset 7, -4
 813 0002 83B0     		sub	sp, sp, #12
 814              	.LCFI48:
 815              		.cfi_def_cfa_offset 16
 816 0004 00AF     		add	r7, sp, #0
 817              	.LCFI49:
 818              		.cfi_def_cfa_register 7
 819 0006 0346     		mov	r3, r0
 820 0008 FB71     		strb	r3, [r7, #7]
ARM GAS  C:\Users\Owner\AppData\Local\Temp\ccR6XCwT.s 			page 33


1004:.\Generated_Source\PSoC5/UART_2.c ****         /* If not Initialized then skip this function*/
1005:.\Generated_Source\PSoC5/UART_2.c ****         if(UART_2_initVar != 0u)
 821              		.loc 1 1005 0
 822 000a 40F20003 		movw	r3, #:lower16:UART_2_initVar
 823 000e C0F20003 		movt	r3, #:upper16:UART_2_initVar
 824 0012 1B78     		ldrb	r3, [r3, #0]	@ zero_extendqisi2
 825 0014 002B     		cmp	r3, #0
 826 0016 05D0     		beq	.L28
1006:.\Generated_Source\PSoC5/UART_2.c ****         {
1007:.\Generated_Source\PSoC5/UART_2.c ****             #if(UART_2_TXBUFFERSIZE > UART_2_FIFO_LENGTH)
1008:.\Generated_Source\PSoC5/UART_2.c **** 
1009:.\Generated_Source\PSoC5/UART_2.c ****                 /* Disable Tx interrupt. */
1010:.\Generated_Source\PSoC5/UART_2.c ****                 /* Protect variables that could change on interrupt. */
1011:.\Generated_Source\PSoC5/UART_2.c ****                 #if(UART_2_TX_INTERRUPT_ENABLED)
1012:.\Generated_Source\PSoC5/UART_2.c ****                     UART_2_DisableTxInt();
1013:.\Generated_Source\PSoC5/UART_2.c ****                 #endif /* End UART_2_TX_INTERRUPT_ENABLED */
1014:.\Generated_Source\PSoC5/UART_2.c **** 
1015:.\Generated_Source\PSoC5/UART_2.c ****                 if( (UART_2_txBufferRead == UART_2_txBufferWrite) &&
1016:.\Generated_Source\PSoC5/UART_2.c ****                     ((UART_2_TXSTATUS_REG & UART_2_TX_STS_FIFO_FULL) == 0u) )
1017:.\Generated_Source\PSoC5/UART_2.c ****                 {
1018:.\Generated_Source\PSoC5/UART_2.c ****                     /* Add directly to the FIFO. */
1019:.\Generated_Source\PSoC5/UART_2.c ****                     UART_2_TXDATA_REG = txDataByte;
1020:.\Generated_Source\PSoC5/UART_2.c ****                 }
1021:.\Generated_Source\PSoC5/UART_2.c ****                 else
1022:.\Generated_Source\PSoC5/UART_2.c ****                 {
1023:.\Generated_Source\PSoC5/UART_2.c ****                     if(UART_2_txBufferWrite >= UART_2_TXBUFFERSIZE)
1024:.\Generated_Source\PSoC5/UART_2.c ****                     {
1025:.\Generated_Source\PSoC5/UART_2.c ****                         UART_2_txBufferWrite = 0u;
1026:.\Generated_Source\PSoC5/UART_2.c ****                     }
1027:.\Generated_Source\PSoC5/UART_2.c **** 
1028:.\Generated_Source\PSoC5/UART_2.c ****                     UART_2_txBuffer[UART_2_txBufferWrite] = txDataByte;
1029:.\Generated_Source\PSoC5/UART_2.c **** 
1030:.\Generated_Source\PSoC5/UART_2.c ****                     /* Add to the software buffer. */
1031:.\Generated_Source\PSoC5/UART_2.c ****                     UART_2_txBufferWrite++;
1032:.\Generated_Source\PSoC5/UART_2.c **** 
1033:.\Generated_Source\PSoC5/UART_2.c ****                 }
1034:.\Generated_Source\PSoC5/UART_2.c **** 
1035:.\Generated_Source\PSoC5/UART_2.c ****                 /* Enable Tx interrupt. */
1036:.\Generated_Source\PSoC5/UART_2.c ****                 #if(UART_2_TX_INTERRUPT_ENABLED)
1037:.\Generated_Source\PSoC5/UART_2.c ****                     UART_2_EnableTxInt();
1038:.\Generated_Source\PSoC5/UART_2.c ****                 #endif /* End UART_2_TX_INTERRUPT_ENABLED */
1039:.\Generated_Source\PSoC5/UART_2.c **** 
1040:.\Generated_Source\PSoC5/UART_2.c ****             #else /* UART_2_TXBUFFERSIZE > UART_2_FIFO_LENGTH */
1041:.\Generated_Source\PSoC5/UART_2.c **** 
1042:.\Generated_Source\PSoC5/UART_2.c ****                 /* Add directly to the FIFO. */
1043:.\Generated_Source\PSoC5/UART_2.c ****                 UART_2_TXDATA_REG = txDataByte;
 827              		.loc 1 1043 0
 828 0018 46F24443 		movw	r3, #25668
 829 001c C4F20003 		movt	r3, 16384
 830 0020 FA79     		ldrb	r2, [r7, #7]
 831 0022 1A70     		strb	r2, [r3, #0]
 832              	.L28:
1044:.\Generated_Source\PSoC5/UART_2.c **** 
1045:.\Generated_Source\PSoC5/UART_2.c ****             #endif /* End UART_2_TXBUFFERSIZE > UART_2_FIFO_LENGTH */
1046:.\Generated_Source\PSoC5/UART_2.c ****         }
1047:.\Generated_Source\PSoC5/UART_2.c ****     }
 833              		.loc 1 1047 0
ARM GAS  C:\Users\Owner\AppData\Local\Temp\ccR6XCwT.s 			page 34


 834 0024 07F10C07 		add	r7, r7, #12
 835 0028 BD46     		mov	sp, r7
 836 002a 80BC     		pop	{r7}
 837 002c 7047     		bx	lr
 838              		.cfi_endproc
 839              	.LFE17:
 840              		.size	UART_2_WriteTxData, .-UART_2_WriteTxData
 841 002e 00BF     		.section	.text.UART_2_ReadTxStatus,"ax",%progbits
 842              		.align	2
 843              		.global	UART_2_ReadTxStatus
 844              		.thumb
 845              		.thumb_func
 846              		.type	UART_2_ReadTxStatus, %function
 847              	UART_2_ReadTxStatus:
 848              	.LFB18:
1048:.\Generated_Source\PSoC5/UART_2.c **** 
1049:.\Generated_Source\PSoC5/UART_2.c **** 
1050:.\Generated_Source\PSoC5/UART_2.c ****     /*******************************************************************************
1051:.\Generated_Source\PSoC5/UART_2.c ****     * Function Name: UART_2_ReadTxStatus
1052:.\Generated_Source\PSoC5/UART_2.c ****     ********************************************************************************
1053:.\Generated_Source\PSoC5/UART_2.c ****     *
1054:.\Generated_Source\PSoC5/UART_2.c ****     * Summary:
1055:.\Generated_Source\PSoC5/UART_2.c ****     *  Read the status register for the component
1056:.\Generated_Source\PSoC5/UART_2.c ****     *
1057:.\Generated_Source\PSoC5/UART_2.c ****     * Parameters:
1058:.\Generated_Source\PSoC5/UART_2.c ****     *  None.
1059:.\Generated_Source\PSoC5/UART_2.c ****     *
1060:.\Generated_Source\PSoC5/UART_2.c ****     * Return:
1061:.\Generated_Source\PSoC5/UART_2.c ****     *  Contents of the status register
1062:.\Generated_Source\PSoC5/UART_2.c ****     *
1063:.\Generated_Source\PSoC5/UART_2.c ****     * Theory:
1064:.\Generated_Source\PSoC5/UART_2.c ****     *  This function reads the status register which is clear on read. It is up to
1065:.\Generated_Source\PSoC5/UART_2.c ****     *  the user to handle all bits in this return value accordingly, even if the bit
1066:.\Generated_Source\PSoC5/UART_2.c ****     *  was not enabled as an interrupt source the event happened and must be handled
1067:.\Generated_Source\PSoC5/UART_2.c ****     *  accordingly.
1068:.\Generated_Source\PSoC5/UART_2.c ****     *
1069:.\Generated_Source\PSoC5/UART_2.c ****     *******************************************************************************/
1070:.\Generated_Source\PSoC5/UART_2.c ****     uint8 UART_2_ReadTxStatus(void) 
1071:.\Generated_Source\PSoC5/UART_2.c ****     {
 849              		.loc 1 1071 0
 850              		.cfi_startproc
 851              		@ args = 0, pretend = 0, frame = 0
 852              		@ frame_needed = 1, uses_anonymous_args = 0
 853              		@ link register save eliminated.
 854 0000 80B4     		push	{r7}
 855              	.LCFI50:
 856              		.cfi_def_cfa_offset 4
 857              		.cfi_offset 7, -4
 858 0002 00AF     		add	r7, sp, #0
 859              	.LCFI51:
 860              		.cfi_def_cfa_register 7
1072:.\Generated_Source\PSoC5/UART_2.c ****         return(UART_2_TXSTATUS_REG);
 861              		.loc 1 1072 0
 862 0004 46F26443 		movw	r3, #25700
 863 0008 C4F20003 		movt	r3, 16384
 864 000c 1B78     		ldrb	r3, [r3, #0]
 865 000e DBB2     		uxtb	r3, r3
ARM GAS  C:\Users\Owner\AppData\Local\Temp\ccR6XCwT.s 			page 35


1073:.\Generated_Source\PSoC5/UART_2.c ****     }
 866              		.loc 1 1073 0
 867 0010 1846     		mov	r0, r3
 868 0012 BD46     		mov	sp, r7
 869 0014 80BC     		pop	{r7}
 870 0016 7047     		bx	lr
 871              		.cfi_endproc
 872              	.LFE18:
 873              		.size	UART_2_ReadTxStatus, .-UART_2_ReadTxStatus
 874              		.section	.text.UART_2_PutChar,"ax",%progbits
 875              		.align	2
 876              		.global	UART_2_PutChar
 877              		.thumb
 878              		.thumb_func
 879              		.type	UART_2_PutChar, %function
 880              	UART_2_PutChar:
 881              	.LFB19:
1074:.\Generated_Source\PSoC5/UART_2.c **** 
1075:.\Generated_Source\PSoC5/UART_2.c **** 
1076:.\Generated_Source\PSoC5/UART_2.c ****     /*******************************************************************************
1077:.\Generated_Source\PSoC5/UART_2.c ****     * Function Name: UART_2_PutChar
1078:.\Generated_Source\PSoC5/UART_2.c ****     ********************************************************************************
1079:.\Generated_Source\PSoC5/UART_2.c ****     *
1080:.\Generated_Source\PSoC5/UART_2.c ****     * Summary:
1081:.\Generated_Source\PSoC5/UART_2.c ****     *  Wait to send byte until TX register or buffer has room.
1082:.\Generated_Source\PSoC5/UART_2.c ****     *
1083:.\Generated_Source\PSoC5/UART_2.c ****     * Parameters:
1084:.\Generated_Source\PSoC5/UART_2.c ****     *  txDataByte: The 8-bit data value to send across the UART.
1085:.\Generated_Source\PSoC5/UART_2.c ****     *
1086:.\Generated_Source\PSoC5/UART_2.c ****     * Return:
1087:.\Generated_Source\PSoC5/UART_2.c ****     *  None.
1088:.\Generated_Source\PSoC5/UART_2.c ****     *
1089:.\Generated_Source\PSoC5/UART_2.c ****     * Global Variables:
1090:.\Generated_Source\PSoC5/UART_2.c ****     *  UART_2_txBuffer - RAM buffer pointer for save data for transmission
1091:.\Generated_Source\PSoC5/UART_2.c ****     *  UART_2_txBufferWrite - cyclic index for write to txBuffer,
1092:.\Generated_Source\PSoC5/UART_2.c ****     *     checked to identify free space in txBuffer and incremented after each byte
1093:.\Generated_Source\PSoC5/UART_2.c ****     *     saved to buffer.
1094:.\Generated_Source\PSoC5/UART_2.c ****     *  UART_2_txBufferRead - cyclic index for read from txBuffer,
1095:.\Generated_Source\PSoC5/UART_2.c ****     *     checked to identify free space in txBuffer.
1096:.\Generated_Source\PSoC5/UART_2.c ****     *  UART_2_initVar - checked to identify that the component has been
1097:.\Generated_Source\PSoC5/UART_2.c ****     *     initialized.
1098:.\Generated_Source\PSoC5/UART_2.c ****     *
1099:.\Generated_Source\PSoC5/UART_2.c ****     * Reentrant:
1100:.\Generated_Source\PSoC5/UART_2.c ****     *  No.
1101:.\Generated_Source\PSoC5/UART_2.c ****     *
1102:.\Generated_Source\PSoC5/UART_2.c ****     * Theory:
1103:.\Generated_Source\PSoC5/UART_2.c ****     *  Allows the user to transmit any byte of data in a single transfer
1104:.\Generated_Source\PSoC5/UART_2.c ****     *
1105:.\Generated_Source\PSoC5/UART_2.c ****     *******************************************************************************/
1106:.\Generated_Source\PSoC5/UART_2.c ****     void UART_2_PutChar(uint8 txDataByte) 
1107:.\Generated_Source\PSoC5/UART_2.c ****     {
 882              		.loc 1 1107 0
 883              		.cfi_startproc
 884              		@ args = 0, pretend = 0, frame = 8
 885              		@ frame_needed = 1, uses_anonymous_args = 0
 886              		@ link register save eliminated.
 887 0000 80B4     		push	{r7}
ARM GAS  C:\Users\Owner\AppData\Local\Temp\ccR6XCwT.s 			page 36


 888              	.LCFI52:
 889              		.cfi_def_cfa_offset 4
 890              		.cfi_offset 7, -4
 891 0002 83B0     		sub	sp, sp, #12
 892              	.LCFI53:
 893              		.cfi_def_cfa_offset 16
 894 0004 00AF     		add	r7, sp, #0
 895              	.LCFI54:
 896              		.cfi_def_cfa_register 7
 897 0006 0346     		mov	r3, r0
 898 0008 FB71     		strb	r3, [r7, #7]
1108:.\Generated_Source\PSoC5/UART_2.c ****             #if(UART_2_TXBUFFERSIZE > UART_2_FIFO_LENGTH)
1109:.\Generated_Source\PSoC5/UART_2.c ****                 /* The temporary output pointer is used since it takes two instructions
1110:.\Generated_Source\PSoC5/UART_2.c ****                 *  to increment with a wrap, and we can't risk doing that with the real
1111:.\Generated_Source\PSoC5/UART_2.c ****                 *  pointer and getting an interrupt in between instructions.
1112:.\Generated_Source\PSoC5/UART_2.c ****                 */
1113:.\Generated_Source\PSoC5/UART_2.c ****                 uint8 loc_txBufferWrite;
1114:.\Generated_Source\PSoC5/UART_2.c ****                 uint8 loc_txBufferRead;
1115:.\Generated_Source\PSoC5/UART_2.c **** 
1116:.\Generated_Source\PSoC5/UART_2.c ****                 do{
1117:.\Generated_Source\PSoC5/UART_2.c ****                     /* Block if software buffer is full, so we don't overwrite. */
1118:.\Generated_Source\PSoC5/UART_2.c ****                     #if ((UART_2_TXBUFFERSIZE > UART_2_MAX_BYTE_VALUE) && (CY_PSOC3))
1119:.\Generated_Source\PSoC5/UART_2.c ****                         /* Disable TX interrupt to protect variables that could change on interrupt
1120:.\Generated_Source\PSoC5/UART_2.c ****                         CyIntDisable(UART_2_TX_VECT_NUM);
1121:.\Generated_Source\PSoC5/UART_2.c ****                     #endif /* End TXBUFFERSIZE > 255 */
1122:.\Generated_Source\PSoC5/UART_2.c ****                     loc_txBufferWrite = UART_2_txBufferWrite;
1123:.\Generated_Source\PSoC5/UART_2.c ****                     loc_txBufferRead = UART_2_txBufferRead;
1124:.\Generated_Source\PSoC5/UART_2.c ****                     #if ((UART_2_TXBUFFERSIZE > UART_2_MAX_BYTE_VALUE) && (CY_PSOC3))
1125:.\Generated_Source\PSoC5/UART_2.c ****                         /* Enable interrupt to continue transmission */
1126:.\Generated_Source\PSoC5/UART_2.c ****                         CyIntEnable(UART_2_TX_VECT_NUM);
1127:.\Generated_Source\PSoC5/UART_2.c ****                     #endif /* End TXBUFFERSIZE > 255 */
1128:.\Generated_Source\PSoC5/UART_2.c ****                 }while( (loc_txBufferWrite < loc_txBufferRead) ? (loc_txBufferWrite == (loc_txBuffe
1129:.\Generated_Source\PSoC5/UART_2.c ****                                         ((loc_txBufferWrite - loc_txBufferRead) ==
1130:.\Generated_Source\PSoC5/UART_2.c ****                                         (uint8)(UART_2_TXBUFFERSIZE - 1u)) );
1131:.\Generated_Source\PSoC5/UART_2.c **** 
1132:.\Generated_Source\PSoC5/UART_2.c ****                 if( (loc_txBufferRead == loc_txBufferWrite) &&
1133:.\Generated_Source\PSoC5/UART_2.c ****                     ((UART_2_TXSTATUS_REG & UART_2_TX_STS_FIFO_FULL) == 0u) )
1134:.\Generated_Source\PSoC5/UART_2.c ****                 {
1135:.\Generated_Source\PSoC5/UART_2.c ****                     /* Add directly to the FIFO. */
1136:.\Generated_Source\PSoC5/UART_2.c ****                     UART_2_TXDATA_REG = txDataByte;
1137:.\Generated_Source\PSoC5/UART_2.c ****                 }
1138:.\Generated_Source\PSoC5/UART_2.c ****                 else
1139:.\Generated_Source\PSoC5/UART_2.c ****                 {
1140:.\Generated_Source\PSoC5/UART_2.c ****                     if(loc_txBufferWrite >= UART_2_TXBUFFERSIZE)
1141:.\Generated_Source\PSoC5/UART_2.c ****                     {
1142:.\Generated_Source\PSoC5/UART_2.c ****                         loc_txBufferWrite = 0u;
1143:.\Generated_Source\PSoC5/UART_2.c ****                     }
1144:.\Generated_Source\PSoC5/UART_2.c ****                     /* Add to the software buffer. */
1145:.\Generated_Source\PSoC5/UART_2.c ****                     UART_2_txBuffer[loc_txBufferWrite] = txDataByte;
1146:.\Generated_Source\PSoC5/UART_2.c ****                     loc_txBufferWrite++;
1147:.\Generated_Source\PSoC5/UART_2.c **** 
1148:.\Generated_Source\PSoC5/UART_2.c ****                     /* Finally, update the real output pointer */
1149:.\Generated_Source\PSoC5/UART_2.c ****                     #if ((UART_2_TXBUFFERSIZE > UART_2_MAX_BYTE_VALUE) && (CY_PSOC3))
1150:.\Generated_Source\PSoC5/UART_2.c ****                         CyIntDisable(UART_2_TX_VECT_NUM);
1151:.\Generated_Source\PSoC5/UART_2.c ****                     #endif /* End TXBUFFERSIZE > 255 */
1152:.\Generated_Source\PSoC5/UART_2.c ****                     UART_2_txBufferWrite = loc_txBufferWrite;
1153:.\Generated_Source\PSoC5/UART_2.c ****                     #if ((UART_2_TXBUFFERSIZE > UART_2_MAX_BYTE_VALUE) && (CY_PSOC3))
ARM GAS  C:\Users\Owner\AppData\Local\Temp\ccR6XCwT.s 			page 37


1154:.\Generated_Source\PSoC5/UART_2.c ****                         CyIntEnable(UART_2_TX_VECT_NUM);
1155:.\Generated_Source\PSoC5/UART_2.c ****                     #endif /* End TXBUFFERSIZE > 255 */
1156:.\Generated_Source\PSoC5/UART_2.c ****                 }
1157:.\Generated_Source\PSoC5/UART_2.c **** 
1158:.\Generated_Source\PSoC5/UART_2.c ****             #else /* UART_2_TXBUFFERSIZE > UART_2_FIFO_LENGTH */
1159:.\Generated_Source\PSoC5/UART_2.c **** 
1160:.\Generated_Source\PSoC5/UART_2.c ****                 while((UART_2_TXSTATUS_REG & UART_2_TX_STS_FIFO_FULL) != 0u)
 899              		.loc 1 1160 0
 900 000a 00BF     		nop
 901              	.L33:
 902              		.loc 1 1160 0 is_stmt 0 discriminator 1
 903 000c 46F26443 		movw	r3, #25700
 904 0010 C4F20003 		movt	r3, 16384
 905 0014 1B78     		ldrb	r3, [r3, #0]
 906 0016 DBB2     		uxtb	r3, r3
 907 0018 03F00403 		and	r3, r3, #4
 908 001c 002B     		cmp	r3, #0
 909 001e F5D1     		bne	.L33
1161:.\Generated_Source\PSoC5/UART_2.c ****                 {
1162:.\Generated_Source\PSoC5/UART_2.c ****                     ; /* Wait for room in the FIFO. */
1163:.\Generated_Source\PSoC5/UART_2.c ****                 }
1164:.\Generated_Source\PSoC5/UART_2.c **** 
1165:.\Generated_Source\PSoC5/UART_2.c ****                 /* Add directly to the FIFO. */
1166:.\Generated_Source\PSoC5/UART_2.c ****                 UART_2_TXDATA_REG = txDataByte;
 910              		.loc 1 1166 0 is_stmt 1
 911 0020 46F24443 		movw	r3, #25668
 912 0024 C4F20003 		movt	r3, 16384
 913 0028 FA79     		ldrb	r2, [r7, #7]
 914 002a 1A70     		strb	r2, [r3, #0]
1167:.\Generated_Source\PSoC5/UART_2.c **** 
1168:.\Generated_Source\PSoC5/UART_2.c ****             #endif /* End UART_2_TXBUFFERSIZE > UART_2_FIFO_LENGTH */
1169:.\Generated_Source\PSoC5/UART_2.c ****     }
 915              		.loc 1 1169 0
 916 002c 07F10C07 		add	r7, r7, #12
 917 0030 BD46     		mov	sp, r7
 918 0032 80BC     		pop	{r7}
 919 0034 7047     		bx	lr
 920              		.cfi_endproc
 921              	.LFE19:
 922              		.size	UART_2_PutChar, .-UART_2_PutChar
 923 0036 00BF     		.section	.text.UART_2_PutString,"ax",%progbits
 924              		.align	2
 925              		.global	UART_2_PutString
 926              		.thumb
 927              		.thumb_func
 928              		.type	UART_2_PutString, %function
 929              	UART_2_PutString:
 930              	.LFB20:
1170:.\Generated_Source\PSoC5/UART_2.c **** 
1171:.\Generated_Source\PSoC5/UART_2.c **** 
1172:.\Generated_Source\PSoC5/UART_2.c ****     /*******************************************************************************
1173:.\Generated_Source\PSoC5/UART_2.c ****     * Function Name: UART_2_PutString
1174:.\Generated_Source\PSoC5/UART_2.c ****     ********************************************************************************
1175:.\Generated_Source\PSoC5/UART_2.c ****     *
1176:.\Generated_Source\PSoC5/UART_2.c ****     * Summary:
1177:.\Generated_Source\PSoC5/UART_2.c ****     *  Write a Sequence of bytes on the Transmit line. Data comes from RAM or ROM.
1178:.\Generated_Source\PSoC5/UART_2.c ****     *
ARM GAS  C:\Users\Owner\AppData\Local\Temp\ccR6XCwT.s 			page 38


1179:.\Generated_Source\PSoC5/UART_2.c ****     * Parameters:
1180:.\Generated_Source\PSoC5/UART_2.c ****     *  string: char pointer to character string of Data to Send.
1181:.\Generated_Source\PSoC5/UART_2.c ****     *
1182:.\Generated_Source\PSoC5/UART_2.c ****     * Return:
1183:.\Generated_Source\PSoC5/UART_2.c ****     *  None.
1184:.\Generated_Source\PSoC5/UART_2.c ****     *
1185:.\Generated_Source\PSoC5/UART_2.c ****     * Global Variables:
1186:.\Generated_Source\PSoC5/UART_2.c ****     *  UART_2_initVar - checked to identify that the component has been
1187:.\Generated_Source\PSoC5/UART_2.c ****     *     initialized.
1188:.\Generated_Source\PSoC5/UART_2.c ****     *
1189:.\Generated_Source\PSoC5/UART_2.c ****     * Reentrant:
1190:.\Generated_Source\PSoC5/UART_2.c ****     *  No.
1191:.\Generated_Source\PSoC5/UART_2.c ****     *
1192:.\Generated_Source\PSoC5/UART_2.c ****     * Theory:
1193:.\Generated_Source\PSoC5/UART_2.c ****     *  This function will block if there is not enough memory to place the whole
1194:.\Generated_Source\PSoC5/UART_2.c ****     *  string, it will block until the entire string has been written to the
1195:.\Generated_Source\PSoC5/UART_2.c ****     *  transmit buffer.
1196:.\Generated_Source\PSoC5/UART_2.c ****     *
1197:.\Generated_Source\PSoC5/UART_2.c ****     *******************************************************************************/
1198:.\Generated_Source\PSoC5/UART_2.c ****     void UART_2_PutString(const char8 string[]) 
1199:.\Generated_Source\PSoC5/UART_2.c ****     {
 931              		.loc 1 1199 0
 932              		.cfi_startproc
 933              		@ args = 0, pretend = 0, frame = 16
 934              		@ frame_needed = 1, uses_anonymous_args = 0
 935 0000 80B5     		push	{r7, lr}
 936              	.LCFI55:
 937              		.cfi_def_cfa_offset 8
 938              		.cfi_offset 7, -8
 939              		.cfi_offset 14, -4
 940 0002 84B0     		sub	sp, sp, #16
 941              	.LCFI56:
 942              		.cfi_def_cfa_offset 24
 943 0004 00AF     		add	r7, sp, #0
 944              	.LCFI57:
 945              		.cfi_def_cfa_register 7
 946 0006 7860     		str	r0, [r7, #4]
1200:.\Generated_Source\PSoC5/UART_2.c ****         uint16 buf_index = 0u;
 947              		.loc 1 1200 0
 948 0008 4FF00003 		mov	r3, #0
 949 000c FB81     		strh	r3, [r7, #14]	@ movhi
1201:.\Generated_Source\PSoC5/UART_2.c ****         /* If not Initialized then skip this function*/
1202:.\Generated_Source\PSoC5/UART_2.c ****         if(UART_2_initVar != 0u)
 950              		.loc 1 1202 0
 951 000e 40F20003 		movw	r3, #:lower16:UART_2_initVar
 952 0012 C0F20003 		movt	r3, #:upper16:UART_2_initVar
 953 0016 1B78     		ldrb	r3, [r3, #0]	@ zero_extendqisi2
 954 0018 002B     		cmp	r3, #0
 955 001a 11D0     		beq	.L34
1203:.\Generated_Source\PSoC5/UART_2.c ****         {
1204:.\Generated_Source\PSoC5/UART_2.c ****             /* This is a blocking function, it will not exit until all data is sent*/
1205:.\Generated_Source\PSoC5/UART_2.c ****             while(string[buf_index] != (char8)0)
 956              		.loc 1 1205 0
 957 001c 0AE0     		b	.L36
 958              	.L37:
1206:.\Generated_Source\PSoC5/UART_2.c ****             {
1207:.\Generated_Source\PSoC5/UART_2.c ****                 UART_2_PutChar((uint8)string[buf_index]);
ARM GAS  C:\Users\Owner\AppData\Local\Temp\ccR6XCwT.s 			page 39


 959              		.loc 1 1207 0
 960 001e FB89     		ldrh	r3, [r7, #14]
 961 0020 7A68     		ldr	r2, [r7, #4]
 962 0022 D318     		adds	r3, r2, r3
 963 0024 1B78     		ldrb	r3, [r3, #0]	@ zero_extendqisi2
 964 0026 1846     		mov	r0, r3
 965 0028 FFF7FEFF 		bl	UART_2_PutChar
1208:.\Generated_Source\PSoC5/UART_2.c ****                 buf_index++;
 966              		.loc 1 1208 0
 967 002c FB89     		ldrh	r3, [r7, #14]	@ movhi
 968 002e 03F10103 		add	r3, r3, #1
 969 0032 FB81     		strh	r3, [r7, #14]	@ movhi
 970              	.L36:
1205:.\Generated_Source\PSoC5/UART_2.c ****             while(string[buf_index] != (char8)0)
 971              		.loc 1 1205 0 discriminator 1
 972 0034 FB89     		ldrh	r3, [r7, #14]
 973 0036 7A68     		ldr	r2, [r7, #4]
 974 0038 D318     		adds	r3, r2, r3
 975 003a 1B78     		ldrb	r3, [r3, #0]	@ zero_extendqisi2
 976 003c 002B     		cmp	r3, #0
 977 003e EED1     		bne	.L37
 978              	.L34:
1209:.\Generated_Source\PSoC5/UART_2.c ****             }
1210:.\Generated_Source\PSoC5/UART_2.c ****         }
1211:.\Generated_Source\PSoC5/UART_2.c ****     }
 979              		.loc 1 1211 0
 980 0040 07F11007 		add	r7, r7, #16
 981 0044 BD46     		mov	sp, r7
 982 0046 80BD     		pop	{r7, pc}
 983              		.cfi_endproc
 984              	.LFE20:
 985              		.size	UART_2_PutString, .-UART_2_PutString
 986              		.section	.text.UART_2_PutArray,"ax",%progbits
 987              		.align	2
 988              		.global	UART_2_PutArray
 989              		.thumb
 990              		.thumb_func
 991              		.type	UART_2_PutArray, %function
 992              	UART_2_PutArray:
 993              	.LFB21:
1212:.\Generated_Source\PSoC5/UART_2.c **** 
1213:.\Generated_Source\PSoC5/UART_2.c **** 
1214:.\Generated_Source\PSoC5/UART_2.c ****     /*******************************************************************************
1215:.\Generated_Source\PSoC5/UART_2.c ****     * Function Name: UART_2_PutArray
1216:.\Generated_Source\PSoC5/UART_2.c ****     ********************************************************************************
1217:.\Generated_Source\PSoC5/UART_2.c ****     *
1218:.\Generated_Source\PSoC5/UART_2.c ****     * Summary:
1219:.\Generated_Source\PSoC5/UART_2.c ****     *  Write a Sequence of bytes on the Transmit line. Data comes from RAM or ROM.
1220:.\Generated_Source\PSoC5/UART_2.c ****     *
1221:.\Generated_Source\PSoC5/UART_2.c ****     * Parameters:
1222:.\Generated_Source\PSoC5/UART_2.c ****     *  string: Address of the memory array residing in RAM or ROM.
1223:.\Generated_Source\PSoC5/UART_2.c ****     *  byteCount: Number of Bytes to be transmitted.
1224:.\Generated_Source\PSoC5/UART_2.c ****     *
1225:.\Generated_Source\PSoC5/UART_2.c ****     * Return:
1226:.\Generated_Source\PSoC5/UART_2.c ****     *  None.
1227:.\Generated_Source\PSoC5/UART_2.c ****     *
1228:.\Generated_Source\PSoC5/UART_2.c ****     * Global Variables:
ARM GAS  C:\Users\Owner\AppData\Local\Temp\ccR6XCwT.s 			page 40


1229:.\Generated_Source\PSoC5/UART_2.c ****     *  UART_2_initVar - checked to identify that the component has been
1230:.\Generated_Source\PSoC5/UART_2.c ****     *     initialized.
1231:.\Generated_Source\PSoC5/UART_2.c ****     *
1232:.\Generated_Source\PSoC5/UART_2.c ****     * Reentrant:
1233:.\Generated_Source\PSoC5/UART_2.c ****     *  No.
1234:.\Generated_Source\PSoC5/UART_2.c ****     *
1235:.\Generated_Source\PSoC5/UART_2.c ****     *******************************************************************************/
1236:.\Generated_Source\PSoC5/UART_2.c ****     void UART_2_PutArray(const uint8 string[], uint8 byteCount)
1237:.\Generated_Source\PSoC5/UART_2.c ****                                                                     
1238:.\Generated_Source\PSoC5/UART_2.c ****     {
 994              		.loc 1 1238 0
 995              		.cfi_startproc
 996              		@ args = 0, pretend = 0, frame = 16
 997              		@ frame_needed = 1, uses_anonymous_args = 0
 998 0000 80B5     		push	{r7, lr}
 999              	.LCFI58:
 1000              		.cfi_def_cfa_offset 8
 1001              		.cfi_offset 7, -8
 1002              		.cfi_offset 14, -4
 1003 0002 84B0     		sub	sp, sp, #16
 1004              	.LCFI59:
 1005              		.cfi_def_cfa_offset 24
 1006 0004 00AF     		add	r7, sp, #0
 1007              	.LCFI60:
 1008              		.cfi_def_cfa_register 7
 1009 0006 7860     		str	r0, [r7, #4]
 1010 0008 0B46     		mov	r3, r1
 1011 000a FB70     		strb	r3, [r7, #3]
1239:.\Generated_Source\PSoC5/UART_2.c ****         uint8 buf_index = 0u;
 1012              		.loc 1 1239 0
 1013 000c 4FF00003 		mov	r3, #0
 1014 0010 FB73     		strb	r3, [r7, #15]
1240:.\Generated_Source\PSoC5/UART_2.c ****         /* If not Initialized then skip this function*/
1241:.\Generated_Source\PSoC5/UART_2.c ****         if(UART_2_initVar != 0u)
 1015              		.loc 1 1241 0
 1016 0012 40F20003 		movw	r3, #:lower16:UART_2_initVar
 1017 0016 C0F20003 		movt	r3, #:upper16:UART_2_initVar
 1018 001a 1B78     		ldrb	r3, [r3, #0]	@ zero_extendqisi2
 1019 001c 002B     		cmp	r3, #0
 1020 001e 0ED0     		beq	.L38
 1021              	.L40:
1242:.\Generated_Source\PSoC5/UART_2.c ****         {
1243:.\Generated_Source\PSoC5/UART_2.c ****             do
1244:.\Generated_Source\PSoC5/UART_2.c ****             {
1245:.\Generated_Source\PSoC5/UART_2.c ****                 UART_2_PutChar(string[buf_index]);
 1022              		.loc 1 1245 0 discriminator 1
 1023 0020 FB7B     		ldrb	r3, [r7, #15]	@ zero_extendqisi2
 1024 0022 7A68     		ldr	r2, [r7, #4]
 1025 0024 D318     		adds	r3, r2, r3
 1026 0026 1B78     		ldrb	r3, [r3, #0]	@ zero_extendqisi2
 1027 0028 1846     		mov	r0, r3
 1028 002a FFF7FEFF 		bl	UART_2_PutChar
1246:.\Generated_Source\PSoC5/UART_2.c ****                 buf_index++;
 1029              		.loc 1 1246 0 discriminator 1
 1030 002e FB7B     		ldrb	r3, [r7, #15]
 1031 0030 03F10103 		add	r3, r3, #1
 1032 0034 FB73     		strb	r3, [r7, #15]
ARM GAS  C:\Users\Owner\AppData\Local\Temp\ccR6XCwT.s 			page 41


1247:.\Generated_Source\PSoC5/UART_2.c ****             }while(buf_index < byteCount);
 1033              		.loc 1 1247 0 discriminator 1
 1034 0036 FA7B     		ldrb	r2, [r7, #15]	@ zero_extendqisi2
 1035 0038 FB78     		ldrb	r3, [r7, #3]	@ zero_extendqisi2
 1036 003a 9A42     		cmp	r2, r3
 1037 003c F0D3     		bcc	.L40
 1038              	.L38:
1248:.\Generated_Source\PSoC5/UART_2.c ****         }
1249:.\Generated_Source\PSoC5/UART_2.c ****     }
 1039              		.loc 1 1249 0
 1040 003e 07F11007 		add	r7, r7, #16
 1041 0042 BD46     		mov	sp, r7
 1042 0044 80BD     		pop	{r7, pc}
 1043              		.cfi_endproc
 1044              	.LFE21:
 1045              		.size	UART_2_PutArray, .-UART_2_PutArray
 1046 0046 00BF     		.section	.text.UART_2_PutCRLF,"ax",%progbits
 1047              		.align	2
 1048              		.global	UART_2_PutCRLF
 1049              		.thumb
 1050              		.thumb_func
 1051              		.type	UART_2_PutCRLF, %function
 1052              	UART_2_PutCRLF:
 1053              	.LFB22:
1250:.\Generated_Source\PSoC5/UART_2.c **** 
1251:.\Generated_Source\PSoC5/UART_2.c **** 
1252:.\Generated_Source\PSoC5/UART_2.c ****     /*******************************************************************************
1253:.\Generated_Source\PSoC5/UART_2.c ****     * Function Name: UART_2_PutCRLF
1254:.\Generated_Source\PSoC5/UART_2.c ****     ********************************************************************************
1255:.\Generated_Source\PSoC5/UART_2.c ****     *
1256:.\Generated_Source\PSoC5/UART_2.c ****     * Summary:
1257:.\Generated_Source\PSoC5/UART_2.c ****     *  Write a character and then carriage return and line feed.
1258:.\Generated_Source\PSoC5/UART_2.c ****     *
1259:.\Generated_Source\PSoC5/UART_2.c ****     * Parameters:
1260:.\Generated_Source\PSoC5/UART_2.c ****     *  txDataByte: uint8 Character to send.
1261:.\Generated_Source\PSoC5/UART_2.c ****     *
1262:.\Generated_Source\PSoC5/UART_2.c ****     * Return:
1263:.\Generated_Source\PSoC5/UART_2.c ****     *  None.
1264:.\Generated_Source\PSoC5/UART_2.c ****     *
1265:.\Generated_Source\PSoC5/UART_2.c ****     * Global Variables:
1266:.\Generated_Source\PSoC5/UART_2.c ****     *  UART_2_initVar - checked to identify that the component has been
1267:.\Generated_Source\PSoC5/UART_2.c ****     *     initialized.
1268:.\Generated_Source\PSoC5/UART_2.c ****     *
1269:.\Generated_Source\PSoC5/UART_2.c ****     * Reentrant:
1270:.\Generated_Source\PSoC5/UART_2.c ****     *  No.
1271:.\Generated_Source\PSoC5/UART_2.c ****     *
1272:.\Generated_Source\PSoC5/UART_2.c ****     *******************************************************************************/
1273:.\Generated_Source\PSoC5/UART_2.c ****     void UART_2_PutCRLF(uint8 txDataByte) 
1274:.\Generated_Source\PSoC5/UART_2.c ****     {
 1054              		.loc 1 1274 0
 1055              		.cfi_startproc
 1056              		@ args = 0, pretend = 0, frame = 8
 1057              		@ frame_needed = 1, uses_anonymous_args = 0
 1058 0000 80B5     		push	{r7, lr}
 1059              	.LCFI61:
 1060              		.cfi_def_cfa_offset 8
 1061              		.cfi_offset 7, -8
ARM GAS  C:\Users\Owner\AppData\Local\Temp\ccR6XCwT.s 			page 42


 1062              		.cfi_offset 14, -4
 1063 0002 82B0     		sub	sp, sp, #8
 1064              	.LCFI62:
 1065              		.cfi_def_cfa_offset 16
 1066 0004 00AF     		add	r7, sp, #0
 1067              	.LCFI63:
 1068              		.cfi_def_cfa_register 7
 1069 0006 0346     		mov	r3, r0
 1070 0008 FB71     		strb	r3, [r7, #7]
1275:.\Generated_Source\PSoC5/UART_2.c ****         /* If not Initialized then skip this function*/
1276:.\Generated_Source\PSoC5/UART_2.c ****         if(UART_2_initVar != 0u)
 1071              		.loc 1 1276 0
 1072 000a 40F20003 		movw	r3, #:lower16:UART_2_initVar
 1073 000e C0F20003 		movt	r3, #:upper16:UART_2_initVar
 1074 0012 1B78     		ldrb	r3, [r3, #0]	@ zero_extendqisi2
 1075 0014 002B     		cmp	r3, #0
 1076 0016 0BD0     		beq	.L41
1277:.\Generated_Source\PSoC5/UART_2.c ****         {
1278:.\Generated_Source\PSoC5/UART_2.c ****             UART_2_PutChar(txDataByte);
 1077              		.loc 1 1278 0
 1078 0018 FB79     		ldrb	r3, [r7, #7]	@ zero_extendqisi2
 1079 001a 1846     		mov	r0, r3
 1080 001c FFF7FEFF 		bl	UART_2_PutChar
1279:.\Generated_Source\PSoC5/UART_2.c ****             UART_2_PutChar(0x0Du);
 1081              		.loc 1 1279 0
 1082 0020 4FF00D00 		mov	r0, #13
 1083 0024 FFF7FEFF 		bl	UART_2_PutChar
1280:.\Generated_Source\PSoC5/UART_2.c ****             UART_2_PutChar(0x0Au);
 1084              		.loc 1 1280 0
 1085 0028 4FF00A00 		mov	r0, #10
 1086 002c FFF7FEFF 		bl	UART_2_PutChar
 1087              	.L41:
1281:.\Generated_Source\PSoC5/UART_2.c ****         }
1282:.\Generated_Source\PSoC5/UART_2.c ****     }
 1088              		.loc 1 1282 0
 1089 0030 07F10807 		add	r7, r7, #8
 1090 0034 BD46     		mov	sp, r7
 1091 0036 80BD     		pop	{r7, pc}
 1092              		.cfi_endproc
 1093              	.LFE22:
 1094              		.size	UART_2_PutCRLF, .-UART_2_PutCRLF
 1095              		.section	.text.UART_2_GetTxBufferSize,"ax",%progbits
 1096              		.align	2
 1097              		.global	UART_2_GetTxBufferSize
 1098              		.thumb
 1099              		.thumb_func
 1100              		.type	UART_2_GetTxBufferSize, %function
 1101              	UART_2_GetTxBufferSize:
 1102              	.LFB23:
1283:.\Generated_Source\PSoC5/UART_2.c **** 
1284:.\Generated_Source\PSoC5/UART_2.c **** 
1285:.\Generated_Source\PSoC5/UART_2.c ****     /*******************************************************************************
1286:.\Generated_Source\PSoC5/UART_2.c ****     * Function Name: UART_2_GetTxBufferSize
1287:.\Generated_Source\PSoC5/UART_2.c ****     ********************************************************************************
1288:.\Generated_Source\PSoC5/UART_2.c ****     *
1289:.\Generated_Source\PSoC5/UART_2.c ****     * Summary:
1290:.\Generated_Source\PSoC5/UART_2.c ****     *  Determine the amount of space left in the TX buffer and return the count in
ARM GAS  C:\Users\Owner\AppData\Local\Temp\ccR6XCwT.s 			page 43


1291:.\Generated_Source\PSoC5/UART_2.c ****     *  bytes
1292:.\Generated_Source\PSoC5/UART_2.c ****     *
1293:.\Generated_Source\PSoC5/UART_2.c ****     * Parameters:
1294:.\Generated_Source\PSoC5/UART_2.c ****     *  None.
1295:.\Generated_Source\PSoC5/UART_2.c ****     *
1296:.\Generated_Source\PSoC5/UART_2.c ****     * Return:
1297:.\Generated_Source\PSoC5/UART_2.c ****     *  Integer count of the number of bytes left in the TX buffer
1298:.\Generated_Source\PSoC5/UART_2.c ****     *
1299:.\Generated_Source\PSoC5/UART_2.c ****     * Global Variables:
1300:.\Generated_Source\PSoC5/UART_2.c ****     *  UART_2_txBufferWrite - used to calculate left space.
1301:.\Generated_Source\PSoC5/UART_2.c ****     *  UART_2_txBufferRead - used to calculate left space.
1302:.\Generated_Source\PSoC5/UART_2.c ****     *
1303:.\Generated_Source\PSoC5/UART_2.c ****     * Reentrant:
1304:.\Generated_Source\PSoC5/UART_2.c ****     *  No.
1305:.\Generated_Source\PSoC5/UART_2.c ****     *
1306:.\Generated_Source\PSoC5/UART_2.c ****     * Theory:
1307:.\Generated_Source\PSoC5/UART_2.c ****     *  Allows the user to find out how full the TX Buffer is.
1308:.\Generated_Source\PSoC5/UART_2.c ****     *
1309:.\Generated_Source\PSoC5/UART_2.c ****     *******************************************************************************/
1310:.\Generated_Source\PSoC5/UART_2.c ****     uint8 UART_2_GetTxBufferSize(void)
1311:.\Generated_Source\PSoC5/UART_2.c ****                                                             
1312:.\Generated_Source\PSoC5/UART_2.c ****     {
 1103              		.loc 1 1312 0
 1104              		.cfi_startproc
 1105              		@ args = 0, pretend = 0, frame = 8
 1106              		@ frame_needed = 1, uses_anonymous_args = 0
 1107              		@ link register save eliminated.
 1108 0000 80B4     		push	{r7}
 1109              	.LCFI64:
 1110              		.cfi_def_cfa_offset 4
 1111              		.cfi_offset 7, -4
 1112 0002 83B0     		sub	sp, sp, #12
 1113              	.LCFI65:
 1114              		.cfi_def_cfa_offset 16
 1115 0004 00AF     		add	r7, sp, #0
 1116              	.LCFI66:
 1117              		.cfi_def_cfa_register 7
1313:.\Generated_Source\PSoC5/UART_2.c ****         uint8 size;
1314:.\Generated_Source\PSoC5/UART_2.c **** 
1315:.\Generated_Source\PSoC5/UART_2.c ****         #if(UART_2_TXBUFFERSIZE > UART_2_FIFO_LENGTH)
1316:.\Generated_Source\PSoC5/UART_2.c **** 
1317:.\Generated_Source\PSoC5/UART_2.c ****             /* Disable Tx interrupt. */
1318:.\Generated_Source\PSoC5/UART_2.c ****             /* Protect variables that could change on interrupt. */
1319:.\Generated_Source\PSoC5/UART_2.c ****             #if(UART_2_TX_INTERRUPT_ENABLED)
1320:.\Generated_Source\PSoC5/UART_2.c ****                 UART_2_DisableTxInt();
1321:.\Generated_Source\PSoC5/UART_2.c ****             #endif /* End UART_2_TX_INTERRUPT_ENABLED */
1322:.\Generated_Source\PSoC5/UART_2.c **** 
1323:.\Generated_Source\PSoC5/UART_2.c ****             if(UART_2_txBufferRead == UART_2_txBufferWrite)
1324:.\Generated_Source\PSoC5/UART_2.c ****             {
1325:.\Generated_Source\PSoC5/UART_2.c ****                 size = 0u;
1326:.\Generated_Source\PSoC5/UART_2.c ****             }
1327:.\Generated_Source\PSoC5/UART_2.c ****             else if(UART_2_txBufferRead < UART_2_txBufferWrite)
1328:.\Generated_Source\PSoC5/UART_2.c ****             {
1329:.\Generated_Source\PSoC5/UART_2.c ****                 size = (UART_2_txBufferWrite - UART_2_txBufferRead);
1330:.\Generated_Source\PSoC5/UART_2.c ****             }
1331:.\Generated_Source\PSoC5/UART_2.c ****             else
1332:.\Generated_Source\PSoC5/UART_2.c ****             {
ARM GAS  C:\Users\Owner\AppData\Local\Temp\ccR6XCwT.s 			page 44


1333:.\Generated_Source\PSoC5/UART_2.c ****                 size = (UART_2_TXBUFFERSIZE - UART_2_txBufferRead) + UART_2_txBufferWrite;
1334:.\Generated_Source\PSoC5/UART_2.c ****             }
1335:.\Generated_Source\PSoC5/UART_2.c **** 
1336:.\Generated_Source\PSoC5/UART_2.c ****             /* Enable Tx interrupt. */
1337:.\Generated_Source\PSoC5/UART_2.c ****             #if(UART_2_TX_INTERRUPT_ENABLED)
1338:.\Generated_Source\PSoC5/UART_2.c ****                 UART_2_EnableTxInt();
1339:.\Generated_Source\PSoC5/UART_2.c ****             #endif /* End UART_2_TX_INTERRUPT_ENABLED */
1340:.\Generated_Source\PSoC5/UART_2.c **** 
1341:.\Generated_Source\PSoC5/UART_2.c ****         #else /* UART_2_TXBUFFERSIZE > UART_2_FIFO_LENGTH */
1342:.\Generated_Source\PSoC5/UART_2.c **** 
1343:.\Generated_Source\PSoC5/UART_2.c ****             size = UART_2_TXSTATUS_REG;
 1118              		.loc 1 1343 0
 1119 0006 46F26443 		movw	r3, #25700
 1120 000a C4F20003 		movt	r3, 16384
 1121 000e 1B78     		ldrb	r3, [r3, #0]
 1122 0010 FB71     		strb	r3, [r7, #7]
1344:.\Generated_Source\PSoC5/UART_2.c **** 
1345:.\Generated_Source\PSoC5/UART_2.c ****             /* Is the fifo is full. */
1346:.\Generated_Source\PSoC5/UART_2.c ****             if((size & UART_2_TX_STS_FIFO_FULL) != 0u)
 1123              		.loc 1 1346 0
 1124 0012 FB79     		ldrb	r3, [r7, #7]	@ zero_extendqisi2
 1125 0014 03F00403 		and	r3, r3, #4
 1126 0018 002B     		cmp	r3, #0
 1127 001a 03D0     		beq	.L44
1347:.\Generated_Source\PSoC5/UART_2.c ****             {
1348:.\Generated_Source\PSoC5/UART_2.c ****                 size = UART_2_FIFO_LENGTH;
 1128              		.loc 1 1348 0
 1129 001c 4FF00403 		mov	r3, #4
 1130 0020 FB71     		strb	r3, [r7, #7]
 1131 0022 0BE0     		b	.L45
 1132              	.L44:
1349:.\Generated_Source\PSoC5/UART_2.c ****             }
1350:.\Generated_Source\PSoC5/UART_2.c ****             else if((size & UART_2_TX_STS_FIFO_EMPTY) != 0u)
 1133              		.loc 1 1350 0
 1134 0024 FB79     		ldrb	r3, [r7, #7]	@ zero_extendqisi2
 1135 0026 03F00203 		and	r3, r3, #2
 1136 002a 002B     		cmp	r3, #0
 1137 002c 03D0     		beq	.L46
1351:.\Generated_Source\PSoC5/UART_2.c ****             {
1352:.\Generated_Source\PSoC5/UART_2.c ****                 size = 0u;
 1138              		.loc 1 1352 0
 1139 002e 4FF00003 		mov	r3, #0
 1140 0032 FB71     		strb	r3, [r7, #7]
 1141 0034 02E0     		b	.L45
 1142              	.L46:
1353:.\Generated_Source\PSoC5/UART_2.c ****             }
1354:.\Generated_Source\PSoC5/UART_2.c ****             else
1355:.\Generated_Source\PSoC5/UART_2.c ****             {
1356:.\Generated_Source\PSoC5/UART_2.c ****                 /* We only know there is data in the fifo. */
1357:.\Generated_Source\PSoC5/UART_2.c ****                 size = 1u;
 1143              		.loc 1 1357 0
 1144 0036 4FF00103 		mov	r3, #1
 1145 003a FB71     		strb	r3, [r7, #7]
 1146              	.L45:
1358:.\Generated_Source\PSoC5/UART_2.c ****             }
1359:.\Generated_Source\PSoC5/UART_2.c **** 
1360:.\Generated_Source\PSoC5/UART_2.c ****         #endif /* End UART_2_TXBUFFERSIZE > UART_2_FIFO_LENGTH */
ARM GAS  C:\Users\Owner\AppData\Local\Temp\ccR6XCwT.s 			page 45


1361:.\Generated_Source\PSoC5/UART_2.c **** 
1362:.\Generated_Source\PSoC5/UART_2.c ****         return(size);
 1147              		.loc 1 1362 0
 1148 003c FB79     		ldrb	r3, [r7, #7]	@ zero_extendqisi2
1363:.\Generated_Source\PSoC5/UART_2.c ****     }
 1149              		.loc 1 1363 0
 1150 003e 1846     		mov	r0, r3
 1151 0040 07F10C07 		add	r7, r7, #12
 1152 0044 BD46     		mov	sp, r7
 1153 0046 80BC     		pop	{r7}
 1154 0048 7047     		bx	lr
 1155              		.cfi_endproc
 1156              	.LFE23:
 1157              		.size	UART_2_GetTxBufferSize, .-UART_2_GetTxBufferSize
 1158 004a 00BF     		.section	.text.UART_2_ClearTxBuffer,"ax",%progbits
 1159              		.align	2
 1160              		.global	UART_2_ClearTxBuffer
 1161              		.thumb
 1162              		.thumb_func
 1163              		.type	UART_2_ClearTxBuffer, %function
 1164              	UART_2_ClearTxBuffer:
 1165              	.LFB24:
1364:.\Generated_Source\PSoC5/UART_2.c **** 
1365:.\Generated_Source\PSoC5/UART_2.c **** 
1366:.\Generated_Source\PSoC5/UART_2.c ****     /*******************************************************************************
1367:.\Generated_Source\PSoC5/UART_2.c ****     * Function Name: UART_2_ClearTxBuffer
1368:.\Generated_Source\PSoC5/UART_2.c ****     ********************************************************************************
1369:.\Generated_Source\PSoC5/UART_2.c ****     *
1370:.\Generated_Source\PSoC5/UART_2.c ****     * Summary:
1371:.\Generated_Source\PSoC5/UART_2.c ****     *  Clears the TX RAM buffer by setting the read and write pointers both to zero.
1372:.\Generated_Source\PSoC5/UART_2.c ****     *  Clears the hardware TX FIFO.  Any data present in the FIFO will not be sent.
1373:.\Generated_Source\PSoC5/UART_2.c ****     *
1374:.\Generated_Source\PSoC5/UART_2.c ****     * Parameters:
1375:.\Generated_Source\PSoC5/UART_2.c ****     *  None.
1376:.\Generated_Source\PSoC5/UART_2.c ****     *
1377:.\Generated_Source\PSoC5/UART_2.c ****     * Return:
1378:.\Generated_Source\PSoC5/UART_2.c ****     *  None.
1379:.\Generated_Source\PSoC5/UART_2.c ****     *
1380:.\Generated_Source\PSoC5/UART_2.c ****     * Global Variables:
1381:.\Generated_Source\PSoC5/UART_2.c ****     *  UART_2_txBufferWrite - cleared to zero.
1382:.\Generated_Source\PSoC5/UART_2.c ****     *  UART_2_txBufferRead - cleared to zero.
1383:.\Generated_Source\PSoC5/UART_2.c ****     *
1384:.\Generated_Source\PSoC5/UART_2.c ****     * Reentrant:
1385:.\Generated_Source\PSoC5/UART_2.c ****     *  No.
1386:.\Generated_Source\PSoC5/UART_2.c ****     *
1387:.\Generated_Source\PSoC5/UART_2.c ****     * Theory:
1388:.\Generated_Source\PSoC5/UART_2.c ****     *  Setting the pointers to zero makes the system believe there is no data to
1389:.\Generated_Source\PSoC5/UART_2.c ****     *  read and writing will resume at address 0 overwriting any data that may have
1390:.\Generated_Source\PSoC5/UART_2.c ****     *  remained in the RAM.
1391:.\Generated_Source\PSoC5/UART_2.c ****     *
1392:.\Generated_Source\PSoC5/UART_2.c ****     * Side Effects:
1393:.\Generated_Source\PSoC5/UART_2.c ****     *  Any received data not read from the RAM buffer will be lost when overwritten.
1394:.\Generated_Source\PSoC5/UART_2.c ****     *
1395:.\Generated_Source\PSoC5/UART_2.c ****     *******************************************************************************/
1396:.\Generated_Source\PSoC5/UART_2.c ****     void UART_2_ClearTxBuffer(void) 
1397:.\Generated_Source\PSoC5/UART_2.c ****     {
 1166              		.loc 1 1397 0
ARM GAS  C:\Users\Owner\AppData\Local\Temp\ccR6XCwT.s 			page 46


 1167              		.cfi_startproc
 1168              		@ args = 0, pretend = 0, frame = 8
 1169              		@ frame_needed = 1, uses_anonymous_args = 0
 1170 0000 80B5     		push	{r7, lr}
 1171              	.LCFI67:
 1172              		.cfi_def_cfa_offset 8
 1173              		.cfi_offset 7, -8
 1174              		.cfi_offset 14, -4
 1175 0002 82B0     		sub	sp, sp, #8
 1176              	.LCFI68:
 1177              		.cfi_def_cfa_offset 16
 1178 0004 00AF     		add	r7, sp, #0
 1179              	.LCFI69:
 1180              		.cfi_def_cfa_register 7
1398:.\Generated_Source\PSoC5/UART_2.c ****         uint8 enableInterrupts;
1399:.\Generated_Source\PSoC5/UART_2.c **** 
1400:.\Generated_Source\PSoC5/UART_2.c ****         /* Enter critical section */
1401:.\Generated_Source\PSoC5/UART_2.c ****         enableInterrupts = CyEnterCriticalSection();
 1181              		.loc 1 1401 0
 1182 0006 FFF7FEFF 		bl	CyEnterCriticalSection
 1183 000a 0346     		mov	r3, r0
 1184 000c FB71     		strb	r3, [r7, #7]
1402:.\Generated_Source\PSoC5/UART_2.c ****         /* clear the HW FIFO */
1403:.\Generated_Source\PSoC5/UART_2.c ****         UART_2_TXDATA_AUX_CTL_REG |=  UART_2_TX_FIFO_CLR;
 1185              		.loc 1 1403 0
 1186 000e 46F29443 		movw	r3, #25748
 1187 0012 C4F20003 		movt	r3, 16384
 1188 0016 46F29442 		movw	r2, #25748
 1189 001a C4F20002 		movt	r2, 16384
 1190 001e 1278     		ldrb	r2, [r2, #0]
 1191 0020 D2B2     		uxtb	r2, r2
 1192 0022 42F00102 		orr	r2, r2, #1
 1193 0026 D2B2     		uxtb	r2, r2
 1194 0028 1A70     		strb	r2, [r3, #0]
1404:.\Generated_Source\PSoC5/UART_2.c ****         UART_2_TXDATA_AUX_CTL_REG &= (uint8)~UART_2_TX_FIFO_CLR;
 1195              		.loc 1 1404 0
 1196 002a 46F29443 		movw	r3, #25748
 1197 002e C4F20003 		movt	r3, 16384
 1198 0032 46F29442 		movw	r2, #25748
 1199 0036 C4F20002 		movt	r2, 16384
 1200 003a 1278     		ldrb	r2, [r2, #0]
 1201 003c D2B2     		uxtb	r2, r2
 1202 003e 22F00102 		bic	r2, r2, #1
 1203 0042 D2B2     		uxtb	r2, r2
 1204 0044 1A70     		strb	r2, [r3, #0]
1405:.\Generated_Source\PSoC5/UART_2.c ****         /* Exit critical section */
1406:.\Generated_Source\PSoC5/UART_2.c ****         CyExitCriticalSection(enableInterrupts);
 1205              		.loc 1 1406 0
 1206 0046 FB79     		ldrb	r3, [r7, #7]	@ zero_extendqisi2
 1207 0048 1846     		mov	r0, r3
 1208 004a FFF7FEFF 		bl	CyExitCriticalSection
1407:.\Generated_Source\PSoC5/UART_2.c **** 
1408:.\Generated_Source\PSoC5/UART_2.c ****         #if(UART_2_TXBUFFERSIZE > UART_2_FIFO_LENGTH)
1409:.\Generated_Source\PSoC5/UART_2.c **** 
1410:.\Generated_Source\PSoC5/UART_2.c ****             /* Disable Tx interrupt. */
1411:.\Generated_Source\PSoC5/UART_2.c ****             /* Protect variables that could change on interrupt. */
1412:.\Generated_Source\PSoC5/UART_2.c ****             #if(UART_2_TX_INTERRUPT_ENABLED)
ARM GAS  C:\Users\Owner\AppData\Local\Temp\ccR6XCwT.s 			page 47


1413:.\Generated_Source\PSoC5/UART_2.c ****                 UART_2_DisableTxInt();
1414:.\Generated_Source\PSoC5/UART_2.c ****             #endif /* End UART_2_TX_INTERRUPT_ENABLED */
1415:.\Generated_Source\PSoC5/UART_2.c **** 
1416:.\Generated_Source\PSoC5/UART_2.c ****             UART_2_txBufferRead = 0u;
1417:.\Generated_Source\PSoC5/UART_2.c ****             UART_2_txBufferWrite = 0u;
1418:.\Generated_Source\PSoC5/UART_2.c **** 
1419:.\Generated_Source\PSoC5/UART_2.c ****             /* Enable Tx interrupt. */
1420:.\Generated_Source\PSoC5/UART_2.c ****             #if(UART_2_TX_INTERRUPT_ENABLED)
1421:.\Generated_Source\PSoC5/UART_2.c ****                 UART_2_EnableTxInt();
1422:.\Generated_Source\PSoC5/UART_2.c ****             #endif /* End UART_2_TX_INTERRUPT_ENABLED */
1423:.\Generated_Source\PSoC5/UART_2.c **** 
1424:.\Generated_Source\PSoC5/UART_2.c ****         #endif /* End UART_2_TXBUFFERSIZE > UART_2_FIFO_LENGTH */
1425:.\Generated_Source\PSoC5/UART_2.c ****     }
 1209              		.loc 1 1425 0
 1210 004e 07F10807 		add	r7, r7, #8
 1211 0052 BD46     		mov	sp, r7
 1212 0054 80BD     		pop	{r7, pc}
 1213              		.cfi_endproc
 1214              	.LFE24:
 1215              		.size	UART_2_ClearTxBuffer, .-UART_2_ClearTxBuffer
 1216 0056 00BF     		.section	.text.UART_2_SendBreak,"ax",%progbits
 1217              		.align	2
 1218              		.global	UART_2_SendBreak
 1219              		.thumb
 1220              		.thumb_func
 1221              		.type	UART_2_SendBreak, %function
 1222              	UART_2_SendBreak:
 1223              	.LFB25:
1426:.\Generated_Source\PSoC5/UART_2.c **** 
1427:.\Generated_Source\PSoC5/UART_2.c **** 
1428:.\Generated_Source\PSoC5/UART_2.c ****     /*******************************************************************************
1429:.\Generated_Source\PSoC5/UART_2.c ****     * Function Name: UART_2_SendBreak
1430:.\Generated_Source\PSoC5/UART_2.c ****     ********************************************************************************
1431:.\Generated_Source\PSoC5/UART_2.c ****     *
1432:.\Generated_Source\PSoC5/UART_2.c ****     * Summary:
1433:.\Generated_Source\PSoC5/UART_2.c ****     *  Write a Break command to the UART
1434:.\Generated_Source\PSoC5/UART_2.c ****     *
1435:.\Generated_Source\PSoC5/UART_2.c ****     * Parameters:
1436:.\Generated_Source\PSoC5/UART_2.c ****     *  uint8 retMode:  Wait mode,
1437:.\Generated_Source\PSoC5/UART_2.c ****     *   0 - Initialize registers for Break, sends the Break signal and return
1438:.\Generated_Source\PSoC5/UART_2.c ****     *       imediately.
1439:.\Generated_Source\PSoC5/UART_2.c ****     *   1 - Wait until Break sending is complete, reinitialize registers to normal
1440:.\Generated_Source\PSoC5/UART_2.c ****     *       transmission mode then return.
1441:.\Generated_Source\PSoC5/UART_2.c ****     *   2 - Reinitialize registers to normal transmission mode then return.
1442:.\Generated_Source\PSoC5/UART_2.c ****     *   3 - both steps: 0 and 1
1443:.\Generated_Source\PSoC5/UART_2.c ****     *       init registers for Break, send Break signal
1444:.\Generated_Source\PSoC5/UART_2.c ****     *       wait until Break sending is complete, reinit registers to normal
1445:.\Generated_Source\PSoC5/UART_2.c ****     *       transmission mode then return.
1446:.\Generated_Source\PSoC5/UART_2.c ****     *
1447:.\Generated_Source\PSoC5/UART_2.c ****     * Return:
1448:.\Generated_Source\PSoC5/UART_2.c ****     *  None.
1449:.\Generated_Source\PSoC5/UART_2.c ****     *
1450:.\Generated_Source\PSoC5/UART_2.c ****     * Global Variables:
1451:.\Generated_Source\PSoC5/UART_2.c ****     *  UART_2_initVar - checked to identify that the component has been
1452:.\Generated_Source\PSoC5/UART_2.c ****     *     initialized.
1453:.\Generated_Source\PSoC5/UART_2.c ****     *  tx_period - static variable, used for keeping TX period configuration.
1454:.\Generated_Source\PSoC5/UART_2.c ****     *
ARM GAS  C:\Users\Owner\AppData\Local\Temp\ccR6XCwT.s 			page 48


1455:.\Generated_Source\PSoC5/UART_2.c ****     * Reentrant:
1456:.\Generated_Source\PSoC5/UART_2.c ****     *  No.
1457:.\Generated_Source\PSoC5/UART_2.c ****     *
1458:.\Generated_Source\PSoC5/UART_2.c ****     * Theory:
1459:.\Generated_Source\PSoC5/UART_2.c ****     *  SendBreak function initializes registers to send 13-bit break signal. It is
1460:.\Generated_Source\PSoC5/UART_2.c ****     *  important to return the registers configuration to normal for continue 8-bit
1461:.\Generated_Source\PSoC5/UART_2.c ****     *  operation.
1462:.\Generated_Source\PSoC5/UART_2.c ****     *  Trere are 3 variants for this API usage:
1463:.\Generated_Source\PSoC5/UART_2.c ****     *  1) SendBreak(3) - function will send the Break signal and take care on the
1464:.\Generated_Source\PSoC5/UART_2.c ****     *     configuration returning. Funcition will block CPU untill transmition
1465:.\Generated_Source\PSoC5/UART_2.c ****     *     complete.
1466:.\Generated_Source\PSoC5/UART_2.c ****     *  2) User may want to use bloking time if UART configured to the low speed
1467:.\Generated_Source\PSoC5/UART_2.c ****     *     operation
1468:.\Generated_Source\PSoC5/UART_2.c ****     *     Emample for this case:
1469:.\Generated_Source\PSoC5/UART_2.c ****     *     SendBreak(0);     - init Break signal transmition
1470:.\Generated_Source\PSoC5/UART_2.c ****     *         Add your code here to use CPU time
1471:.\Generated_Source\PSoC5/UART_2.c ****     *     SendBreak(1);     - complete Break operation
1472:.\Generated_Source\PSoC5/UART_2.c ****     *  3) Same to 2) but user may want to init and use the interrupt for complete
1473:.\Generated_Source\PSoC5/UART_2.c ****     *     break operation.
1474:.\Generated_Source\PSoC5/UART_2.c ****     *     Example for this case:
1475:.\Generated_Source\PSoC5/UART_2.c ****     *     Init TX interrupt whith "TX - On TX Complete" parameter
1476:.\Generated_Source\PSoC5/UART_2.c ****     *     SendBreak(0);     - init Break signal transmition
1477:.\Generated_Source\PSoC5/UART_2.c ****     *         Add your code here to use CPU time
1478:.\Generated_Source\PSoC5/UART_2.c ****     *     When interrupt appear with UART_TX_STS_COMPLETE status:
1479:.\Generated_Source\PSoC5/UART_2.c ****     *     SendBreak(2);     - complete Break operation
1480:.\Generated_Source\PSoC5/UART_2.c ****     *
1481:.\Generated_Source\PSoC5/UART_2.c ****     * Side Effects:
1482:.\Generated_Source\PSoC5/UART_2.c ****     *   Uses static variable to keep registers configuration.
1483:.\Generated_Source\PSoC5/UART_2.c ****     *
1484:.\Generated_Source\PSoC5/UART_2.c ****     *******************************************************************************/
1485:.\Generated_Source\PSoC5/UART_2.c ****     void UART_2_SendBreak(uint8 retMode) 
1486:.\Generated_Source\PSoC5/UART_2.c ****     {
 1224              		.loc 1 1486 0
 1225              		.cfi_startproc
 1226              		@ args = 0, pretend = 0, frame = 16
 1227              		@ frame_needed = 1, uses_anonymous_args = 0
 1228              		@ link register save eliminated.
 1229 0000 80B4     		push	{r7}
 1230              	.LCFI70:
 1231              		.cfi_def_cfa_offset 4
 1232              		.cfi_offset 7, -4
 1233 0002 85B0     		sub	sp, sp, #20
 1234              	.LCFI71:
 1235              		.cfi_def_cfa_offset 24
 1236 0004 00AF     		add	r7, sp, #0
 1237              	.LCFI72:
 1238              		.cfi_def_cfa_register 7
 1239 0006 0346     		mov	r3, r0
 1240 0008 FB71     		strb	r3, [r7, #7]
1487:.\Generated_Source\PSoC5/UART_2.c **** 
1488:.\Generated_Source\PSoC5/UART_2.c ****         /* If not Initialized then skip this function*/
1489:.\Generated_Source\PSoC5/UART_2.c ****         if(UART_2_initVar != 0u)
 1241              		.loc 1 1489 0
 1242 000a 40F20003 		movw	r3, #:lower16:UART_2_initVar
 1243 000e C0F20003 		movt	r3, #:upper16:UART_2_initVar
 1244 0012 1B78     		ldrb	r3, [r3, #0]	@ zero_extendqisi2
 1245 0014 002B     		cmp	r3, #0
ARM GAS  C:\Users\Owner\AppData\Local\Temp\ccR6XCwT.s 			page 49


 1246 0016 50D0     		beq	.L49
 1247              	.LBB2:
1490:.\Generated_Source\PSoC5/UART_2.c ****         {
1491:.\Generated_Source\PSoC5/UART_2.c ****             /*Set the Counter to 13-bits and transmit a 00 byte*/
1492:.\Generated_Source\PSoC5/UART_2.c ****             /*When that is done then reset the counter value back*/
1493:.\Generated_Source\PSoC5/UART_2.c ****             uint8 tmpStat;
1494:.\Generated_Source\PSoC5/UART_2.c **** 
1495:.\Generated_Source\PSoC5/UART_2.c ****             #if(UART_2_HD_ENABLED) /* Half Duplex mode*/
1496:.\Generated_Source\PSoC5/UART_2.c **** 
1497:.\Generated_Source\PSoC5/UART_2.c ****                 if( (retMode == UART_2_SEND_BREAK) ||
1498:.\Generated_Source\PSoC5/UART_2.c ****                     (retMode == UART_2_SEND_WAIT_REINIT ) )
1499:.\Generated_Source\PSoC5/UART_2.c ****                 {
1500:.\Generated_Source\PSoC5/UART_2.c ****                     /* CTRL_HD_SEND_BREAK - sends break bits in HD mode*/
1501:.\Generated_Source\PSoC5/UART_2.c ****                     UART_2_WriteControlRegister(UART_2_ReadControlRegister() |
1502:.\Generated_Source\PSoC5/UART_2.c ****                                                           UART_2_CTRL_HD_SEND_BREAK);
1503:.\Generated_Source\PSoC5/UART_2.c ****                     /* Send zeros*/
1504:.\Generated_Source\PSoC5/UART_2.c ****                     UART_2_TXDATA_REG = 0u;
1505:.\Generated_Source\PSoC5/UART_2.c **** 
1506:.\Generated_Source\PSoC5/UART_2.c ****                     do /*wait until transmit starts*/
1507:.\Generated_Source\PSoC5/UART_2.c ****                     {
1508:.\Generated_Source\PSoC5/UART_2.c ****                         tmpStat = UART_2_TXSTATUS_REG;
1509:.\Generated_Source\PSoC5/UART_2.c ****                     }while((tmpStat & UART_2_TX_STS_FIFO_EMPTY) != 0u);
1510:.\Generated_Source\PSoC5/UART_2.c ****                 }
1511:.\Generated_Source\PSoC5/UART_2.c **** 
1512:.\Generated_Source\PSoC5/UART_2.c ****                 if( (retMode == UART_2_WAIT_FOR_COMPLETE_REINIT) ||
1513:.\Generated_Source\PSoC5/UART_2.c ****                     (retMode == UART_2_SEND_WAIT_REINIT) )
1514:.\Generated_Source\PSoC5/UART_2.c ****                 {
1515:.\Generated_Source\PSoC5/UART_2.c ****                     do /*wait until transmit complete*/
1516:.\Generated_Source\PSoC5/UART_2.c ****                     {
1517:.\Generated_Source\PSoC5/UART_2.c ****                         tmpStat = UART_2_TXSTATUS_REG;
1518:.\Generated_Source\PSoC5/UART_2.c ****                     }while(((uint8)~tmpStat & UART_2_TX_STS_COMPLETE) != 0u);
1519:.\Generated_Source\PSoC5/UART_2.c ****                 }
1520:.\Generated_Source\PSoC5/UART_2.c **** 
1521:.\Generated_Source\PSoC5/UART_2.c ****                 if( (retMode == UART_2_WAIT_FOR_COMPLETE_REINIT) ||
1522:.\Generated_Source\PSoC5/UART_2.c ****                     (retMode == UART_2_REINIT) ||
1523:.\Generated_Source\PSoC5/UART_2.c ****                     (retMode == UART_2_SEND_WAIT_REINIT) )
1524:.\Generated_Source\PSoC5/UART_2.c ****                 {
1525:.\Generated_Source\PSoC5/UART_2.c ****                     UART_2_WriteControlRegister(UART_2_ReadControlRegister() &
1526:.\Generated_Source\PSoC5/UART_2.c ****                                                   (uint8)~UART_2_CTRL_HD_SEND_BREAK);
1527:.\Generated_Source\PSoC5/UART_2.c ****                 }
1528:.\Generated_Source\PSoC5/UART_2.c **** 
1529:.\Generated_Source\PSoC5/UART_2.c ****             #else /* UART_2_HD_ENABLED Full Duplex mode */
1530:.\Generated_Source\PSoC5/UART_2.c **** 
1531:.\Generated_Source\PSoC5/UART_2.c ****                 static uint8 tx_period;
1532:.\Generated_Source\PSoC5/UART_2.c **** 
1533:.\Generated_Source\PSoC5/UART_2.c ****                 if( (retMode == UART_2_SEND_BREAK) ||
 1248              		.loc 1 1533 0
 1249 0018 FB79     		ldrb	r3, [r7, #7]	@ zero_extendqisi2
 1250 001a 002B     		cmp	r3, #0
 1251 001c 02D0     		beq	.L51
 1252              		.loc 1 1533 0 is_stmt 0 discriminator 1
 1253 001e FB79     		ldrb	r3, [r7, #7]	@ zero_extendqisi2
 1254 0020 032B     		cmp	r3, #3
 1255 0022 23D1     		bne	.L52
 1256              	.L51:
1534:.\Generated_Source\PSoC5/UART_2.c ****                     (retMode == UART_2_SEND_WAIT_REINIT) )
1535:.\Generated_Source\PSoC5/UART_2.c ****                 {
ARM GAS  C:\Users\Owner\AppData\Local\Temp\ccR6XCwT.s 			page 50


1536:.\Generated_Source\PSoC5/UART_2.c ****                     /* CTRL_HD_SEND_BREAK - skip to send parity bit at Break signal in Full Duplex 
1537:.\Generated_Source\PSoC5/UART_2.c ****                     #if( (UART_2_PARITY_TYPE != UART_2__B_UART__NONE_REVB) || \
1538:.\Generated_Source\PSoC5/UART_2.c ****                                         (UART_2_PARITY_TYPE_SW != 0u) )
1539:.\Generated_Source\PSoC5/UART_2.c ****                         UART_2_WriteControlRegister(UART_2_ReadControlRegister() |
1540:.\Generated_Source\PSoC5/UART_2.c ****                                                               UART_2_CTRL_HD_SEND_BREAK);
1541:.\Generated_Source\PSoC5/UART_2.c ****                     #endif /* End UART_2_PARITY_TYPE != UART_2__B_UART__NONE_REVB  */
1542:.\Generated_Source\PSoC5/UART_2.c **** 
1543:.\Generated_Source\PSoC5/UART_2.c ****                     #if(UART_2_TXCLKGEN_DP)
1544:.\Generated_Source\PSoC5/UART_2.c ****                         tx_period = UART_2_TXBITCLKTX_COMPLETE_REG;
 1257              		.loc 1 1544 0 is_stmt 1
 1258 0024 46F23743 		movw	r3, #25655
 1259 0028 C4F20003 		movt	r3, 16384
 1260 002c 1B78     		ldrb	r3, [r3, #0]
 1261 002e DAB2     		uxtb	r2, r3
 1262 0030 40F20003 		movw	r3, #:lower16:tx_period.4918
 1263 0034 C0F20003 		movt	r3, #:upper16:tx_period.4918
 1264 0038 1A70     		strb	r2, [r3, #0]
1545:.\Generated_Source\PSoC5/UART_2.c ****                         UART_2_TXBITCLKTX_COMPLETE_REG = UART_2_TXBITCTR_BREAKBITS;
 1265              		.loc 1 1545 0
 1266 003a 46F23743 		movw	r3, #25655
 1267 003e C4F20003 		movt	r3, 16384
 1268 0042 4FF06702 		mov	r2, #103
 1269 0046 1A70     		strb	r2, [r3, #0]
1546:.\Generated_Source\PSoC5/UART_2.c ****                     #else
1547:.\Generated_Source\PSoC5/UART_2.c ****                         tx_period = UART_2_TXBITCTR_PERIOD_REG;
1548:.\Generated_Source\PSoC5/UART_2.c ****                         UART_2_TXBITCTR_PERIOD_REG = UART_2_TXBITCTR_BREAKBITS8X;
1549:.\Generated_Source\PSoC5/UART_2.c ****                     #endif /* End UART_2_TXCLKGEN_DP */
1550:.\Generated_Source\PSoC5/UART_2.c **** 
1551:.\Generated_Source\PSoC5/UART_2.c ****                     /* Send zeros*/
1552:.\Generated_Source\PSoC5/UART_2.c ****                     UART_2_TXDATA_REG = 0u;
 1270              		.loc 1 1552 0
 1271 0048 46F24443 		movw	r3, #25668
 1272 004c C4F20003 		movt	r3, 16384
 1273 0050 4FF00002 		mov	r2, #0
 1274 0054 1A70     		strb	r2, [r3, #0]
 1275              	.L53:
1553:.\Generated_Source\PSoC5/UART_2.c **** 
1554:.\Generated_Source\PSoC5/UART_2.c ****                     do /* wait until transmit starts */
1555:.\Generated_Source\PSoC5/UART_2.c ****                     {
1556:.\Generated_Source\PSoC5/UART_2.c ****                         tmpStat = UART_2_TXSTATUS_REG;
 1276              		.loc 1 1556 0 discriminator 1
 1277 0056 46F26443 		movw	r3, #25700
 1278 005a C4F20003 		movt	r3, 16384
 1279 005e 1B78     		ldrb	r3, [r3, #0]
 1280 0060 FB73     		strb	r3, [r7, #15]
1557:.\Generated_Source\PSoC5/UART_2.c ****                     }while((tmpStat & UART_2_TX_STS_FIFO_EMPTY) != 0u);
 1281              		.loc 1 1557 0 discriminator 1
 1282 0062 FB7B     		ldrb	r3, [r7, #15]	@ zero_extendqisi2
 1283 0064 03F00203 		and	r3, r3, #2
 1284 0068 002B     		cmp	r3, #0
 1285 006a F4D1     		bne	.L53
 1286              	.L52:
1558:.\Generated_Source\PSoC5/UART_2.c ****                 }
1559:.\Generated_Source\PSoC5/UART_2.c **** 
1560:.\Generated_Source\PSoC5/UART_2.c ****                 if( (retMode == UART_2_WAIT_FOR_COMPLETE_REINIT) ||
 1287              		.loc 1 1560 0
 1288 006c FB79     		ldrb	r3, [r7, #7]	@ zero_extendqisi2
ARM GAS  C:\Users\Owner\AppData\Local\Temp\ccR6XCwT.s 			page 51


 1289 006e 012B     		cmp	r3, #1
 1290 0070 02D0     		beq	.L54
 1291              		.loc 1 1560 0 is_stmt 0 discriminator 1
 1292 0072 FB79     		ldrb	r3, [r7, #7]	@ zero_extendqisi2
 1293 0074 032B     		cmp	r3, #3
 1294 0076 0DD1     		bne	.L55
 1295              	.L54:
1561:.\Generated_Source\PSoC5/UART_2.c ****                     (retMode == UART_2_SEND_WAIT_REINIT) )
1562:.\Generated_Source\PSoC5/UART_2.c ****                 {
1563:.\Generated_Source\PSoC5/UART_2.c ****                     do /*wait until transmit complete*/
1564:.\Generated_Source\PSoC5/UART_2.c ****                     {
1565:.\Generated_Source\PSoC5/UART_2.c ****                         tmpStat = UART_2_TXSTATUS_REG;
 1296              		.loc 1 1565 0 is_stmt 1 discriminator 1
 1297 0078 46F26443 		movw	r3, #25700
 1298 007c C4F20003 		movt	r3, 16384
 1299 0080 1B78     		ldrb	r3, [r3, #0]
 1300 0082 FB73     		strb	r3, [r7, #15]
1566:.\Generated_Source\PSoC5/UART_2.c ****                     }while(((uint8)~tmpStat & UART_2_TX_STS_COMPLETE) != 0u);
 1301              		.loc 1 1566 0 discriminator 1
 1302 0084 FB7B     		ldrb	r3, [r7, #15]
 1303 0086 6FEA0303 		mvn	r3, r3
 1304 008a DBB2     		uxtb	r3, r3
 1305 008c 03F00103 		and	r3, r3, #1
 1306 0090 002B     		cmp	r3, #0
 1307 0092 F1D1     		bne	.L54
 1308              	.L55:
1567:.\Generated_Source\PSoC5/UART_2.c ****                 }
1568:.\Generated_Source\PSoC5/UART_2.c **** 
1569:.\Generated_Source\PSoC5/UART_2.c ****                 if( (retMode == UART_2_WAIT_FOR_COMPLETE_REINIT) ||
 1309              		.loc 1 1569 0
 1310 0094 FB79     		ldrb	r3, [r7, #7]	@ zero_extendqisi2
 1311 0096 012B     		cmp	r3, #1
 1312 0098 05D0     		beq	.L56
 1313              		.loc 1 1569 0 is_stmt 0 discriminator 1
 1314 009a FB79     		ldrb	r3, [r7, #7]	@ zero_extendqisi2
 1315 009c 022B     		cmp	r3, #2
 1316 009e 02D0     		beq	.L56
1570:.\Generated_Source\PSoC5/UART_2.c ****                     (retMode == UART_2_REINIT) ||
 1317              		.loc 1 1570 0 is_stmt 1
 1318 00a0 FB79     		ldrb	r3, [r7, #7]	@ zero_extendqisi2
 1319 00a2 032B     		cmp	r3, #3
 1320 00a4 09D1     		bne	.L49
 1321              	.L56:
1571:.\Generated_Source\PSoC5/UART_2.c ****                     (retMode == UART_2_SEND_WAIT_REINIT) )
1572:.\Generated_Source\PSoC5/UART_2.c ****                 {
1573:.\Generated_Source\PSoC5/UART_2.c **** 
1574:.\Generated_Source\PSoC5/UART_2.c ****                     #if(UART_2_TXCLKGEN_DP)
1575:.\Generated_Source\PSoC5/UART_2.c ****                         UART_2_TXBITCLKTX_COMPLETE_REG = tx_period;
 1322              		.loc 1 1575 0
 1323 00a6 46F23743 		movw	r3, #25655
 1324 00aa C4F20003 		movt	r3, 16384
 1325 00ae 40F20002 		movw	r2, #:lower16:tx_period.4918
 1326 00b2 C0F20002 		movt	r2, #:upper16:tx_period.4918
 1327 00b6 1278     		ldrb	r2, [r2, #0]	@ zero_extendqisi2
 1328 00b8 1A70     		strb	r2, [r3, #0]
 1329              	.L49:
 1330              	.LBE2:
ARM GAS  C:\Users\Owner\AppData\Local\Temp\ccR6XCwT.s 			page 52


1576:.\Generated_Source\PSoC5/UART_2.c ****                     #else
1577:.\Generated_Source\PSoC5/UART_2.c ****                         UART_2_TXBITCTR_PERIOD_REG = tx_period;
1578:.\Generated_Source\PSoC5/UART_2.c ****                     #endif /* End UART_2_TXCLKGEN_DP */
1579:.\Generated_Source\PSoC5/UART_2.c **** 
1580:.\Generated_Source\PSoC5/UART_2.c ****                     #if( (UART_2_PARITY_TYPE != UART_2__B_UART__NONE_REVB) || \
1581:.\Generated_Source\PSoC5/UART_2.c ****                          (UART_2_PARITY_TYPE_SW != 0u) )
1582:.\Generated_Source\PSoC5/UART_2.c ****                         UART_2_WriteControlRegister(UART_2_ReadControlRegister() &
1583:.\Generated_Source\PSoC5/UART_2.c ****                                                       (uint8)~UART_2_CTRL_HD_SEND_BREAK);
1584:.\Generated_Source\PSoC5/UART_2.c ****                     #endif /* End UART_2_PARITY_TYPE != NONE */
1585:.\Generated_Source\PSoC5/UART_2.c ****                 }
1586:.\Generated_Source\PSoC5/UART_2.c ****             #endif    /* End UART_2_HD_ENABLED */
1587:.\Generated_Source\PSoC5/UART_2.c ****         }
1588:.\Generated_Source\PSoC5/UART_2.c ****     }
 1331              		.loc 1 1588 0
 1332 00ba 07F11407 		add	r7, r7, #20
 1333 00be BD46     		mov	sp, r7
 1334 00c0 80BC     		pop	{r7}
 1335 00c2 7047     		bx	lr
 1336              		.cfi_endproc
 1337              	.LFE25:
 1338              		.size	UART_2_SendBreak, .-UART_2_SendBreak
 1339              		.section	.text.UART_2_SetTxAddressMode,"ax",%progbits
 1340              		.align	2
 1341              		.global	UART_2_SetTxAddressMode
 1342              		.thumb
 1343              		.thumb_func
 1344              		.type	UART_2_SetTxAddressMode, %function
 1345              	UART_2_SetTxAddressMode:
 1346              	.LFB26:
1589:.\Generated_Source\PSoC5/UART_2.c **** 
1590:.\Generated_Source\PSoC5/UART_2.c **** 
1591:.\Generated_Source\PSoC5/UART_2.c ****     /*******************************************************************************
1592:.\Generated_Source\PSoC5/UART_2.c ****     * Function Name: UART_2_SetTxAddressMode
1593:.\Generated_Source\PSoC5/UART_2.c ****     ********************************************************************************
1594:.\Generated_Source\PSoC5/UART_2.c ****     *
1595:.\Generated_Source\PSoC5/UART_2.c ****     * Summary:
1596:.\Generated_Source\PSoC5/UART_2.c ****     *  Set the transmit addressing mode
1597:.\Generated_Source\PSoC5/UART_2.c ****     *
1598:.\Generated_Source\PSoC5/UART_2.c ****     * Parameters:
1599:.\Generated_Source\PSoC5/UART_2.c ****     *  addressMode: 0 -> Space
1600:.\Generated_Source\PSoC5/UART_2.c ****     *               1 -> Mark
1601:.\Generated_Source\PSoC5/UART_2.c ****     *
1602:.\Generated_Source\PSoC5/UART_2.c ****     * Return:
1603:.\Generated_Source\PSoC5/UART_2.c ****     *  None.
1604:.\Generated_Source\PSoC5/UART_2.c ****     *
1605:.\Generated_Source\PSoC5/UART_2.c ****     *******************************************************************************/
1606:.\Generated_Source\PSoC5/UART_2.c ****     void UART_2_SetTxAddressMode(uint8 addressMode) 
1607:.\Generated_Source\PSoC5/UART_2.c ****     {
 1347              		.loc 1 1607 0
 1348              		.cfi_startproc
 1349              		@ args = 0, pretend = 0, frame = 8
 1350              		@ frame_needed = 1, uses_anonymous_args = 0
 1351              		@ link register save eliminated.
 1352 0000 80B4     		push	{r7}
 1353              	.LCFI73:
 1354              		.cfi_def_cfa_offset 4
 1355              		.cfi_offset 7, -4
ARM GAS  C:\Users\Owner\AppData\Local\Temp\ccR6XCwT.s 			page 53


 1356 0002 83B0     		sub	sp, sp, #12
 1357              	.LCFI74:
 1358              		.cfi_def_cfa_offset 16
 1359 0004 00AF     		add	r7, sp, #0
 1360              	.LCFI75:
 1361              		.cfi_def_cfa_register 7
 1362 0006 0346     		mov	r3, r0
 1363 0008 FB71     		strb	r3, [r7, #7]
1608:.\Generated_Source\PSoC5/UART_2.c ****         /* Mark/Space sending enable*/
1609:.\Generated_Source\PSoC5/UART_2.c ****         if(addressMode != 0u)
1610:.\Generated_Source\PSoC5/UART_2.c ****         {
1611:.\Generated_Source\PSoC5/UART_2.c ****             #if( UART_2_CONTROL_REG_REMOVED == 0u )
1612:.\Generated_Source\PSoC5/UART_2.c ****                 UART_2_WriteControlRegister(UART_2_ReadControlRegister() |
1613:.\Generated_Source\PSoC5/UART_2.c ****                                                       UART_2_CTRL_MARK);
1614:.\Generated_Source\PSoC5/UART_2.c ****             #endif /* End UART_2_CONTROL_REG_REMOVED == 0u */
1615:.\Generated_Source\PSoC5/UART_2.c ****         }
1616:.\Generated_Source\PSoC5/UART_2.c ****         else
1617:.\Generated_Source\PSoC5/UART_2.c ****         {
1618:.\Generated_Source\PSoC5/UART_2.c ****             #if( UART_2_CONTROL_REG_REMOVED == 0u )
1619:.\Generated_Source\PSoC5/UART_2.c ****                 UART_2_WriteControlRegister(UART_2_ReadControlRegister() &
1620:.\Generated_Source\PSoC5/UART_2.c ****                                                     (uint8)~UART_2_CTRL_MARK);
1621:.\Generated_Source\PSoC5/UART_2.c ****             #endif /* End UART_2_CONTROL_REG_REMOVED == 0u */
1622:.\Generated_Source\PSoC5/UART_2.c ****         }
1623:.\Generated_Source\PSoC5/UART_2.c ****     }
 1364              		.loc 1 1623 0
 1365 000a 07F10C07 		add	r7, r7, #12
 1366 000e BD46     		mov	sp, r7
 1367 0010 80BC     		pop	{r7}
 1368 0012 7047     		bx	lr
 1369              		.cfi_endproc
 1370              	.LFE26:
 1371              		.size	UART_2_SetTxAddressMode, .-UART_2_SetTxAddressMode
 1372              		.bss
 1373              	tx_period.4918:
 1374 0001 00       		.space	1
 1375              		.text
 1376              	.Letext0:
 1377              		.file 2 ".\\Generated_Source\\PSoC5\\cytypes.h"
 1378              		.section	.debug_info,"",%progbits
 1379              	.Ldebug_info0:
 1380 0000 87050000 		.4byte	0x587
 1381 0004 0200     		.2byte	0x2
 1382 0006 00000000 		.4byte	.Ldebug_abbrev0
 1383 000a 04       		.byte	0x4
 1384 000b 01       		.uleb128 0x1
 1385 000c 8D020000 		.4byte	.LASF60
 1386 0010 01       		.byte	0x1
 1387 0011 54000000 		.4byte	.LASF61
 1388 0015 20010000 		.4byte	.LASF62
 1389 0019 00000000 		.4byte	.Ldebug_ranges0+0
 1390 001d 00000000 		.4byte	0
 1391 0021 00000000 		.4byte	0
 1392 0025 00000000 		.4byte	.Ldebug_line0
 1393 0029 02       		.uleb128 0x2
 1394 002a 01       		.byte	0x1
 1395 002b 06       		.byte	0x6
 1396 002c CF000000 		.4byte	.LASF0
ARM GAS  C:\Users\Owner\AppData\Local\Temp\ccR6XCwT.s 			page 54


 1397 0030 02       		.uleb128 0x2
 1398 0031 01       		.byte	0x1
 1399 0032 08       		.byte	0x8
 1400 0033 DB020000 		.4byte	.LASF1
 1401 0037 02       		.uleb128 0x2
 1402 0038 02       		.byte	0x2
 1403 0039 05       		.byte	0x5
 1404 003a E9020000 		.4byte	.LASF2
 1405 003e 02       		.uleb128 0x2
 1406 003f 02       		.byte	0x2
 1407 0040 07       		.byte	0x7
 1408 0041 CB010000 		.4byte	.LASF3
 1409 0045 02       		.uleb128 0x2
 1410 0046 04       		.byte	0x4
 1411 0047 05       		.byte	0x5
 1412 0048 FE000000 		.4byte	.LASF4
 1413 004c 02       		.uleb128 0x2
 1414 004d 04       		.byte	0x4
 1415 004e 07       		.byte	0x7
 1416 004f 9D010000 		.4byte	.LASF5
 1417 0053 02       		.uleb128 0x2
 1418 0054 08       		.byte	0x8
 1419 0055 05       		.byte	0x5
 1420 0056 C1000000 		.4byte	.LASF6
 1421 005a 02       		.uleb128 0x2
 1422 005b 08       		.byte	0x8
 1423 005c 07       		.byte	0x7
 1424 005d 76000000 		.4byte	.LASF7
 1425 0061 03       		.uleb128 0x3
 1426 0062 04       		.byte	0x4
 1427 0063 05       		.byte	0x5
 1428 0064 696E7400 		.ascii	"int\000"
 1429 0068 02       		.uleb128 0x2
 1430 0069 04       		.byte	0x4
 1431 006a 07       		.byte	0x7
 1432 006b 90010000 		.4byte	.LASF8
 1433 006f 04       		.uleb128 0x4
 1434 0070 07010000 		.4byte	.LASF9
 1435 0074 02       		.byte	0x2
 1436 0075 5B       		.byte	0x5b
 1437 0076 30000000 		.4byte	0x30
 1438 007a 04       		.uleb128 0x4
 1439 007b 2A000000 		.4byte	.LASF10
 1440 007f 02       		.byte	0x2
 1441 0080 5C       		.byte	0x5c
 1442 0081 3E000000 		.4byte	0x3e
 1443 0085 02       		.uleb128 0x2
 1444 0086 04       		.byte	0x4
 1445 0087 04       		.byte	0x4
 1446 0088 5E020000 		.4byte	.LASF11
 1447 008c 02       		.uleb128 0x2
 1448 008d 08       		.byte	0x8
 1449 008e 04       		.byte	0x4
 1450 008f 0D010000 		.4byte	.LASF12
 1451 0093 04       		.uleb128 0x4
 1452 0094 51030000 		.4byte	.LASF13
 1453 0098 02       		.byte	0x2
ARM GAS  C:\Users\Owner\AppData\Local\Temp\ccR6XCwT.s 			page 55


 1454 0099 6C       		.byte	0x6c
 1455 009a 9E000000 		.4byte	0x9e
 1456 009e 02       		.uleb128 0x2
 1457 009f 01       		.byte	0x1
 1458 00a0 08       		.byte	0x8
 1459 00a1 34030000 		.4byte	.LASF14
 1460 00a5 04       		.uleb128 0x4
 1461 00a6 D6020000 		.4byte	.LASF15
 1462 00aa 02       		.byte	0x2
 1463 00ab F0       		.byte	0xf0
 1464 00ac B0000000 		.4byte	0xb0
 1465 00b0 05       		.uleb128 0x5
 1466 00b1 6F000000 		.4byte	0x6f
 1467 00b5 02       		.uleb128 0x2
 1468 00b6 04       		.byte	0x4
 1469 00b7 07       		.byte	0x7
 1470 00b8 20020000 		.4byte	.LASF16
 1471 00bc 06       		.uleb128 0x6
 1472 00bd 01       		.byte	0x1
 1473 00be 27030000 		.4byte	.LASF17
 1474 00c2 01       		.byte	0x1
 1475 00c3 49       		.byte	0x49
 1476 00c4 01       		.byte	0x1
 1477 00c5 00000000 		.4byte	.LFB0
 1478 00c9 2A000000 		.4byte	.LFE0
 1479 00cd 00000000 		.4byte	.LLST0
 1480 00d1 01       		.byte	0x1
 1481 00d2 07       		.uleb128 0x7
 1482 00d3 01       		.byte	0x1
 1483 00d4 FF030000 		.4byte	.LASF18
 1484 00d8 01       		.byte	0x1
 1485 00d9 65       		.byte	0x65
 1486 00da 01       		.byte	0x1
 1487 00db 00000000 		.4byte	.LFB1
 1488 00df 50000000 		.4byte	.LFE1
 1489 00e3 2C000000 		.4byte	.LLST1
 1490 00e7 01       		.byte	0x1
 1491 00e8 08       		.uleb128 0x8
 1492 00e9 01       		.byte	0x1
 1493 00ea 9C000000 		.4byte	.LASF19
 1494 00ee 01       		.byte	0x1
 1495 00ef AE       		.byte	0xae
 1496 00f0 01       		.byte	0x1
 1497 00f1 00000000 		.4byte	.LFB2
 1498 00f5 76000000 		.4byte	.LFE2
 1499 00f9 58000000 		.4byte	.LLST2
 1500 00fd 01       		.byte	0x1
 1501 00fe 11010000 		.4byte	0x111
 1502 0102 09       		.uleb128 0x9
 1503 0103 A7030000 		.4byte	.LASF21
 1504 0107 01       		.byte	0x1
 1505 0108 B0       		.byte	0xb0
 1506 0109 6F000000 		.4byte	0x6f
 1507 010d 02       		.byte	0x2
 1508 010e 91       		.byte	0x91
 1509 010f 77       		.sleb128 -9
 1510 0110 00       		.byte	0
ARM GAS  C:\Users\Owner\AppData\Local\Temp\ccR6XCwT.s 			page 56


 1511 0111 08       		.uleb128 0x8
 1512 0112 01       		.byte	0x1
 1513 0113 3A020000 		.4byte	.LASF20
 1514 0117 01       		.byte	0x1
 1515 0118 E3       		.byte	0xe3
 1516 0119 01       		.byte	0x1
 1517 011a 00000000 		.4byte	.LFB3
 1518 011e 76000000 		.4byte	.LFE3
 1519 0122 90000000 		.4byte	.LLST3
 1520 0126 01       		.byte	0x1
 1521 0127 3A010000 		.4byte	0x13a
 1522 012b 09       		.uleb128 0x9
 1523 012c A7030000 		.4byte	.LASF21
 1524 0130 01       		.byte	0x1
 1525 0131 E5       		.byte	0xe5
 1526 0132 6F000000 		.4byte	0x6f
 1527 0136 02       		.byte	0x2
 1528 0137 91       		.byte	0x91
 1529 0138 77       		.sleb128 -9
 1530 0139 00       		.byte	0
 1531 013a 0A       		.uleb128 0xa
 1532 013b 01       		.byte	0x1
 1533 013c 8C030000 		.4byte	.LASF32
 1534 0140 01       		.byte	0x1
 1535 0141 1901     		.2byte	0x119
 1536 0143 01       		.byte	0x1
 1537 0144 6F000000 		.4byte	0x6f
 1538 0148 00000000 		.4byte	.LFB4
 1539 014c 10000000 		.4byte	.LFE4
 1540 0150 C8000000 		.4byte	.LLST4
 1541 0154 01       		.byte	0x1
 1542 0155 0B       		.uleb128 0xb
 1543 0156 01       		.byte	0x1
 1544 0157 B8030000 		.4byte	.LASF22
 1545 015b 01       		.byte	0x1
 1546 015c 3101     		.2byte	0x131
 1547 015e 01       		.byte	0x1
 1548 015f 00000000 		.4byte	.LFB5
 1549 0163 14000000 		.4byte	.LFE5
 1550 0167 F4000000 		.4byte	.LLST5
 1551 016b 01       		.byte	0x1
 1552 016c 80010000 		.4byte	0x180
 1553 0170 0C       		.uleb128 0xc
 1554 0171 5F010000 		.4byte	.LASF24
 1555 0175 01       		.byte	0x1
 1556 0176 3101     		.2byte	0x131
 1557 0178 6F000000 		.4byte	0x6f
 1558 017c 02       		.byte	0x2
 1559 017d 91       		.byte	0x91
 1560 017e 77       		.sleb128 -9
 1561 017f 00       		.byte	0
 1562 0180 0B       		.uleb128 0xb
 1563 0181 01       		.byte	0x1
 1564 0182 73020000 		.4byte	.LASF23
 1565 0186 01       		.byte	0x1
 1566 0187 8101     		.2byte	0x181
 1567 0189 01       		.byte	0x1
ARM GAS  C:\Users\Owner\AppData\Local\Temp\ccR6XCwT.s 			page 57


 1568 018a 00000000 		.4byte	.LFB6
 1569 018e 20000000 		.4byte	.LFE6
 1570 0192 2C010000 		.4byte	.LLST6
 1571 0196 01       		.byte	0x1
 1572 0197 AB010000 		.4byte	0x1ab
 1573 019b 0C       		.uleb128 0xc
 1574 019c FD010000 		.4byte	.LASF25
 1575 01a0 01       		.byte	0x1
 1576 01a1 8101     		.2byte	0x181
 1577 01a3 6F000000 		.4byte	0x6f
 1578 01a7 02       		.byte	0x2
 1579 01a8 91       		.byte	0x91
 1580 01a9 77       		.sleb128 -9
 1581 01aa 00       		.byte	0
 1582 01ab 0D       		.uleb128 0xd
 1583 01ac 01       		.byte	0x1
 1584 01ad 67010000 		.4byte	.LASF27
 1585 01b1 01       		.byte	0x1
 1586 01b2 A201     		.2byte	0x1a2
 1587 01b4 01       		.byte	0x1
 1588 01b5 6F000000 		.4byte	0x6f
 1589 01b9 00000000 		.4byte	.LFB7
 1590 01bd 20000000 		.4byte	.LFE7
 1591 01c1 64010000 		.4byte	.LLST7
 1592 01c5 01       		.byte	0x1
 1593 01c6 DA010000 		.4byte	0x1da
 1594 01ca 0E       		.uleb128 0xe
 1595 01cb 20030000 		.4byte	.LASF26
 1596 01cf 01       		.byte	0x1
 1597 01d0 A401     		.2byte	0x1a4
 1598 01d2 6F000000 		.4byte	0x6f
 1599 01d6 02       		.byte	0x2
 1600 01d7 91       		.byte	0x91
 1601 01d8 77       		.sleb128 -9
 1602 01d9 00       		.byte	0
 1603 01da 0D       		.uleb128 0xd
 1604 01db 01       		.byte	0x1
 1605 01dc 04020000 		.4byte	.LASF28
 1606 01e0 01       		.byte	0x1
 1607 01e1 FD01     		.2byte	0x1fd
 1608 01e3 01       		.byte	0x1
 1609 01e4 6F000000 		.4byte	0x6f
 1610 01e8 00000000 		.4byte	.LFB8
 1611 01ec 26000000 		.4byte	.LFE8
 1612 01f0 9C010000 		.4byte	.LLST8
 1613 01f4 01       		.byte	0x1
 1614 01f5 09020000 		.4byte	0x209
 1615 01f9 0E       		.uleb128 0xe
 1616 01fa D4030000 		.4byte	.LASF29
 1617 01fe 01       		.byte	0x1
 1618 01ff FF01     		.2byte	0x1ff
 1619 0201 6F000000 		.4byte	0x6f
 1620 0205 02       		.byte	0x2
 1621 0206 91       		.byte	0x91
 1622 0207 77       		.sleb128 -9
 1623 0208 00       		.byte	0
 1624 0209 0D       		.uleb128 0xd
ARM GAS  C:\Users\Owner\AppData\Local\Temp\ccR6XCwT.s 			page 58


 1625 020a 01       		.byte	0x1
 1626 020b 8D000000 		.4byte	.LASF30
 1627 020f 01       		.byte	0x1
 1628 0210 2C02     		.2byte	0x22c
 1629 0212 01       		.byte	0x1
 1630 0213 6F000000 		.4byte	0x6f
 1631 0217 00000000 		.4byte	.LFB9
 1632 021b 4C000000 		.4byte	.LFE9
 1633 021f D4010000 		.4byte	.LLST9
 1634 0223 01       		.byte	0x1
 1635 0224 47020000 		.4byte	0x247
 1636 0228 0E       		.uleb128 0xe
 1637 0229 20030000 		.4byte	.LASF26
 1638 022d 01       		.byte	0x1
 1639 022e 2E02     		.2byte	0x22e
 1640 0230 6F000000 		.4byte	0x6f
 1641 0234 02       		.byte	0x2
 1642 0235 91       		.byte	0x91
 1643 0236 77       		.sleb128 -9
 1644 0237 0E       		.uleb128 0xe
 1645 0238 31020000 		.4byte	.LASF31
 1646 023c 01       		.byte	0x1
 1647 023d 2F02     		.2byte	0x22f
 1648 023f 6F000000 		.4byte	0x6f
 1649 0243 02       		.byte	0x2
 1650 0244 91       		.byte	0x91
 1651 0245 76       		.sleb128 -10
 1652 0246 00       		.byte	0
 1653 0247 0F       		.uleb128 0xf
 1654 0248 01       		.byte	0x1
 1655 0249 64020000 		.4byte	.LASF33
 1656 024d 01       		.byte	0x1
 1657 024e 9202     		.2byte	0x292
 1658 0250 01       		.byte	0x1
 1659 0251 7A000000 		.4byte	0x7a
 1660 0255 00000000 		.4byte	.LFB10
 1661 0259 22000000 		.4byte	.LFE10
 1662 025d 0C020000 		.4byte	.LLST10
 1663 0261 01       		.byte	0x1
 1664 0262 0D       		.uleb128 0xd
 1665 0263 01       		.byte	0x1
 1666 0264 AF010000 		.4byte	.LASF34
 1667 0268 01       		.byte	0x1
 1668 0269 B302     		.2byte	0x2b3
 1669 026b 01       		.byte	0x1
 1670 026c 6F000000 		.4byte	0x6f
 1671 0270 00000000 		.4byte	.LFB11
 1672 0274 34000000 		.4byte	.LFE11
 1673 0278 38020000 		.4byte	.LLST11
 1674 027c 01       		.byte	0x1
 1675 027d 91020000 		.4byte	0x291
 1676 0281 0E       		.uleb128 0xe
 1677 0282 C6010000 		.4byte	.LASF35
 1678 0286 01       		.byte	0x1
 1679 0287 B602     		.2byte	0x2b6
 1680 0289 6F000000 		.4byte	0x6f
 1681 028d 02       		.byte	0x2
ARM GAS  C:\Users\Owner\AppData\Local\Temp\ccR6XCwT.s 			page 59


 1682 028e 91       		.byte	0x91
 1683 028f 77       		.sleb128 -9
 1684 0290 00       		.byte	0
 1685 0291 10       		.uleb128 0x10
 1686 0292 01       		.byte	0x1
 1687 0293 DE010000 		.4byte	.LASF36
 1688 0297 01       		.byte	0x1
 1689 0298 0303     		.2byte	0x303
 1690 029a 01       		.byte	0x1
 1691 029b 00000000 		.4byte	.LFB12
 1692 029f 56000000 		.4byte	.LFE12
 1693 02a3 70020000 		.4byte	.LLST12
 1694 02a7 01       		.byte	0x1
 1695 02a8 BC020000 		.4byte	0x2bc
 1696 02ac 0E       		.uleb128 0xe
 1697 02ad A7030000 		.4byte	.LASF21
 1698 02b1 01       		.byte	0x1
 1699 02b2 0503     		.2byte	0x305
 1700 02b4 6F000000 		.4byte	0x6f
 1701 02b8 02       		.byte	0x2
 1702 02b9 91       		.byte	0x91
 1703 02ba 77       		.sleb128 -9
 1704 02bb 00       		.byte	0
 1705 02bc 0B       		.uleb128 0xb
 1706 02bd 01       		.byte	0x1
 1707 02be 39030000 		.4byte	.LASF37
 1708 02c2 01       		.byte	0x1
 1709 02c3 4003     		.2byte	0x340
 1710 02c5 01       		.byte	0x1
 1711 02c6 00000000 		.4byte	.LFB13
 1712 02ca 14000000 		.4byte	.LFE13
 1713 02ce A8020000 		.4byte	.LLST13
 1714 02d2 01       		.byte	0x1
 1715 02d3 E7020000 		.4byte	0x2e7
 1716 02d7 0C       		.uleb128 0xc
 1717 02d8 14010000 		.4byte	.LASF38
 1718 02dc 01       		.byte	0x1
 1719 02dd 4003     		.2byte	0x340
 1720 02df 6F000000 		.4byte	0x6f
 1721 02e3 02       		.byte	0x2
 1722 02e4 91       		.byte	0x91
 1723 02e5 77       		.sleb128 -9
 1724 02e6 00       		.byte	0
 1725 02e7 0B       		.uleb128 0xb
 1726 02e8 01       		.byte	0x1
 1727 02e9 00000000 		.4byte	.LASF39
 1728 02ed 01       		.byte	0x1
 1729 02ee 6503     		.2byte	0x365
 1730 02f0 01       		.byte	0x1
 1731 02f1 00000000 		.4byte	.LFB14
 1732 02f5 20000000 		.4byte	.LFE14
 1733 02f9 E0020000 		.4byte	.LLST14
 1734 02fd 01       		.byte	0x1
 1735 02fe 12030000 		.4byte	0x312
 1736 0302 0C       		.uleb128 0xc
 1737 0303 29020000 		.4byte	.LASF40
 1738 0307 01       		.byte	0x1
ARM GAS  C:\Users\Owner\AppData\Local\Temp\ccR6XCwT.s 			page 60


 1739 0308 6503     		.2byte	0x365
 1740 030a 6F000000 		.4byte	0x6f
 1741 030e 02       		.byte	0x2
 1742 030f 91       		.byte	0x91
 1743 0310 77       		.sleb128 -9
 1744 0311 00       		.byte	0
 1745 0312 0B       		.uleb128 0xb
 1746 0313 01       		.byte	0x1
 1747 0314 15000000 		.4byte	.LASF41
 1748 0318 01       		.byte	0x1
 1749 0319 7A03     		.2byte	0x37a
 1750 031b 01       		.byte	0x1
 1751 031c 00000000 		.4byte	.LFB15
 1752 0320 20000000 		.4byte	.LFE15
 1753 0324 18030000 		.4byte	.LLST15
 1754 0328 01       		.byte	0x1
 1755 0329 3D030000 		.4byte	0x33d
 1756 032d 0C       		.uleb128 0xc
 1757 032e 29020000 		.4byte	.LASF40
 1758 0332 01       		.byte	0x1
 1759 0333 7A03     		.2byte	0x37a
 1760 0335 6F000000 		.4byte	0x6f
 1761 0339 02       		.byte	0x2
 1762 033a 91       		.byte	0x91
 1763 033b 77       		.sleb128 -9
 1764 033c 00       		.byte	0
 1765 033d 0B       		.uleb128 0xb
 1766 033e 01       		.byte	0x1
 1767 033f DB030000 		.4byte	.LASF42
 1768 0343 01       		.byte	0x1
 1769 0344 C803     		.2byte	0x3c8
 1770 0346 01       		.byte	0x1
 1771 0347 00000000 		.4byte	.LFB16
 1772 034b 20000000 		.4byte	.LFE16
 1773 034f 50030000 		.4byte	.LLST16
 1774 0353 01       		.byte	0x1
 1775 0354 68030000 		.4byte	0x368
 1776 0358 0C       		.uleb128 0xc
 1777 0359 FD010000 		.4byte	.LASF25
 1778 035d 01       		.byte	0x1
 1779 035e C803     		.2byte	0x3c8
 1780 0360 6F000000 		.4byte	0x6f
 1781 0364 02       		.byte	0x2
 1782 0365 91       		.byte	0x91
 1783 0366 77       		.sleb128 -9
 1784 0367 00       		.byte	0
 1785 0368 0B       		.uleb128 0xb
 1786 0369 01       		.byte	0x1
 1787 036a 0D030000 		.4byte	.LASF43
 1788 036e 01       		.byte	0x1
 1789 036f EA03     		.2byte	0x3ea
 1790 0371 01       		.byte	0x1
 1791 0372 00000000 		.4byte	.LFB17
 1792 0376 2E000000 		.4byte	.LFE17
 1793 037a 88030000 		.4byte	.LLST17
 1794 037e 01       		.byte	0x1
 1795 037f 93030000 		.4byte	0x393
ARM GAS  C:\Users\Owner\AppData\Local\Temp\ccR6XCwT.s 			page 61


 1796 0383 0C       		.uleb128 0xc
 1797 0384 31000000 		.4byte	.LASF44
 1798 0388 01       		.byte	0x1
 1799 0389 EA03     		.2byte	0x3ea
 1800 038b 6F000000 		.4byte	0x6f
 1801 038f 02       		.byte	0x2
 1802 0390 91       		.byte	0x91
 1803 0391 77       		.sleb128 -9
 1804 0392 00       		.byte	0
 1805 0393 0A       		.uleb128 0xa
 1806 0394 01       		.byte	0x1
 1807 0395 DB000000 		.4byte	.LASF45
 1808 0399 01       		.byte	0x1
 1809 039a 2E04     		.2byte	0x42e
 1810 039c 01       		.byte	0x1
 1811 039d 6F000000 		.4byte	0x6f
 1812 03a1 00000000 		.4byte	.LFB18
 1813 03a5 18000000 		.4byte	.LFE18
 1814 03a9 C0030000 		.4byte	.LLST18
 1815 03ad 01       		.byte	0x1
 1816 03ae 0B       		.uleb128 0xb
 1817 03af 01       		.byte	0x1
 1818 03b0 EF000000 		.4byte	.LASF46
 1819 03b4 01       		.byte	0x1
 1820 03b5 5204     		.2byte	0x452
 1821 03b7 01       		.byte	0x1
 1822 03b8 00000000 		.4byte	.LFB19
 1823 03bc 36000000 		.4byte	.LFE19
 1824 03c0 EC030000 		.4byte	.LLST19
 1825 03c4 01       		.byte	0x1
 1826 03c5 D9030000 		.4byte	0x3d9
 1827 03c9 0C       		.uleb128 0xc
 1828 03ca 31000000 		.4byte	.LASF44
 1829 03ce 01       		.byte	0x1
 1830 03cf 5204     		.2byte	0x452
 1831 03d1 6F000000 		.4byte	0x6f
 1832 03d5 02       		.byte	0x2
 1833 03d6 91       		.byte	0x91
 1834 03d7 77       		.sleb128 -9
 1835 03d8 00       		.byte	0
 1836 03d9 10       		.uleb128 0x10
 1837 03da 01       		.byte	0x1
 1838 03db 3C000000 		.4byte	.LASF47
 1839 03df 01       		.byte	0x1
 1840 03e0 AE04     		.2byte	0x4ae
 1841 03e2 01       		.byte	0x1
 1842 03e3 00000000 		.4byte	.LFB20
 1843 03e7 48000000 		.4byte	.LFE20
 1844 03eb 24040000 		.4byte	.LLST20
 1845 03ef 01       		.byte	0x1
 1846 03f0 13040000 		.4byte	0x413
 1847 03f4 0C       		.uleb128 0xc
 1848 03f5 4D000000 		.4byte	.LASF48
 1849 03f9 01       		.byte	0x1
 1850 03fa AE04     		.2byte	0x4ae
 1851 03fc 13040000 		.4byte	0x413
 1852 0400 02       		.byte	0x2
ARM GAS  C:\Users\Owner\AppData\Local\Temp\ccR6XCwT.s 			page 62


 1853 0401 91       		.byte	0x91
 1854 0402 6C       		.sleb128 -20
 1855 0403 0E       		.uleb128 0xe
 1856 0404 F5030000 		.4byte	.LASF49
 1857 0408 01       		.byte	0x1
 1858 0409 B004     		.2byte	0x4b0
 1859 040b 7A000000 		.4byte	0x7a
 1860 040f 02       		.byte	0x2
 1861 0410 91       		.byte	0x91
 1862 0411 76       		.sleb128 -10
 1863 0412 00       		.byte	0
 1864 0413 11       		.uleb128 0x11
 1865 0414 04       		.byte	0x4
 1866 0415 19040000 		.4byte	0x419
 1867 0419 12       		.uleb128 0x12
 1868 041a 93000000 		.4byte	0x93
 1869 041e 10       		.uleb128 0x10
 1870 041f 01       		.byte	0x1
 1871 0420 F3020000 		.4byte	.LASF50
 1872 0424 01       		.byte	0x1
 1873 0425 D404     		.2byte	0x4d4
 1874 0427 01       		.byte	0x1
 1875 0428 00000000 		.4byte	.LFB21
 1876 042c 46000000 		.4byte	.LFE21
 1877 0430 5C040000 		.4byte	.LLST21
 1878 0434 01       		.byte	0x1
 1879 0435 67040000 		.4byte	0x467
 1880 0439 0C       		.uleb128 0xc
 1881 043a 4D000000 		.4byte	.LASF48
 1882 043e 01       		.byte	0x1
 1883 043f D404     		.2byte	0x4d4
 1884 0441 67040000 		.4byte	0x467
 1885 0445 02       		.byte	0x2
 1886 0446 91       		.byte	0x91
 1887 0447 6C       		.sleb128 -20
 1888 0448 0C       		.uleb128 0xc
 1889 0449 03030000 		.4byte	.LASF51
 1890 044d 01       		.byte	0x1
 1891 044e D404     		.2byte	0x4d4
 1892 0450 6F000000 		.4byte	0x6f
 1893 0454 02       		.byte	0x2
 1894 0455 91       		.byte	0x91
 1895 0456 6B       		.sleb128 -21
 1896 0457 0E       		.uleb128 0xe
 1897 0458 F5030000 		.4byte	.LASF49
 1898 045c 01       		.byte	0x1
 1899 045d D704     		.2byte	0x4d7
 1900 045f 6F000000 		.4byte	0x6f
 1901 0463 02       		.byte	0x2
 1902 0464 91       		.byte	0x91
 1903 0465 77       		.sleb128 -9
 1904 0466 00       		.byte	0
 1905 0467 11       		.uleb128 0x11
 1906 0468 04       		.byte	0x4
 1907 0469 6D040000 		.4byte	0x46d
 1908 046d 12       		.uleb128 0x12
 1909 046e 6F000000 		.4byte	0x6f
ARM GAS  C:\Users\Owner\AppData\Local\Temp\ccR6XCwT.s 			page 63


 1910 0472 10       		.uleb128 0x10
 1911 0473 01       		.byte	0x1
 1912 0474 79010000 		.4byte	.LASF52
 1913 0478 01       		.byte	0x1
 1914 0479 F904     		.2byte	0x4f9
 1915 047b 01       		.byte	0x1
 1916 047c 00000000 		.4byte	.LFB22
 1917 0480 38000000 		.4byte	.LFE22
 1918 0484 94040000 		.4byte	.LLST22
 1919 0488 01       		.byte	0x1
 1920 0489 9D040000 		.4byte	0x49d
 1921 048d 0C       		.uleb128 0xc
 1922 048e 31000000 		.4byte	.LASF44
 1923 0492 01       		.byte	0x1
 1924 0493 F904     		.2byte	0x4f9
 1925 0495 6F000000 		.4byte	0x6f
 1926 0499 02       		.byte	0x2
 1927 049a 91       		.byte	0x91
 1928 049b 77       		.sleb128 -9
 1929 049c 00       		.byte	0
 1930 049d 0D       		.uleb128 0xd
 1931 049e 01       		.byte	0x1
 1932 049f AA000000 		.4byte	.LASF53
 1933 04a3 01       		.byte	0x1
 1934 04a4 1E05     		.2byte	0x51e
 1935 04a6 01       		.byte	0x1
 1936 04a7 6F000000 		.4byte	0x6f
 1937 04ab 00000000 		.4byte	.LFB23
 1938 04af 4A000000 		.4byte	.LFE23
 1939 04b3 CC040000 		.4byte	.LLST23
 1940 04b7 01       		.byte	0x1
 1941 04b8 CC040000 		.4byte	0x4cc
 1942 04bc 0E       		.uleb128 0xe
 1943 04bd C6010000 		.4byte	.LASF35
 1944 04c1 01       		.byte	0x1
 1945 04c2 2105     		.2byte	0x521
 1946 04c4 6F000000 		.4byte	0x6f
 1947 04c8 02       		.byte	0x2
 1948 04c9 91       		.byte	0x91
 1949 04ca 77       		.sleb128 -9
 1950 04cb 00       		.byte	0
 1951 04cc 10       		.uleb128 0x10
 1952 04cd 01       		.byte	0x1
 1953 04ce 57030000 		.4byte	.LASF54
 1954 04d2 01       		.byte	0x1
 1955 04d3 7405     		.2byte	0x574
 1956 04d5 01       		.byte	0x1
 1957 04d6 00000000 		.4byte	.LFB24
 1958 04da 56000000 		.4byte	.LFE24
 1959 04de 04050000 		.4byte	.LLST24
 1960 04e2 01       		.byte	0x1
 1961 04e3 F7040000 		.4byte	0x4f7
 1962 04e7 0E       		.uleb128 0xe
 1963 04e8 A7030000 		.4byte	.LASF21
 1964 04ec 01       		.byte	0x1
 1965 04ed 7605     		.2byte	0x576
 1966 04ef 6F000000 		.4byte	0x6f
ARM GAS  C:\Users\Owner\AppData\Local\Temp\ccR6XCwT.s 			page 64


 1967 04f3 02       		.byte	0x2
 1968 04f4 91       		.byte	0x91
 1969 04f5 77       		.sleb128 -9
 1970 04f6 00       		.byte	0
 1971 04f7 0B       		.uleb128 0xb
 1972 04f8 01       		.byte	0x1
 1973 04f9 6C030000 		.4byte	.LASF55
 1974 04fd 01       		.byte	0x1
 1975 04fe CD05     		.2byte	0x5cd
 1976 0500 01       		.byte	0x1
 1977 0501 00000000 		.4byte	.LFB25
 1978 0505 C4000000 		.4byte	.LFE25
 1979 0509 3C050000 		.4byte	.LLST25
 1980 050d 01       		.byte	0x1
 1981 050e 4D050000 		.4byte	0x54d
 1982 0512 0C       		.uleb128 0xc
 1983 0513 88010000 		.4byte	.LASF56
 1984 0517 01       		.byte	0x1
 1985 0518 CD05     		.2byte	0x5cd
 1986 051a 6F000000 		.4byte	0x6f
 1987 051e 02       		.byte	0x2
 1988 051f 91       		.byte	0x91
 1989 0520 6F       		.sleb128 -17
 1990 0521 13       		.uleb128 0x13
 1991 0522 18000000 		.4byte	.LBB2
 1992 0526 BA000000 		.4byte	.LBE2
 1993 052a 0E       		.uleb128 0xe
 1994 052b 18020000 		.4byte	.LASF57
 1995 052f 01       		.byte	0x1
 1996 0530 D505     		.2byte	0x5d5
 1997 0532 6F000000 		.4byte	0x6f
 1998 0536 02       		.byte	0x2
 1999 0537 91       		.byte	0x91
 2000 0538 77       		.sleb128 -9
 2001 0539 0E       		.uleb128 0xe
 2002 053a F3010000 		.4byte	.LASF58
 2003 053e 01       		.byte	0x1
 2004 053f FB05     		.2byte	0x5fb
 2005 0541 6F000000 		.4byte	0x6f
 2006 0545 05       		.byte	0x5
 2007 0546 03       		.byte	0x3
 2008 0547 01000000 		.4byte	tx_period.4918
 2009 054b 00       		.byte	0
 2010 054c 00       		.byte	0
 2011 054d 0B       		.uleb128 0xb
 2012 054e 01       		.byte	0x1
 2013 054f 46020000 		.4byte	.LASF59
 2014 0553 01       		.byte	0x1
 2015 0554 4606     		.2byte	0x646
 2016 0556 01       		.byte	0x1
 2017 0557 00000000 		.4byte	.LFB26
 2018 055b 14000000 		.4byte	.LFE26
 2019 055f 74050000 		.4byte	.LLST26
 2020 0563 01       		.byte	0x1
 2021 0564 78050000 		.4byte	0x578
 2022 0568 0C       		.uleb128 0xc
 2023 0569 14010000 		.4byte	.LASF38
ARM GAS  C:\Users\Owner\AppData\Local\Temp\ccR6XCwT.s 			page 65


 2024 056d 01       		.byte	0x1
 2025 056e 4606     		.2byte	0x646
 2026 0570 6F000000 		.4byte	0x6f
 2027 0574 02       		.byte	0x2
 2028 0575 91       		.byte	0x91
 2029 0576 77       		.sleb128 -9
 2030 0577 00       		.byte	0
 2031 0578 14       		.uleb128 0x14
 2032 0579 7D030000 		.4byte	.LASF63
 2033 057d 01       		.byte	0x1
 2034 057e 1C       		.byte	0x1c
 2035 057f 6F000000 		.4byte	0x6f
 2036 0583 01       		.byte	0x1
 2037 0584 05       		.byte	0x5
 2038 0585 03       		.byte	0x3
 2039 0586 00000000 		.4byte	UART_2_initVar
 2040 058a 00       		.byte	0
 2041              		.section	.debug_abbrev,"",%progbits
 2042              	.Ldebug_abbrev0:
 2043 0000 01       		.uleb128 0x1
 2044 0001 11       		.uleb128 0x11
 2045 0002 01       		.byte	0x1
 2046 0003 25       		.uleb128 0x25
 2047 0004 0E       		.uleb128 0xe
 2048 0005 13       		.uleb128 0x13
 2049 0006 0B       		.uleb128 0xb
 2050 0007 03       		.uleb128 0x3
 2051 0008 0E       		.uleb128 0xe
 2052 0009 1B       		.uleb128 0x1b
 2053 000a 0E       		.uleb128 0xe
 2054 000b 55       		.uleb128 0x55
 2055 000c 06       		.uleb128 0x6
 2056 000d 11       		.uleb128 0x11
 2057 000e 01       		.uleb128 0x1
 2058 000f 52       		.uleb128 0x52
 2059 0010 01       		.uleb128 0x1
 2060 0011 10       		.uleb128 0x10
 2061 0012 06       		.uleb128 0x6
 2062 0013 00       		.byte	0
 2063 0014 00       		.byte	0
 2064 0015 02       		.uleb128 0x2
 2065 0016 24       		.uleb128 0x24
 2066 0017 00       		.byte	0
 2067 0018 0B       		.uleb128 0xb
 2068 0019 0B       		.uleb128 0xb
 2069 001a 3E       		.uleb128 0x3e
 2070 001b 0B       		.uleb128 0xb
 2071 001c 03       		.uleb128 0x3
 2072 001d 0E       		.uleb128 0xe
 2073 001e 00       		.byte	0
 2074 001f 00       		.byte	0
 2075 0020 03       		.uleb128 0x3
 2076 0021 24       		.uleb128 0x24
 2077 0022 00       		.byte	0
 2078 0023 0B       		.uleb128 0xb
 2079 0024 0B       		.uleb128 0xb
 2080 0025 3E       		.uleb128 0x3e
ARM GAS  C:\Users\Owner\AppData\Local\Temp\ccR6XCwT.s 			page 66


 2081 0026 0B       		.uleb128 0xb
 2082 0027 03       		.uleb128 0x3
 2083 0028 08       		.uleb128 0x8
 2084 0029 00       		.byte	0
 2085 002a 00       		.byte	0
 2086 002b 04       		.uleb128 0x4
 2087 002c 16       		.uleb128 0x16
 2088 002d 00       		.byte	0
 2089 002e 03       		.uleb128 0x3
 2090 002f 0E       		.uleb128 0xe
 2091 0030 3A       		.uleb128 0x3a
 2092 0031 0B       		.uleb128 0xb
 2093 0032 3B       		.uleb128 0x3b
 2094 0033 0B       		.uleb128 0xb
 2095 0034 49       		.uleb128 0x49
 2096 0035 13       		.uleb128 0x13
 2097 0036 00       		.byte	0
 2098 0037 00       		.byte	0
 2099 0038 05       		.uleb128 0x5
 2100 0039 35       		.uleb128 0x35
 2101 003a 00       		.byte	0
 2102 003b 49       		.uleb128 0x49
 2103 003c 13       		.uleb128 0x13
 2104 003d 00       		.byte	0
 2105 003e 00       		.byte	0
 2106 003f 06       		.uleb128 0x6
 2107 0040 2E       		.uleb128 0x2e
 2108 0041 00       		.byte	0
 2109 0042 3F       		.uleb128 0x3f
 2110 0043 0C       		.uleb128 0xc
 2111 0044 03       		.uleb128 0x3
 2112 0045 0E       		.uleb128 0xe
 2113 0046 3A       		.uleb128 0x3a
 2114 0047 0B       		.uleb128 0xb
 2115 0048 3B       		.uleb128 0x3b
 2116 0049 0B       		.uleb128 0xb
 2117 004a 27       		.uleb128 0x27
 2118 004b 0C       		.uleb128 0xc
 2119 004c 11       		.uleb128 0x11
 2120 004d 01       		.uleb128 0x1
 2121 004e 12       		.uleb128 0x12
 2122 004f 01       		.uleb128 0x1
 2123 0050 40       		.uleb128 0x40
 2124 0051 06       		.uleb128 0x6
 2125 0052 9642     		.uleb128 0x2116
 2126 0054 0C       		.uleb128 0xc
 2127 0055 00       		.byte	0
 2128 0056 00       		.byte	0
 2129 0057 07       		.uleb128 0x7
 2130 0058 2E       		.uleb128 0x2e
 2131 0059 00       		.byte	0
 2132 005a 3F       		.uleb128 0x3f
 2133 005b 0C       		.uleb128 0xc
 2134 005c 03       		.uleb128 0x3
 2135 005d 0E       		.uleb128 0xe
 2136 005e 3A       		.uleb128 0x3a
 2137 005f 0B       		.uleb128 0xb
ARM GAS  C:\Users\Owner\AppData\Local\Temp\ccR6XCwT.s 			page 67


 2138 0060 3B       		.uleb128 0x3b
 2139 0061 0B       		.uleb128 0xb
 2140 0062 27       		.uleb128 0x27
 2141 0063 0C       		.uleb128 0xc
 2142 0064 11       		.uleb128 0x11
 2143 0065 01       		.uleb128 0x1
 2144 0066 12       		.uleb128 0x12
 2145 0067 01       		.uleb128 0x1
 2146 0068 40       		.uleb128 0x40
 2147 0069 06       		.uleb128 0x6
 2148 006a 9742     		.uleb128 0x2117
 2149 006c 0C       		.uleb128 0xc
 2150 006d 00       		.byte	0
 2151 006e 00       		.byte	0
 2152 006f 08       		.uleb128 0x8
 2153 0070 2E       		.uleb128 0x2e
 2154 0071 01       		.byte	0x1
 2155 0072 3F       		.uleb128 0x3f
 2156 0073 0C       		.uleb128 0xc
 2157 0074 03       		.uleb128 0x3
 2158 0075 0E       		.uleb128 0xe
 2159 0076 3A       		.uleb128 0x3a
 2160 0077 0B       		.uleb128 0xb
 2161 0078 3B       		.uleb128 0x3b
 2162 0079 0B       		.uleb128 0xb
 2163 007a 27       		.uleb128 0x27
 2164 007b 0C       		.uleb128 0xc
 2165 007c 11       		.uleb128 0x11
 2166 007d 01       		.uleb128 0x1
 2167 007e 12       		.uleb128 0x12
 2168 007f 01       		.uleb128 0x1
 2169 0080 40       		.uleb128 0x40
 2170 0081 06       		.uleb128 0x6
 2171 0082 9642     		.uleb128 0x2116
 2172 0084 0C       		.uleb128 0xc
 2173 0085 01       		.uleb128 0x1
 2174 0086 13       		.uleb128 0x13
 2175 0087 00       		.byte	0
 2176 0088 00       		.byte	0
 2177 0089 09       		.uleb128 0x9
 2178 008a 34       		.uleb128 0x34
 2179 008b 00       		.byte	0
 2180 008c 03       		.uleb128 0x3
 2181 008d 0E       		.uleb128 0xe
 2182 008e 3A       		.uleb128 0x3a
 2183 008f 0B       		.uleb128 0xb
 2184 0090 3B       		.uleb128 0x3b
 2185 0091 0B       		.uleb128 0xb
 2186 0092 49       		.uleb128 0x49
 2187 0093 13       		.uleb128 0x13
 2188 0094 02       		.uleb128 0x2
 2189 0095 0A       		.uleb128 0xa
 2190 0096 00       		.byte	0
 2191 0097 00       		.byte	0
 2192 0098 0A       		.uleb128 0xa
 2193 0099 2E       		.uleb128 0x2e
 2194 009a 00       		.byte	0
ARM GAS  C:\Users\Owner\AppData\Local\Temp\ccR6XCwT.s 			page 68


 2195 009b 3F       		.uleb128 0x3f
 2196 009c 0C       		.uleb128 0xc
 2197 009d 03       		.uleb128 0x3
 2198 009e 0E       		.uleb128 0xe
 2199 009f 3A       		.uleb128 0x3a
 2200 00a0 0B       		.uleb128 0xb
 2201 00a1 3B       		.uleb128 0x3b
 2202 00a2 05       		.uleb128 0x5
 2203 00a3 27       		.uleb128 0x27
 2204 00a4 0C       		.uleb128 0xc
 2205 00a5 49       		.uleb128 0x49
 2206 00a6 13       		.uleb128 0x13
 2207 00a7 11       		.uleb128 0x11
 2208 00a8 01       		.uleb128 0x1
 2209 00a9 12       		.uleb128 0x12
 2210 00aa 01       		.uleb128 0x1
 2211 00ab 40       		.uleb128 0x40
 2212 00ac 06       		.uleb128 0x6
 2213 00ad 9742     		.uleb128 0x2117
 2214 00af 0C       		.uleb128 0xc
 2215 00b0 00       		.byte	0
 2216 00b1 00       		.byte	0
 2217 00b2 0B       		.uleb128 0xb
 2218 00b3 2E       		.uleb128 0x2e
 2219 00b4 01       		.byte	0x1
 2220 00b5 3F       		.uleb128 0x3f
 2221 00b6 0C       		.uleb128 0xc
 2222 00b7 03       		.uleb128 0x3
 2223 00b8 0E       		.uleb128 0xe
 2224 00b9 3A       		.uleb128 0x3a
 2225 00ba 0B       		.uleb128 0xb
 2226 00bb 3B       		.uleb128 0x3b
 2227 00bc 05       		.uleb128 0x5
 2228 00bd 27       		.uleb128 0x27
 2229 00be 0C       		.uleb128 0xc
 2230 00bf 11       		.uleb128 0x11
 2231 00c0 01       		.uleb128 0x1
 2232 00c1 12       		.uleb128 0x12
 2233 00c2 01       		.uleb128 0x1
 2234 00c3 40       		.uleb128 0x40
 2235 00c4 06       		.uleb128 0x6
 2236 00c5 9742     		.uleb128 0x2117
 2237 00c7 0C       		.uleb128 0xc
 2238 00c8 01       		.uleb128 0x1
 2239 00c9 13       		.uleb128 0x13
 2240 00ca 00       		.byte	0
 2241 00cb 00       		.byte	0
 2242 00cc 0C       		.uleb128 0xc
 2243 00cd 05       		.uleb128 0x5
 2244 00ce 00       		.byte	0
 2245 00cf 03       		.uleb128 0x3
 2246 00d0 0E       		.uleb128 0xe
 2247 00d1 3A       		.uleb128 0x3a
 2248 00d2 0B       		.uleb128 0xb
 2249 00d3 3B       		.uleb128 0x3b
 2250 00d4 05       		.uleb128 0x5
 2251 00d5 49       		.uleb128 0x49
ARM GAS  C:\Users\Owner\AppData\Local\Temp\ccR6XCwT.s 			page 69


 2252 00d6 13       		.uleb128 0x13
 2253 00d7 02       		.uleb128 0x2
 2254 00d8 0A       		.uleb128 0xa
 2255 00d9 00       		.byte	0
 2256 00da 00       		.byte	0
 2257 00db 0D       		.uleb128 0xd
 2258 00dc 2E       		.uleb128 0x2e
 2259 00dd 01       		.byte	0x1
 2260 00de 3F       		.uleb128 0x3f
 2261 00df 0C       		.uleb128 0xc
 2262 00e0 03       		.uleb128 0x3
 2263 00e1 0E       		.uleb128 0xe
 2264 00e2 3A       		.uleb128 0x3a
 2265 00e3 0B       		.uleb128 0xb
 2266 00e4 3B       		.uleb128 0x3b
 2267 00e5 05       		.uleb128 0x5
 2268 00e6 27       		.uleb128 0x27
 2269 00e7 0C       		.uleb128 0xc
 2270 00e8 49       		.uleb128 0x49
 2271 00e9 13       		.uleb128 0x13
 2272 00ea 11       		.uleb128 0x11
 2273 00eb 01       		.uleb128 0x1
 2274 00ec 12       		.uleb128 0x12
 2275 00ed 01       		.uleb128 0x1
 2276 00ee 40       		.uleb128 0x40
 2277 00ef 06       		.uleb128 0x6
 2278 00f0 9742     		.uleb128 0x2117
 2279 00f2 0C       		.uleb128 0xc
 2280 00f3 01       		.uleb128 0x1
 2281 00f4 13       		.uleb128 0x13
 2282 00f5 00       		.byte	0
 2283 00f6 00       		.byte	0
 2284 00f7 0E       		.uleb128 0xe
 2285 00f8 34       		.uleb128 0x34
 2286 00f9 00       		.byte	0
 2287 00fa 03       		.uleb128 0x3
 2288 00fb 0E       		.uleb128 0xe
 2289 00fc 3A       		.uleb128 0x3a
 2290 00fd 0B       		.uleb128 0xb
 2291 00fe 3B       		.uleb128 0x3b
 2292 00ff 05       		.uleb128 0x5
 2293 0100 49       		.uleb128 0x49
 2294 0101 13       		.uleb128 0x13
 2295 0102 02       		.uleb128 0x2
 2296 0103 0A       		.uleb128 0xa
 2297 0104 00       		.byte	0
 2298 0105 00       		.byte	0
 2299 0106 0F       		.uleb128 0xf
 2300 0107 2E       		.uleb128 0x2e
 2301 0108 00       		.byte	0
 2302 0109 3F       		.uleb128 0x3f
 2303 010a 0C       		.uleb128 0xc
 2304 010b 03       		.uleb128 0x3
 2305 010c 0E       		.uleb128 0xe
 2306 010d 3A       		.uleb128 0x3a
 2307 010e 0B       		.uleb128 0xb
 2308 010f 3B       		.uleb128 0x3b
ARM GAS  C:\Users\Owner\AppData\Local\Temp\ccR6XCwT.s 			page 70


 2309 0110 05       		.uleb128 0x5
 2310 0111 27       		.uleb128 0x27
 2311 0112 0C       		.uleb128 0xc
 2312 0113 49       		.uleb128 0x49
 2313 0114 13       		.uleb128 0x13
 2314 0115 11       		.uleb128 0x11
 2315 0116 01       		.uleb128 0x1
 2316 0117 12       		.uleb128 0x12
 2317 0118 01       		.uleb128 0x1
 2318 0119 40       		.uleb128 0x40
 2319 011a 06       		.uleb128 0x6
 2320 011b 9642     		.uleb128 0x2116
 2321 011d 0C       		.uleb128 0xc
 2322 011e 00       		.byte	0
 2323 011f 00       		.byte	0
 2324 0120 10       		.uleb128 0x10
 2325 0121 2E       		.uleb128 0x2e
 2326 0122 01       		.byte	0x1
 2327 0123 3F       		.uleb128 0x3f
 2328 0124 0C       		.uleb128 0xc
 2329 0125 03       		.uleb128 0x3
 2330 0126 0E       		.uleb128 0xe
 2331 0127 3A       		.uleb128 0x3a
 2332 0128 0B       		.uleb128 0xb
 2333 0129 3B       		.uleb128 0x3b
 2334 012a 05       		.uleb128 0x5
 2335 012b 27       		.uleb128 0x27
 2336 012c 0C       		.uleb128 0xc
 2337 012d 11       		.uleb128 0x11
 2338 012e 01       		.uleb128 0x1
 2339 012f 12       		.uleb128 0x12
 2340 0130 01       		.uleb128 0x1
 2341 0131 40       		.uleb128 0x40
 2342 0132 06       		.uleb128 0x6
 2343 0133 9642     		.uleb128 0x2116
 2344 0135 0C       		.uleb128 0xc
 2345 0136 01       		.uleb128 0x1
 2346 0137 13       		.uleb128 0x13
 2347 0138 00       		.byte	0
 2348 0139 00       		.byte	0
 2349 013a 11       		.uleb128 0x11
 2350 013b 0F       		.uleb128 0xf
 2351 013c 00       		.byte	0
 2352 013d 0B       		.uleb128 0xb
 2353 013e 0B       		.uleb128 0xb
 2354 013f 49       		.uleb128 0x49
 2355 0140 13       		.uleb128 0x13
 2356 0141 00       		.byte	0
 2357 0142 00       		.byte	0
 2358 0143 12       		.uleb128 0x12
 2359 0144 26       		.uleb128 0x26
 2360 0145 00       		.byte	0
 2361 0146 49       		.uleb128 0x49
 2362 0147 13       		.uleb128 0x13
 2363 0148 00       		.byte	0
 2364 0149 00       		.byte	0
 2365 014a 13       		.uleb128 0x13
ARM GAS  C:\Users\Owner\AppData\Local\Temp\ccR6XCwT.s 			page 71


 2366 014b 0B       		.uleb128 0xb
 2367 014c 01       		.byte	0x1
 2368 014d 11       		.uleb128 0x11
 2369 014e 01       		.uleb128 0x1
 2370 014f 12       		.uleb128 0x12
 2371 0150 01       		.uleb128 0x1
 2372 0151 00       		.byte	0
 2373 0152 00       		.byte	0
 2374 0153 14       		.uleb128 0x14
 2375 0154 34       		.uleb128 0x34
 2376 0155 00       		.byte	0
 2377 0156 03       		.uleb128 0x3
 2378 0157 0E       		.uleb128 0xe
 2379 0158 3A       		.uleb128 0x3a
 2380 0159 0B       		.uleb128 0xb
 2381 015a 3B       		.uleb128 0x3b
 2382 015b 0B       		.uleb128 0xb
 2383 015c 49       		.uleb128 0x49
 2384 015d 13       		.uleb128 0x13
 2385 015e 3F       		.uleb128 0x3f
 2386 015f 0C       		.uleb128 0xc
 2387 0160 02       		.uleb128 0x2
 2388 0161 0A       		.uleb128 0xa
 2389 0162 00       		.byte	0
 2390 0163 00       		.byte	0
 2391 0164 00       		.byte	0
 2392              		.section	.debug_loc,"",%progbits
 2393              	.Ldebug_loc0:
 2394              	.LLST0:
 2395 0000 00000000 		.4byte	.LFB0
 2396 0004 02000000 		.4byte	.LCFI0
 2397 0008 0200     		.2byte	0x2
 2398 000a 7D       		.byte	0x7d
 2399 000b 00       		.sleb128 0
 2400 000c 02000000 		.4byte	.LCFI0
 2401 0010 04000000 		.4byte	.LCFI1
 2402 0014 0200     		.2byte	0x2
 2403 0016 7D       		.byte	0x7d
 2404 0017 08       		.sleb128 8
 2405 0018 04000000 		.4byte	.LCFI1
 2406 001c 2A000000 		.4byte	.LFE0
 2407 0020 0200     		.2byte	0x2
 2408 0022 77       		.byte	0x77
 2409 0023 08       		.sleb128 8
 2410 0024 00000000 		.4byte	0
 2411 0028 00000000 		.4byte	0
 2412              	.LLST1:
 2413 002c 00000000 		.4byte	.LFB1
 2414 0030 02000000 		.4byte	.LCFI2
 2415 0034 0200     		.2byte	0x2
 2416 0036 7D       		.byte	0x7d
 2417 0037 00       		.sleb128 0
 2418 0038 02000000 		.4byte	.LCFI2
 2419 003c 04000000 		.4byte	.LCFI3
 2420 0040 0200     		.2byte	0x2
 2421 0042 7D       		.byte	0x7d
 2422 0043 04       		.sleb128 4
ARM GAS  C:\Users\Owner\AppData\Local\Temp\ccR6XCwT.s 			page 72


 2423 0044 04000000 		.4byte	.LCFI3
 2424 0048 50000000 		.4byte	.LFE1
 2425 004c 0200     		.2byte	0x2
 2426 004e 77       		.byte	0x77
 2427 004f 04       		.sleb128 4
 2428 0050 00000000 		.4byte	0
 2429 0054 00000000 		.4byte	0
 2430              	.LLST2:
 2431 0058 00000000 		.4byte	.LFB2
 2432 005c 02000000 		.4byte	.LCFI4
 2433 0060 0200     		.2byte	0x2
 2434 0062 7D       		.byte	0x7d
 2435 0063 00       		.sleb128 0
 2436 0064 02000000 		.4byte	.LCFI4
 2437 0068 04000000 		.4byte	.LCFI5
 2438 006c 0200     		.2byte	0x2
 2439 006e 7D       		.byte	0x7d
 2440 006f 08       		.sleb128 8
 2441 0070 04000000 		.4byte	.LCFI5
 2442 0074 06000000 		.4byte	.LCFI6
 2443 0078 0200     		.2byte	0x2
 2444 007a 7D       		.byte	0x7d
 2445 007b 10       		.sleb128 16
 2446 007c 06000000 		.4byte	.LCFI6
 2447 0080 76000000 		.4byte	.LFE2
 2448 0084 0200     		.2byte	0x2
 2449 0086 77       		.byte	0x77
 2450 0087 10       		.sleb128 16
 2451 0088 00000000 		.4byte	0
 2452 008c 00000000 		.4byte	0
 2453              	.LLST3:
 2454 0090 00000000 		.4byte	.LFB3
 2455 0094 02000000 		.4byte	.LCFI7
 2456 0098 0200     		.2byte	0x2
 2457 009a 7D       		.byte	0x7d
 2458 009b 00       		.sleb128 0
 2459 009c 02000000 		.4byte	.LCFI7
 2460 00a0 04000000 		.4byte	.LCFI8
 2461 00a4 0200     		.2byte	0x2
 2462 00a6 7D       		.byte	0x7d
 2463 00a7 08       		.sleb128 8
 2464 00a8 04000000 		.4byte	.LCFI8
 2465 00ac 06000000 		.4byte	.LCFI9
 2466 00b0 0200     		.2byte	0x2
 2467 00b2 7D       		.byte	0x7d
 2468 00b3 10       		.sleb128 16
 2469 00b4 06000000 		.4byte	.LCFI9
 2470 00b8 76000000 		.4byte	.LFE3
 2471 00bc 0200     		.2byte	0x2
 2472 00be 77       		.byte	0x77
 2473 00bf 10       		.sleb128 16
 2474 00c0 00000000 		.4byte	0
 2475 00c4 00000000 		.4byte	0
 2476              	.LLST4:
 2477 00c8 00000000 		.4byte	.LFB4
 2478 00cc 02000000 		.4byte	.LCFI10
 2479 00d0 0200     		.2byte	0x2
ARM GAS  C:\Users\Owner\AppData\Local\Temp\ccR6XCwT.s 			page 73


 2480 00d2 7D       		.byte	0x7d
 2481 00d3 00       		.sleb128 0
 2482 00d4 02000000 		.4byte	.LCFI10
 2483 00d8 04000000 		.4byte	.LCFI11
 2484 00dc 0200     		.2byte	0x2
 2485 00de 7D       		.byte	0x7d
 2486 00df 04       		.sleb128 4
 2487 00e0 04000000 		.4byte	.LCFI11
 2488 00e4 10000000 		.4byte	.LFE4
 2489 00e8 0200     		.2byte	0x2
 2490 00ea 77       		.byte	0x77
 2491 00eb 04       		.sleb128 4
 2492 00ec 00000000 		.4byte	0
 2493 00f0 00000000 		.4byte	0
 2494              	.LLST5:
 2495 00f4 00000000 		.4byte	.LFB5
 2496 00f8 02000000 		.4byte	.LCFI12
 2497 00fc 0200     		.2byte	0x2
 2498 00fe 7D       		.byte	0x7d
 2499 00ff 00       		.sleb128 0
 2500 0100 02000000 		.4byte	.LCFI12
 2501 0104 04000000 		.4byte	.LCFI13
 2502 0108 0200     		.2byte	0x2
 2503 010a 7D       		.byte	0x7d
 2504 010b 04       		.sleb128 4
 2505 010c 04000000 		.4byte	.LCFI13
 2506 0110 06000000 		.4byte	.LCFI14
 2507 0114 0200     		.2byte	0x2
 2508 0116 7D       		.byte	0x7d
 2509 0117 10       		.sleb128 16
 2510 0118 06000000 		.4byte	.LCFI14
 2511 011c 14000000 		.4byte	.LFE5
 2512 0120 0200     		.2byte	0x2
 2513 0122 77       		.byte	0x77
 2514 0123 10       		.sleb128 16
 2515 0124 00000000 		.4byte	0
 2516 0128 00000000 		.4byte	0
 2517              	.LLST6:
 2518 012c 00000000 		.4byte	.LFB6
 2519 0130 02000000 		.4byte	.LCFI15
 2520 0134 0200     		.2byte	0x2
 2521 0136 7D       		.byte	0x7d
 2522 0137 00       		.sleb128 0
 2523 0138 02000000 		.4byte	.LCFI15
 2524 013c 04000000 		.4byte	.LCFI16
 2525 0140 0200     		.2byte	0x2
 2526 0142 7D       		.byte	0x7d
 2527 0143 04       		.sleb128 4
 2528 0144 04000000 		.4byte	.LCFI16
 2529 0148 06000000 		.4byte	.LCFI17
 2530 014c 0200     		.2byte	0x2
 2531 014e 7D       		.byte	0x7d
 2532 014f 10       		.sleb128 16
 2533 0150 06000000 		.4byte	.LCFI17
 2534 0154 20000000 		.4byte	.LFE6
 2535 0158 0200     		.2byte	0x2
 2536 015a 77       		.byte	0x77
ARM GAS  C:\Users\Owner\AppData\Local\Temp\ccR6XCwT.s 			page 74


 2537 015b 10       		.sleb128 16
 2538 015c 00000000 		.4byte	0
 2539 0160 00000000 		.4byte	0
 2540              	.LLST7:
 2541 0164 00000000 		.4byte	.LFB7
 2542 0168 02000000 		.4byte	.LCFI18
 2543 016c 0200     		.2byte	0x2
 2544 016e 7D       		.byte	0x7d
 2545 016f 00       		.sleb128 0
 2546 0170 02000000 		.4byte	.LCFI18
 2547 0174 04000000 		.4byte	.LCFI19
 2548 0178 0200     		.2byte	0x2
 2549 017a 7D       		.byte	0x7d
 2550 017b 04       		.sleb128 4
 2551 017c 04000000 		.4byte	.LCFI19
 2552 0180 06000000 		.4byte	.LCFI20
 2553 0184 0200     		.2byte	0x2
 2554 0186 7D       		.byte	0x7d
 2555 0187 10       		.sleb128 16
 2556 0188 06000000 		.4byte	.LCFI20
 2557 018c 20000000 		.4byte	.LFE7
 2558 0190 0200     		.2byte	0x2
 2559 0192 77       		.byte	0x77
 2560 0193 10       		.sleb128 16
 2561 0194 00000000 		.4byte	0
 2562 0198 00000000 		.4byte	0
 2563              	.LLST8:
 2564 019c 00000000 		.4byte	.LFB8
 2565 01a0 02000000 		.4byte	.LCFI21
 2566 01a4 0200     		.2byte	0x2
 2567 01a6 7D       		.byte	0x7d
 2568 01a7 00       		.sleb128 0
 2569 01a8 02000000 		.4byte	.LCFI21
 2570 01ac 04000000 		.4byte	.LCFI22
 2571 01b0 0200     		.2byte	0x2
 2572 01b2 7D       		.byte	0x7d
 2573 01b3 04       		.sleb128 4
 2574 01b4 04000000 		.4byte	.LCFI22
 2575 01b8 06000000 		.4byte	.LCFI23
 2576 01bc 0200     		.2byte	0x2
 2577 01be 7D       		.byte	0x7d
 2578 01bf 10       		.sleb128 16
 2579 01c0 06000000 		.4byte	.LCFI23
 2580 01c4 26000000 		.4byte	.LFE8
 2581 01c8 0200     		.2byte	0x2
 2582 01ca 77       		.byte	0x77
 2583 01cb 10       		.sleb128 16
 2584 01cc 00000000 		.4byte	0
 2585 01d0 00000000 		.4byte	0
 2586              	.LLST9:
 2587 01d4 00000000 		.4byte	.LFB9
 2588 01d8 02000000 		.4byte	.LCFI24
 2589 01dc 0200     		.2byte	0x2
 2590 01de 7D       		.byte	0x7d
 2591 01df 00       		.sleb128 0
 2592 01e0 02000000 		.4byte	.LCFI24
 2593 01e4 04000000 		.4byte	.LCFI25
ARM GAS  C:\Users\Owner\AppData\Local\Temp\ccR6XCwT.s 			page 75


 2594 01e8 0200     		.2byte	0x2
 2595 01ea 7D       		.byte	0x7d
 2596 01eb 04       		.sleb128 4
 2597 01ec 04000000 		.4byte	.LCFI25
 2598 01f0 06000000 		.4byte	.LCFI26
 2599 01f4 0200     		.2byte	0x2
 2600 01f6 7D       		.byte	0x7d
 2601 01f7 10       		.sleb128 16
 2602 01f8 06000000 		.4byte	.LCFI26
 2603 01fc 4C000000 		.4byte	.LFE9
 2604 0200 0200     		.2byte	0x2
 2605 0202 77       		.byte	0x77
 2606 0203 10       		.sleb128 16
 2607 0204 00000000 		.4byte	0
 2608 0208 00000000 		.4byte	0
 2609              	.LLST10:
 2610 020c 00000000 		.4byte	.LFB10
 2611 0210 02000000 		.4byte	.LCFI27
 2612 0214 0200     		.2byte	0x2
 2613 0216 7D       		.byte	0x7d
 2614 0217 00       		.sleb128 0
 2615 0218 02000000 		.4byte	.LCFI27
 2616 021c 04000000 		.4byte	.LCFI28
 2617 0220 0200     		.2byte	0x2
 2618 0222 7D       		.byte	0x7d
 2619 0223 10       		.sleb128 16
 2620 0224 04000000 		.4byte	.LCFI28
 2621 0228 22000000 		.4byte	.LFE10
 2622 022c 0200     		.2byte	0x2
 2623 022e 77       		.byte	0x77
 2624 022f 10       		.sleb128 16
 2625 0230 00000000 		.4byte	0
 2626 0234 00000000 		.4byte	0
 2627              	.LLST11:
 2628 0238 00000000 		.4byte	.LFB11
 2629 023c 02000000 		.4byte	.LCFI29
 2630 0240 0200     		.2byte	0x2
 2631 0242 7D       		.byte	0x7d
 2632 0243 00       		.sleb128 0
 2633 0244 02000000 		.4byte	.LCFI29
 2634 0248 04000000 		.4byte	.LCFI30
 2635 024c 0200     		.2byte	0x2
 2636 024e 7D       		.byte	0x7d
 2637 024f 04       		.sleb128 4
 2638 0250 04000000 		.4byte	.LCFI30
 2639 0254 06000000 		.4byte	.LCFI31
 2640 0258 0200     		.2byte	0x2
 2641 025a 7D       		.byte	0x7d
 2642 025b 10       		.sleb128 16
 2643 025c 06000000 		.4byte	.LCFI31
 2644 0260 34000000 		.4byte	.LFE11
 2645 0264 0200     		.2byte	0x2
 2646 0266 77       		.byte	0x77
 2647 0267 10       		.sleb128 16
 2648 0268 00000000 		.4byte	0
 2649 026c 00000000 		.4byte	0
 2650              	.LLST12:
ARM GAS  C:\Users\Owner\AppData\Local\Temp\ccR6XCwT.s 			page 76


 2651 0270 00000000 		.4byte	.LFB12
 2652 0274 02000000 		.4byte	.LCFI32
 2653 0278 0200     		.2byte	0x2
 2654 027a 7D       		.byte	0x7d
 2655 027b 00       		.sleb128 0
 2656 027c 02000000 		.4byte	.LCFI32
 2657 0280 04000000 		.4byte	.LCFI33
 2658 0284 0200     		.2byte	0x2
 2659 0286 7D       		.byte	0x7d
 2660 0287 08       		.sleb128 8
 2661 0288 04000000 		.4byte	.LCFI33
 2662 028c 06000000 		.4byte	.LCFI34
 2663 0290 0200     		.2byte	0x2
 2664 0292 7D       		.byte	0x7d
 2665 0293 10       		.sleb128 16
 2666 0294 06000000 		.4byte	.LCFI34
 2667 0298 56000000 		.4byte	.LFE12
 2668 029c 0200     		.2byte	0x2
 2669 029e 77       		.byte	0x77
 2670 029f 10       		.sleb128 16
 2671 02a0 00000000 		.4byte	0
 2672 02a4 00000000 		.4byte	0
 2673              	.LLST13:
 2674 02a8 00000000 		.4byte	.LFB13
 2675 02ac 02000000 		.4byte	.LCFI35
 2676 02b0 0200     		.2byte	0x2
 2677 02b2 7D       		.byte	0x7d
 2678 02b3 00       		.sleb128 0
 2679 02b4 02000000 		.4byte	.LCFI35
 2680 02b8 04000000 		.4byte	.LCFI36
 2681 02bc 0200     		.2byte	0x2
 2682 02be 7D       		.byte	0x7d
 2683 02bf 04       		.sleb128 4
 2684 02c0 04000000 		.4byte	.LCFI36
 2685 02c4 06000000 		.4byte	.LCFI37
 2686 02c8 0200     		.2byte	0x2
 2687 02ca 7D       		.byte	0x7d
 2688 02cb 10       		.sleb128 16
 2689 02cc 06000000 		.4byte	.LCFI37
 2690 02d0 14000000 		.4byte	.LFE13
 2691 02d4 0200     		.2byte	0x2
 2692 02d6 77       		.byte	0x77
 2693 02d7 10       		.sleb128 16
 2694 02d8 00000000 		.4byte	0
 2695 02dc 00000000 		.4byte	0
 2696              	.LLST14:
 2697 02e0 00000000 		.4byte	.LFB14
 2698 02e4 02000000 		.4byte	.LCFI38
 2699 02e8 0200     		.2byte	0x2
 2700 02ea 7D       		.byte	0x7d
 2701 02eb 00       		.sleb128 0
 2702 02ec 02000000 		.4byte	.LCFI38
 2703 02f0 04000000 		.4byte	.LCFI39
 2704 02f4 0200     		.2byte	0x2
 2705 02f6 7D       		.byte	0x7d
 2706 02f7 04       		.sleb128 4
 2707 02f8 04000000 		.4byte	.LCFI39
ARM GAS  C:\Users\Owner\AppData\Local\Temp\ccR6XCwT.s 			page 77


 2708 02fc 06000000 		.4byte	.LCFI40
 2709 0300 0200     		.2byte	0x2
 2710 0302 7D       		.byte	0x7d
 2711 0303 10       		.sleb128 16
 2712 0304 06000000 		.4byte	.LCFI40
 2713 0308 20000000 		.4byte	.LFE14
 2714 030c 0200     		.2byte	0x2
 2715 030e 77       		.byte	0x77
 2716 030f 10       		.sleb128 16
 2717 0310 00000000 		.4byte	0
 2718 0314 00000000 		.4byte	0
 2719              	.LLST15:
 2720 0318 00000000 		.4byte	.LFB15
 2721 031c 02000000 		.4byte	.LCFI41
 2722 0320 0200     		.2byte	0x2
 2723 0322 7D       		.byte	0x7d
 2724 0323 00       		.sleb128 0
 2725 0324 02000000 		.4byte	.LCFI41
 2726 0328 04000000 		.4byte	.LCFI42
 2727 032c 0200     		.2byte	0x2
 2728 032e 7D       		.byte	0x7d
 2729 032f 04       		.sleb128 4
 2730 0330 04000000 		.4byte	.LCFI42
 2731 0334 06000000 		.4byte	.LCFI43
 2732 0338 0200     		.2byte	0x2
 2733 033a 7D       		.byte	0x7d
 2734 033b 10       		.sleb128 16
 2735 033c 06000000 		.4byte	.LCFI43
 2736 0340 20000000 		.4byte	.LFE15
 2737 0344 0200     		.2byte	0x2
 2738 0346 77       		.byte	0x77
 2739 0347 10       		.sleb128 16
 2740 0348 00000000 		.4byte	0
 2741 034c 00000000 		.4byte	0
 2742              	.LLST16:
 2743 0350 00000000 		.4byte	.LFB16
 2744 0354 02000000 		.4byte	.LCFI44
 2745 0358 0200     		.2byte	0x2
 2746 035a 7D       		.byte	0x7d
 2747 035b 00       		.sleb128 0
 2748 035c 02000000 		.4byte	.LCFI44
 2749 0360 04000000 		.4byte	.LCFI45
 2750 0364 0200     		.2byte	0x2
 2751 0366 7D       		.byte	0x7d
 2752 0367 04       		.sleb128 4
 2753 0368 04000000 		.4byte	.LCFI45
 2754 036c 06000000 		.4byte	.LCFI46
 2755 0370 0200     		.2byte	0x2
 2756 0372 7D       		.byte	0x7d
 2757 0373 10       		.sleb128 16
 2758 0374 06000000 		.4byte	.LCFI46
 2759 0378 20000000 		.4byte	.LFE16
 2760 037c 0200     		.2byte	0x2
 2761 037e 77       		.byte	0x77
 2762 037f 10       		.sleb128 16
 2763 0380 00000000 		.4byte	0
 2764 0384 00000000 		.4byte	0
ARM GAS  C:\Users\Owner\AppData\Local\Temp\ccR6XCwT.s 			page 78


 2765              	.LLST17:
 2766 0388 00000000 		.4byte	.LFB17
 2767 038c 02000000 		.4byte	.LCFI47
 2768 0390 0200     		.2byte	0x2
 2769 0392 7D       		.byte	0x7d
 2770 0393 00       		.sleb128 0
 2771 0394 02000000 		.4byte	.LCFI47
 2772 0398 04000000 		.4byte	.LCFI48
 2773 039c 0200     		.2byte	0x2
 2774 039e 7D       		.byte	0x7d
 2775 039f 04       		.sleb128 4
 2776 03a0 04000000 		.4byte	.LCFI48
 2777 03a4 06000000 		.4byte	.LCFI49
 2778 03a8 0200     		.2byte	0x2
 2779 03aa 7D       		.byte	0x7d
 2780 03ab 10       		.sleb128 16
 2781 03ac 06000000 		.4byte	.LCFI49
 2782 03b0 2E000000 		.4byte	.LFE17
 2783 03b4 0200     		.2byte	0x2
 2784 03b6 77       		.byte	0x77
 2785 03b7 10       		.sleb128 16
 2786 03b8 00000000 		.4byte	0
 2787 03bc 00000000 		.4byte	0
 2788              	.LLST18:
 2789 03c0 00000000 		.4byte	.LFB18
 2790 03c4 02000000 		.4byte	.LCFI50
 2791 03c8 0200     		.2byte	0x2
 2792 03ca 7D       		.byte	0x7d
 2793 03cb 00       		.sleb128 0
 2794 03cc 02000000 		.4byte	.LCFI50
 2795 03d0 04000000 		.4byte	.LCFI51
 2796 03d4 0200     		.2byte	0x2
 2797 03d6 7D       		.byte	0x7d
 2798 03d7 04       		.sleb128 4
 2799 03d8 04000000 		.4byte	.LCFI51
 2800 03dc 18000000 		.4byte	.LFE18
 2801 03e0 0200     		.2byte	0x2
 2802 03e2 77       		.byte	0x77
 2803 03e3 04       		.sleb128 4
 2804 03e4 00000000 		.4byte	0
 2805 03e8 00000000 		.4byte	0
 2806              	.LLST19:
 2807 03ec 00000000 		.4byte	.LFB19
 2808 03f0 02000000 		.4byte	.LCFI52
 2809 03f4 0200     		.2byte	0x2
 2810 03f6 7D       		.byte	0x7d
 2811 03f7 00       		.sleb128 0
 2812 03f8 02000000 		.4byte	.LCFI52
 2813 03fc 04000000 		.4byte	.LCFI53
 2814 0400 0200     		.2byte	0x2
 2815 0402 7D       		.byte	0x7d
 2816 0403 04       		.sleb128 4
 2817 0404 04000000 		.4byte	.LCFI53
 2818 0408 06000000 		.4byte	.LCFI54
 2819 040c 0200     		.2byte	0x2
 2820 040e 7D       		.byte	0x7d
 2821 040f 10       		.sleb128 16
ARM GAS  C:\Users\Owner\AppData\Local\Temp\ccR6XCwT.s 			page 79


 2822 0410 06000000 		.4byte	.LCFI54
 2823 0414 36000000 		.4byte	.LFE19
 2824 0418 0200     		.2byte	0x2
 2825 041a 77       		.byte	0x77
 2826 041b 10       		.sleb128 16
 2827 041c 00000000 		.4byte	0
 2828 0420 00000000 		.4byte	0
 2829              	.LLST20:
 2830 0424 00000000 		.4byte	.LFB20
 2831 0428 02000000 		.4byte	.LCFI55
 2832 042c 0200     		.2byte	0x2
 2833 042e 7D       		.byte	0x7d
 2834 042f 00       		.sleb128 0
 2835 0430 02000000 		.4byte	.LCFI55
 2836 0434 04000000 		.4byte	.LCFI56
 2837 0438 0200     		.2byte	0x2
 2838 043a 7D       		.byte	0x7d
 2839 043b 08       		.sleb128 8
 2840 043c 04000000 		.4byte	.LCFI56
 2841 0440 06000000 		.4byte	.LCFI57
 2842 0444 0200     		.2byte	0x2
 2843 0446 7D       		.byte	0x7d
 2844 0447 18       		.sleb128 24
 2845 0448 06000000 		.4byte	.LCFI57
 2846 044c 48000000 		.4byte	.LFE20
 2847 0450 0200     		.2byte	0x2
 2848 0452 77       		.byte	0x77
 2849 0453 18       		.sleb128 24
 2850 0454 00000000 		.4byte	0
 2851 0458 00000000 		.4byte	0
 2852              	.LLST21:
 2853 045c 00000000 		.4byte	.LFB21
 2854 0460 02000000 		.4byte	.LCFI58
 2855 0464 0200     		.2byte	0x2
 2856 0466 7D       		.byte	0x7d
 2857 0467 00       		.sleb128 0
 2858 0468 02000000 		.4byte	.LCFI58
 2859 046c 04000000 		.4byte	.LCFI59
 2860 0470 0200     		.2byte	0x2
 2861 0472 7D       		.byte	0x7d
 2862 0473 08       		.sleb128 8
 2863 0474 04000000 		.4byte	.LCFI59
 2864 0478 06000000 		.4byte	.LCFI60
 2865 047c 0200     		.2byte	0x2
 2866 047e 7D       		.byte	0x7d
 2867 047f 18       		.sleb128 24
 2868 0480 06000000 		.4byte	.LCFI60
 2869 0484 46000000 		.4byte	.LFE21
 2870 0488 0200     		.2byte	0x2
 2871 048a 77       		.byte	0x77
 2872 048b 18       		.sleb128 24
 2873 048c 00000000 		.4byte	0
 2874 0490 00000000 		.4byte	0
 2875              	.LLST22:
 2876 0494 00000000 		.4byte	.LFB22
 2877 0498 02000000 		.4byte	.LCFI61
 2878 049c 0200     		.2byte	0x2
ARM GAS  C:\Users\Owner\AppData\Local\Temp\ccR6XCwT.s 			page 80


 2879 049e 7D       		.byte	0x7d
 2880 049f 00       		.sleb128 0
 2881 04a0 02000000 		.4byte	.LCFI61
 2882 04a4 04000000 		.4byte	.LCFI62
 2883 04a8 0200     		.2byte	0x2
 2884 04aa 7D       		.byte	0x7d
 2885 04ab 08       		.sleb128 8
 2886 04ac 04000000 		.4byte	.LCFI62
 2887 04b0 06000000 		.4byte	.LCFI63
 2888 04b4 0200     		.2byte	0x2
 2889 04b6 7D       		.byte	0x7d
 2890 04b7 10       		.sleb128 16
 2891 04b8 06000000 		.4byte	.LCFI63
 2892 04bc 38000000 		.4byte	.LFE22
 2893 04c0 0200     		.2byte	0x2
 2894 04c2 77       		.byte	0x77
 2895 04c3 10       		.sleb128 16
 2896 04c4 00000000 		.4byte	0
 2897 04c8 00000000 		.4byte	0
 2898              	.LLST23:
 2899 04cc 00000000 		.4byte	.LFB23
 2900 04d0 02000000 		.4byte	.LCFI64
 2901 04d4 0200     		.2byte	0x2
 2902 04d6 7D       		.byte	0x7d
 2903 04d7 00       		.sleb128 0
 2904 04d8 02000000 		.4byte	.LCFI64
 2905 04dc 04000000 		.4byte	.LCFI65
 2906 04e0 0200     		.2byte	0x2
 2907 04e2 7D       		.byte	0x7d
 2908 04e3 04       		.sleb128 4
 2909 04e4 04000000 		.4byte	.LCFI65
 2910 04e8 06000000 		.4byte	.LCFI66
 2911 04ec 0200     		.2byte	0x2
 2912 04ee 7D       		.byte	0x7d
 2913 04ef 10       		.sleb128 16
 2914 04f0 06000000 		.4byte	.LCFI66
 2915 04f4 4A000000 		.4byte	.LFE23
 2916 04f8 0200     		.2byte	0x2
 2917 04fa 77       		.byte	0x77
 2918 04fb 10       		.sleb128 16
 2919 04fc 00000000 		.4byte	0
 2920 0500 00000000 		.4byte	0
 2921              	.LLST24:
 2922 0504 00000000 		.4byte	.LFB24
 2923 0508 02000000 		.4byte	.LCFI67
 2924 050c 0200     		.2byte	0x2
 2925 050e 7D       		.byte	0x7d
 2926 050f 00       		.sleb128 0
 2927 0510 02000000 		.4byte	.LCFI67
 2928 0514 04000000 		.4byte	.LCFI68
 2929 0518 0200     		.2byte	0x2
 2930 051a 7D       		.byte	0x7d
 2931 051b 08       		.sleb128 8
 2932 051c 04000000 		.4byte	.LCFI68
 2933 0520 06000000 		.4byte	.LCFI69
 2934 0524 0200     		.2byte	0x2
 2935 0526 7D       		.byte	0x7d
ARM GAS  C:\Users\Owner\AppData\Local\Temp\ccR6XCwT.s 			page 81


 2936 0527 10       		.sleb128 16
 2937 0528 06000000 		.4byte	.LCFI69
 2938 052c 56000000 		.4byte	.LFE24
 2939 0530 0200     		.2byte	0x2
 2940 0532 77       		.byte	0x77
 2941 0533 10       		.sleb128 16
 2942 0534 00000000 		.4byte	0
 2943 0538 00000000 		.4byte	0
 2944              	.LLST25:
 2945 053c 00000000 		.4byte	.LFB25
 2946 0540 02000000 		.4byte	.LCFI70
 2947 0544 0200     		.2byte	0x2
 2948 0546 7D       		.byte	0x7d
 2949 0547 00       		.sleb128 0
 2950 0548 02000000 		.4byte	.LCFI70
 2951 054c 04000000 		.4byte	.LCFI71
 2952 0550 0200     		.2byte	0x2
 2953 0552 7D       		.byte	0x7d
 2954 0553 04       		.sleb128 4
 2955 0554 04000000 		.4byte	.LCFI71
 2956 0558 06000000 		.4byte	.LCFI72
 2957 055c 0200     		.2byte	0x2
 2958 055e 7D       		.byte	0x7d
 2959 055f 18       		.sleb128 24
 2960 0560 06000000 		.4byte	.LCFI72
 2961 0564 C4000000 		.4byte	.LFE25
 2962 0568 0200     		.2byte	0x2
 2963 056a 77       		.byte	0x77
 2964 056b 18       		.sleb128 24
 2965 056c 00000000 		.4byte	0
 2966 0570 00000000 		.4byte	0
 2967              	.LLST26:
 2968 0574 00000000 		.4byte	.LFB26
 2969 0578 02000000 		.4byte	.LCFI73
 2970 057c 0200     		.2byte	0x2
 2971 057e 7D       		.byte	0x7d
 2972 057f 00       		.sleb128 0
 2973 0580 02000000 		.4byte	.LCFI73
 2974 0584 04000000 		.4byte	.LCFI74
 2975 0588 0200     		.2byte	0x2
 2976 058a 7D       		.byte	0x7d
 2977 058b 04       		.sleb128 4
 2978 058c 04000000 		.4byte	.LCFI74
 2979 0590 06000000 		.4byte	.LCFI75
 2980 0594 0200     		.2byte	0x2
 2981 0596 7D       		.byte	0x7d
 2982 0597 10       		.sleb128 16
 2983 0598 06000000 		.4byte	.LCFI75
 2984 059c 14000000 		.4byte	.LFE26
 2985 05a0 0200     		.2byte	0x2
 2986 05a2 77       		.byte	0x77
 2987 05a3 10       		.sleb128 16
 2988 05a4 00000000 		.4byte	0
 2989 05a8 00000000 		.4byte	0
 2990              		.section	.debug_aranges,"",%progbits
 2991 0000 EC000000 		.4byte	0xec
 2992 0004 0200     		.2byte	0x2
ARM GAS  C:\Users\Owner\AppData\Local\Temp\ccR6XCwT.s 			page 82


 2993 0006 00000000 		.4byte	.Ldebug_info0
 2994 000a 04       		.byte	0x4
 2995 000b 00       		.byte	0
 2996 000c 0000     		.2byte	0
 2997 000e 0000     		.2byte	0
 2998 0010 00000000 		.4byte	.LFB0
 2999 0014 2A000000 		.4byte	.LFE0-.LFB0
 3000 0018 00000000 		.4byte	.LFB1
 3001 001c 50000000 		.4byte	.LFE1-.LFB1
 3002 0020 00000000 		.4byte	.LFB2
 3003 0024 76000000 		.4byte	.LFE2-.LFB2
 3004 0028 00000000 		.4byte	.LFB3
 3005 002c 76000000 		.4byte	.LFE3-.LFB3
 3006 0030 00000000 		.4byte	.LFB4
 3007 0034 10000000 		.4byte	.LFE4-.LFB4
 3008 0038 00000000 		.4byte	.LFB5
 3009 003c 14000000 		.4byte	.LFE5-.LFB5
 3010 0040 00000000 		.4byte	.LFB6
 3011 0044 20000000 		.4byte	.LFE6-.LFB6
 3012 0048 00000000 		.4byte	.LFB7
 3013 004c 20000000 		.4byte	.LFE7-.LFB7
 3014 0050 00000000 		.4byte	.LFB8
 3015 0054 26000000 		.4byte	.LFE8-.LFB8
 3016 0058 00000000 		.4byte	.LFB9
 3017 005c 4C000000 		.4byte	.LFE9-.LFB9
 3018 0060 00000000 		.4byte	.LFB10
 3019 0064 22000000 		.4byte	.LFE10-.LFB10
 3020 0068 00000000 		.4byte	.LFB11
 3021 006c 34000000 		.4byte	.LFE11-.LFB11
 3022 0070 00000000 		.4byte	.LFB12
 3023 0074 56000000 		.4byte	.LFE12-.LFB12
 3024 0078 00000000 		.4byte	.LFB13
 3025 007c 14000000 		.4byte	.LFE13-.LFB13
 3026 0080 00000000 		.4byte	.LFB14
 3027 0084 20000000 		.4byte	.LFE14-.LFB14
 3028 0088 00000000 		.4byte	.LFB15
 3029 008c 20000000 		.4byte	.LFE15-.LFB15
 3030 0090 00000000 		.4byte	.LFB16
 3031 0094 20000000 		.4byte	.LFE16-.LFB16
 3032 0098 00000000 		.4byte	.LFB17
 3033 009c 2E000000 		.4byte	.LFE17-.LFB17
 3034 00a0 00000000 		.4byte	.LFB18
 3035 00a4 18000000 		.4byte	.LFE18-.LFB18
 3036 00a8 00000000 		.4byte	.LFB19
 3037 00ac 36000000 		.4byte	.LFE19-.LFB19
 3038 00b0 00000000 		.4byte	.LFB20
 3039 00b4 48000000 		.4byte	.LFE20-.LFB20
 3040 00b8 00000000 		.4byte	.LFB21
 3041 00bc 46000000 		.4byte	.LFE21-.LFB21
 3042 00c0 00000000 		.4byte	.LFB22
 3043 00c4 38000000 		.4byte	.LFE22-.LFB22
 3044 00c8 00000000 		.4byte	.LFB23
 3045 00cc 4A000000 		.4byte	.LFE23-.LFB23
 3046 00d0 00000000 		.4byte	.LFB24
 3047 00d4 56000000 		.4byte	.LFE24-.LFB24
 3048 00d8 00000000 		.4byte	.LFB25
 3049 00dc C4000000 		.4byte	.LFE25-.LFB25
ARM GAS  C:\Users\Owner\AppData\Local\Temp\ccR6XCwT.s 			page 83


 3050 00e0 00000000 		.4byte	.LFB26
 3051 00e4 14000000 		.4byte	.LFE26-.LFB26
 3052 00e8 00000000 		.4byte	0
 3053 00ec 00000000 		.4byte	0
 3054              		.section	.debug_ranges,"",%progbits
 3055              	.Ldebug_ranges0:
 3056 0000 00000000 		.4byte	.LFB0
 3057 0004 2A000000 		.4byte	.LFE0
 3058 0008 00000000 		.4byte	.LFB1
 3059 000c 50000000 		.4byte	.LFE1
 3060 0010 00000000 		.4byte	.LFB2
 3061 0014 76000000 		.4byte	.LFE2
 3062 0018 00000000 		.4byte	.LFB3
 3063 001c 76000000 		.4byte	.LFE3
 3064 0020 00000000 		.4byte	.LFB4
 3065 0024 10000000 		.4byte	.LFE4
 3066 0028 00000000 		.4byte	.LFB5
 3067 002c 14000000 		.4byte	.LFE5
 3068 0030 00000000 		.4byte	.LFB6
 3069 0034 20000000 		.4byte	.LFE6
 3070 0038 00000000 		.4byte	.LFB7
 3071 003c 20000000 		.4byte	.LFE7
 3072 0040 00000000 		.4byte	.LFB8
 3073 0044 26000000 		.4byte	.LFE8
 3074 0048 00000000 		.4byte	.LFB9
 3075 004c 4C000000 		.4byte	.LFE9
 3076 0050 00000000 		.4byte	.LFB10
 3077 0054 22000000 		.4byte	.LFE10
 3078 0058 00000000 		.4byte	.LFB11
 3079 005c 34000000 		.4byte	.LFE11
 3080 0060 00000000 		.4byte	.LFB12
 3081 0064 56000000 		.4byte	.LFE12
 3082 0068 00000000 		.4byte	.LFB13
 3083 006c 14000000 		.4byte	.LFE13
 3084 0070 00000000 		.4byte	.LFB14
 3085 0074 20000000 		.4byte	.LFE14
 3086 0078 00000000 		.4byte	.LFB15
 3087 007c 20000000 		.4byte	.LFE15
 3088 0080 00000000 		.4byte	.LFB16
 3089 0084 20000000 		.4byte	.LFE16
 3090 0088 00000000 		.4byte	.LFB17
 3091 008c 2E000000 		.4byte	.LFE17
 3092 0090 00000000 		.4byte	.LFB18
 3093 0094 18000000 		.4byte	.LFE18
 3094 0098 00000000 		.4byte	.LFB19
 3095 009c 36000000 		.4byte	.LFE19
 3096 00a0 00000000 		.4byte	.LFB20
 3097 00a4 48000000 		.4byte	.LFE20
 3098 00a8 00000000 		.4byte	.LFB21
 3099 00ac 46000000 		.4byte	.LFE21
 3100 00b0 00000000 		.4byte	.LFB22
 3101 00b4 38000000 		.4byte	.LFE22
 3102 00b8 00000000 		.4byte	.LFB23
 3103 00bc 4A000000 		.4byte	.LFE23
 3104 00c0 00000000 		.4byte	.LFB24
 3105 00c4 56000000 		.4byte	.LFE24
 3106 00c8 00000000 		.4byte	.LFB25
ARM GAS  C:\Users\Owner\AppData\Local\Temp\ccR6XCwT.s 			page 84


 3107 00cc C4000000 		.4byte	.LFE25
 3108 00d0 00000000 		.4byte	.LFB26
 3109 00d4 14000000 		.4byte	.LFE26
 3110 00d8 00000000 		.4byte	0
 3111 00dc 00000000 		.4byte	0
 3112              		.section	.debug_line,"",%progbits
 3113              	.Ldebug_line0:
 3114 0000 ED020000 		.section	.debug_str,"MS",%progbits,1
 3114      02004500 
 3114      00000201 
 3114      FB0E0D00 
 3114      01010101 
 3115              	.LASF39:
 3116 0000 55415254 		.ascii	"UART_2_SetRxAddress1\000"
 3116      5F325F53 
 3116      65745278 
 3116      41646472 
 3116      65737331 
 3117              	.LASF41:
 3118 0015 55415254 		.ascii	"UART_2_SetRxAddress2\000"
 3118      5F325F53 
 3118      65745278 
 3118      41646472 
 3118      65737332 
 3119              	.LASF10:
 3120 002a 75696E74 		.ascii	"uint16\000"
 3120      313600
 3121              	.LASF44:
 3122 0031 74784461 		.ascii	"txDataByte\000"
 3122      74614279 
 3122      746500
 3123              	.LASF47:
 3124 003c 55415254 		.ascii	"UART_2_PutString\000"
 3124      5F325F50 
 3124      75745374 
 3124      72696E67 
 3124      00
 3125              	.LASF48:
 3126 004d 73747269 		.ascii	"string\000"
 3126      6E6700
 3127              	.LASF61:
 3128 0054 2E5C4765 		.ascii	".\\Generated_Source\\PSoC5\\UART_2.c\000"
 3128      6E657261 
 3128      7465645F 
 3128      536F7572 
 3128      63655C50 
 3129              	.LASF7:
 3130 0076 6C6F6E67 		.ascii	"long long unsigned int\000"
 3130      206C6F6E 
 3130      6720756E 
 3130      7369676E 
 3130      65642069 
 3131              	.LASF30:
 3132 008d 55415254 		.ascii	"UART_2_GetChar\000"
 3132      5F325F47 
 3132      65744368 
 3132      617200
ARM GAS  C:\Users\Owner\AppData\Local\Temp\ccR6XCwT.s 			page 85


 3133              	.LASF19:
 3134 009c 55415254 		.ascii	"UART_2_Enable\000"
 3134      5F325F45 
 3134      6E61626C 
 3134      6500
 3135              	.LASF53:
 3136 00aa 55415254 		.ascii	"UART_2_GetTxBufferSize\000"
 3136      5F325F47 
 3136      65745478 
 3136      42756666 
 3136      65725369 
 3137              	.LASF6:
 3138 00c1 6C6F6E67 		.ascii	"long long int\000"
 3138      206C6F6E 
 3138      6720696E 
 3138      7400
 3139              	.LASF0:
 3140 00cf 7369676E 		.ascii	"signed char\000"
 3140      65642063 
 3140      68617200 
 3141              	.LASF45:
 3142 00db 55415254 		.ascii	"UART_2_ReadTxStatus\000"
 3142      5F325F52 
 3142      65616454 
 3142      78537461 
 3142      74757300 
 3143              	.LASF46:
 3144 00ef 55415254 		.ascii	"UART_2_PutChar\000"
 3144      5F325F50 
 3144      75744368 
 3144      617200
 3145              	.LASF4:
 3146 00fe 6C6F6E67 		.ascii	"long int\000"
 3146      20696E74 
 3146      00
 3147              	.LASF9:
 3148 0107 75696E74 		.ascii	"uint8\000"
 3148      3800
 3149              	.LASF12:
 3150 010d 646F7562 		.ascii	"double\000"
 3150      6C6500
 3151              	.LASF38:
 3152 0114 61646472 		.ascii	"addressMode\000"
 3152      6573734D 
 3152      6F646500 
 3153              	.LASF62:
 3154 0120 433A5C55 		.ascii	"C:\\Users\\Owner\\Desktop\\PSoC\\Psoc_program\\came"
 3154      73657273 
 3154      5C4F776E 
 3154      65725C44 
 3154      65736B74 
 3155 014d 72613031 		.ascii	"ra01\\UART_1.cydsn\000"
 3155      5C554152 
 3155      545F312E 
 3155      63796473 
 3155      6E00
 3156              	.LASF24:
ARM GAS  C:\Users\Owner\AppData\Local\Temp\ccR6XCwT.s 			page 86


 3157 015f 636F6E74 		.ascii	"control\000"
 3157      726F6C00 
 3158              	.LASF27:
 3159 0167 55415254 		.ascii	"UART_2_ReadRxData\000"
 3159      5F325F52 
 3159      65616452 
 3159      78446174 
 3159      6100
 3160              	.LASF52:
 3161 0179 55415254 		.ascii	"UART_2_PutCRLF\000"
 3161      5F325F50 
 3161      75744352 
 3161      4C4600
 3162              	.LASF56:
 3163 0188 7265744D 		.ascii	"retMode\000"
 3163      6F646500 
 3164              	.LASF8:
 3165 0190 756E7369 		.ascii	"unsigned int\000"
 3165      676E6564 
 3165      20696E74 
 3165      00
 3166              	.LASF5:
 3167 019d 6C6F6E67 		.ascii	"long unsigned int\000"
 3167      20756E73 
 3167      69676E65 
 3167      6420696E 
 3167      7400
 3168              	.LASF34:
 3169 01af 55415254 		.ascii	"UART_2_GetRxBufferSize\000"
 3169      5F325F47 
 3169      65745278 
 3169      42756666 
 3169      65725369 
 3170              	.LASF35:
 3171 01c6 73697A65 		.ascii	"size\000"
 3171      00
 3172              	.LASF3:
 3173 01cb 73686F72 		.ascii	"short unsigned int\000"
 3173      7420756E 
 3173      7369676E 
 3173      65642069 
 3173      6E7400
 3174              	.LASF36:
 3175 01de 55415254 		.ascii	"UART_2_ClearRxBuffer\000"
 3175      5F325F43 
 3175      6C656172 
 3175      52784275 
 3175      66666572 
 3176              	.LASF58:
 3177 01f3 74785F70 		.ascii	"tx_period\000"
 3177      6572696F 
 3177      6400
 3178              	.LASF25:
 3179 01fd 696E7453 		.ascii	"intSrc\000"
 3179      726300
 3180              	.LASF28:
 3181 0204 55415254 		.ascii	"UART_2_ReadRxStatus\000"
ARM GAS  C:\Users\Owner\AppData\Local\Temp\ccR6XCwT.s 			page 87


 3181      5F325F52 
 3181      65616452 
 3181      78537461 
 3181      74757300 
 3182              	.LASF57:
 3183 0218 746D7053 		.ascii	"tmpStat\000"
 3183      74617400 
 3184              	.LASF16:
 3185 0220 73697A65 		.ascii	"sizetype\000"
 3185      74797065 
 3185      00
 3186              	.LASF40:
 3187 0229 61646472 		.ascii	"address\000"
 3187      65737300 
 3188              	.LASF31:
 3189 0231 72785374 		.ascii	"rxStatus\000"
 3189      61747573 
 3189      00
 3190              	.LASF20:
 3191 023a 55415254 		.ascii	"UART_2_Stop\000"
 3191      5F325F53 
 3191      746F7000 
 3192              	.LASF59:
 3193 0246 55415254 		.ascii	"UART_2_SetTxAddressMode\000"
 3193      5F325F53 
 3193      65745478 
 3193      41646472 
 3193      6573734D 
 3194              	.LASF11:
 3195 025e 666C6F61 		.ascii	"float\000"
 3195      7400
 3196              	.LASF33:
 3197 0264 55415254 		.ascii	"UART_2_GetByte\000"
 3197      5F325F47 
 3197      65744279 
 3197      746500
 3198              	.LASF23:
 3199 0273 55415254 		.ascii	"UART_2_SetRxInterruptMode\000"
 3199      5F325F53 
 3199      65745278 
 3199      496E7465 
 3199      72727570 
 3200              	.LASF60:
 3201 028d 474E5520 		.ascii	"GNU C 4.7.3 20130312 (release) [ARM/embedded-4_7-br"
 3201      4320342E 
 3201      372E3320 
 3201      32303133 
 3201      30333132 
 3202 02c0 616E6368 		.ascii	"anch revision 196615]\000"
 3202      20726576 
 3202      6973696F 
 3202      6E203139 
 3202      36363135 
 3203              	.LASF15:
 3204 02d6 72656738 		.ascii	"reg8\000"
 3204      00
 3205              	.LASF1:
ARM GAS  C:\Users\Owner\AppData\Local\Temp\ccR6XCwT.s 			page 88


 3206 02db 756E7369 		.ascii	"unsigned char\000"
 3206      676E6564 
 3206      20636861 
 3206      7200
 3207              	.LASF2:
 3208 02e9 73686F72 		.ascii	"short int\000"
 3208      7420696E 
 3208      7400
 3209              	.LASF50:
 3210 02f3 55415254 		.ascii	"UART_2_PutArray\000"
 3210      5F325F50 
 3210      75744172 
 3210      72617900 
 3211              	.LASF51:
 3212 0303 62797465 		.ascii	"byteCount\000"
 3212      436F756E 
 3212      7400
 3213              	.LASF43:
 3214 030d 55415254 		.ascii	"UART_2_WriteTxData\000"
 3214      5F325F57 
 3214      72697465 
 3214      54784461 
 3214      746100
 3215              	.LASF26:
 3216 0320 72784461 		.ascii	"rxData\000"
 3216      746100
 3217              	.LASF17:
 3218 0327 55415254 		.ascii	"UART_2_Start\000"
 3218      5F325F53 
 3218      74617274 
 3218      00
 3219              	.LASF14:
 3220 0334 63686172 		.ascii	"char\000"
 3220      00
 3221              	.LASF37:
 3222 0339 55415254 		.ascii	"UART_2_SetRxAddressMode\000"
 3222      5F325F53 
 3222      65745278 
 3222      41646472 
 3222      6573734D 
 3223              	.LASF13:
 3224 0351 63686172 		.ascii	"char8\000"
 3224      3800
 3225              	.LASF54:
 3226 0357 55415254 		.ascii	"UART_2_ClearTxBuffer\000"
 3226      5F325F43 
 3226      6C656172 
 3226      54784275 
 3226      66666572 
 3227              	.LASF55:
 3228 036c 55415254 		.ascii	"UART_2_SendBreak\000"
 3228      5F325F53 
 3228      656E6442 
 3228      7265616B 
 3228      00
 3229              	.LASF63:
 3230 037d 55415254 		.ascii	"UART_2_initVar\000"
ARM GAS  C:\Users\Owner\AppData\Local\Temp\ccR6XCwT.s 			page 89


 3230      5F325F69 
 3230      6E697456 
 3230      617200
 3231              	.LASF32:
 3232 038c 55415254 		.ascii	"UART_2_ReadControlRegister\000"
 3232      5F325F52 
 3232      65616443 
 3232      6F6E7472 
 3232      6F6C5265 
 3233              	.LASF21:
 3234 03a7 656E6162 		.ascii	"enableInterrupts\000"
 3234      6C65496E 
 3234      74657272 
 3234      75707473 
 3234      00
 3235              	.LASF22:
 3236 03b8 55415254 		.ascii	"UART_2_WriteControlRegister\000"
 3236      5F325F57 
 3236      72697465 
 3236      436F6E74 
 3236      726F6C52 
 3237              	.LASF29:
 3238 03d4 73746174 		.ascii	"status\000"
 3238      757300
 3239              	.LASF42:
 3240 03db 55415254 		.ascii	"UART_2_SetTxInterruptMode\000"
 3240      5F325F53 
 3240      65745478 
 3240      496E7465 
 3240      72727570 
 3241              	.LASF49:
 3242 03f5 6275665F 		.ascii	"buf_index\000"
 3242      696E6465 
 3242      7800
 3243              	.LASF18:
 3244 03ff 55415254 		.ascii	"UART_2_Init\000"
 3244      5F325F49 
 3244      6E697400 
 3245              		.ident	"GCC: (GNU Tools for ARM Embedded Processors) 4.7.3 20130312 (release) [ARM/embedded-4_7-br
