ARM GAS  C:\Users\LOCALA~1\AppData\Local\Temp\cc30l4Zv.s 			page 1


   1              		.syntax unified
   2              		.cpu cortex-m3
   3              		.fpu softvfp
   4              		.eabi_attribute 20, 1
   5              		.eabi_attribute 21, 1
   6              		.eabi_attribute 23, 3
   7              		.eabi_attribute 24, 1
   8              		.eabi_attribute 25, 1
   9              		.eabi_attribute 26, 1
  10              		.eabi_attribute 30, 6
  11              		.eabi_attribute 34, 1
  12              		.eabi_attribute 18, 4
  13              		.thumb
  14              		.file	"UART_1.c"
  15              		.text
  16              	.Ltext0:
  17              		.cfi_sections	.debug_frame
  18              		.global	UART_1_initVar
  19              		.bss
  20              		.type	UART_1_initVar, %object
  21              		.size	UART_1_initVar, 1
  22              	UART_1_initVar:
  23 0000 00       		.space	1
  24              		.section	.text.UART_1_Start,"ax",%progbits
  25              		.align	2
  26              		.global	UART_1_Start
  27              		.thumb
  28              		.thumb_func
  29              		.type	UART_1_Start, %function
  30              	UART_1_Start:
  31              	.LFB0:
  32              		.file 1 "Generated_Source\\PSoC5\\UART_1.c"
   1:Generated_Source\PSoC5/UART_1.c **** /*******************************************************************************
   2:Generated_Source\PSoC5/UART_1.c **** * File Name: UART_1.c
   3:Generated_Source\PSoC5/UART_1.c **** * Version 2.30
   4:Generated_Source\PSoC5/UART_1.c **** *
   5:Generated_Source\PSoC5/UART_1.c **** * Description:
   6:Generated_Source\PSoC5/UART_1.c **** *  This file provides all API functionality of the UART component
   7:Generated_Source\PSoC5/UART_1.c **** *
   8:Generated_Source\PSoC5/UART_1.c **** * Note:
   9:Generated_Source\PSoC5/UART_1.c **** *
  10:Generated_Source\PSoC5/UART_1.c **** ********************************************************************************
  11:Generated_Source\PSoC5/UART_1.c **** * Copyright 2008-2012, Cypress Semiconductor Corporation.  All rights reserved.
  12:Generated_Source\PSoC5/UART_1.c **** * You may use this file only in accordance with the license, terms, conditions,
  13:Generated_Source\PSoC5/UART_1.c **** * disclaimers, and limitations in the end user license agreement accompanying
  14:Generated_Source\PSoC5/UART_1.c **** * the software package with which this file was provided.
  15:Generated_Source\PSoC5/UART_1.c **** *******************************************************************************/
  16:Generated_Source\PSoC5/UART_1.c **** 
  17:Generated_Source\PSoC5/UART_1.c **** #include "UART_1.h"
  18:Generated_Source\PSoC5/UART_1.c **** #include "CyLib.h"
  19:Generated_Source\PSoC5/UART_1.c **** #if(UART_1_INTERNAL_CLOCK_USED)
  20:Generated_Source\PSoC5/UART_1.c ****     #include "UART_1_IntClock.h"
  21:Generated_Source\PSoC5/UART_1.c **** #endif /* End UART_1_INTERNAL_CLOCK_USED */
  22:Generated_Source\PSoC5/UART_1.c **** 
  23:Generated_Source\PSoC5/UART_1.c **** 
  24:Generated_Source\PSoC5/UART_1.c **** /***************************************
  25:Generated_Source\PSoC5/UART_1.c **** * Global data allocation
ARM GAS  C:\Users\LOCALA~1\AppData\Local\Temp\cc30l4Zv.s 			page 2


  26:Generated_Source\PSoC5/UART_1.c **** ***************************************/
  27:Generated_Source\PSoC5/UART_1.c **** 
  28:Generated_Source\PSoC5/UART_1.c **** uint8 UART_1_initVar = 0u;
  29:Generated_Source\PSoC5/UART_1.c **** #if( UART_1_TX_ENABLED && (UART_1_TXBUFFERSIZE > UART_1_FIFO_LENGTH))
  30:Generated_Source\PSoC5/UART_1.c ****     volatile uint8 UART_1_txBuffer[UART_1_TXBUFFERSIZE];
  31:Generated_Source\PSoC5/UART_1.c ****     volatile uint8 UART_1_txBufferRead = 0u;
  32:Generated_Source\PSoC5/UART_1.c ****     uint8 UART_1_txBufferWrite = 0u;
  33:Generated_Source\PSoC5/UART_1.c **** #endif /* End UART_1_TX_ENABLED */
  34:Generated_Source\PSoC5/UART_1.c **** #if( ( UART_1_RX_ENABLED || UART_1_HD_ENABLED ) && \
  35:Generated_Source\PSoC5/UART_1.c ****      (UART_1_RXBUFFERSIZE > UART_1_FIFO_LENGTH) )
  36:Generated_Source\PSoC5/UART_1.c ****     volatile uint8 UART_1_rxBuffer[UART_1_RXBUFFERSIZE];
  37:Generated_Source\PSoC5/UART_1.c ****     volatile uint8 UART_1_rxBufferRead = 0u;
  38:Generated_Source\PSoC5/UART_1.c ****     volatile uint8 UART_1_rxBufferWrite = 0u;
  39:Generated_Source\PSoC5/UART_1.c ****     volatile uint8 UART_1_rxBufferLoopDetect = 0u;
  40:Generated_Source\PSoC5/UART_1.c ****     volatile uint8 UART_1_rxBufferOverflow = 0u;
  41:Generated_Source\PSoC5/UART_1.c ****     #if (UART_1_RXHW_ADDRESS_ENABLED)
  42:Generated_Source\PSoC5/UART_1.c ****         volatile uint8 UART_1_rxAddressMode = UART_1_RXADDRESSMODE;
  43:Generated_Source\PSoC5/UART_1.c ****         volatile uint8 UART_1_rxAddressDetected = 0u;
  44:Generated_Source\PSoC5/UART_1.c ****     #endif /* End EnableHWAddress */
  45:Generated_Source\PSoC5/UART_1.c **** #endif /* End UART_1_RX_ENABLED */
  46:Generated_Source\PSoC5/UART_1.c **** 
  47:Generated_Source\PSoC5/UART_1.c **** 
  48:Generated_Source\PSoC5/UART_1.c **** /*******************************************************************************
  49:Generated_Source\PSoC5/UART_1.c **** * Function Name: UART_1_Start
  50:Generated_Source\PSoC5/UART_1.c **** ********************************************************************************
  51:Generated_Source\PSoC5/UART_1.c **** *
  52:Generated_Source\PSoC5/UART_1.c **** * Summary:
  53:Generated_Source\PSoC5/UART_1.c **** *  Initialize and Enable the UART component.
  54:Generated_Source\PSoC5/UART_1.c **** *  Enable the clock input to enable operation.
  55:Generated_Source\PSoC5/UART_1.c **** *
  56:Generated_Source\PSoC5/UART_1.c **** * Parameters:
  57:Generated_Source\PSoC5/UART_1.c **** *  None.
  58:Generated_Source\PSoC5/UART_1.c **** *
  59:Generated_Source\PSoC5/UART_1.c **** * Return:
  60:Generated_Source\PSoC5/UART_1.c **** *  None.
  61:Generated_Source\PSoC5/UART_1.c **** *
  62:Generated_Source\PSoC5/UART_1.c **** * Global variables:
  63:Generated_Source\PSoC5/UART_1.c **** *  The UART_1_intiVar variable is used to indicate initial
  64:Generated_Source\PSoC5/UART_1.c **** *  configuration of this component. The variable is initialized to zero (0u)
  65:Generated_Source\PSoC5/UART_1.c **** *  and set to one (1u) the first time UART_Start() is called. This allows for
  66:Generated_Source\PSoC5/UART_1.c **** *  component initialization without re-initialization in all subsequent calls
  67:Generated_Source\PSoC5/UART_1.c **** *  to the UART_1_Start() routine.
  68:Generated_Source\PSoC5/UART_1.c **** *
  69:Generated_Source\PSoC5/UART_1.c **** * Reentrant:
  70:Generated_Source\PSoC5/UART_1.c **** *  No.
  71:Generated_Source\PSoC5/UART_1.c **** *
  72:Generated_Source\PSoC5/UART_1.c **** *******************************************************************************/
  73:Generated_Source\PSoC5/UART_1.c **** void UART_1_Start(void) 
  74:Generated_Source\PSoC5/UART_1.c **** {
  33              		.loc 1 74 0
  34              		.cfi_startproc
  35              		@ args = 0, pretend = 0, frame = 0
  36              		@ frame_needed = 1, uses_anonymous_args = 0
  37 0000 80B5     		push	{r7, lr}
  38              		.cfi_def_cfa_offset 8
  39              		.cfi_offset 7, -8
  40              		.cfi_offset 14, -4
ARM GAS  C:\Users\LOCALA~1\AppData\Local\Temp\cc30l4Zv.s 			page 3


  41 0002 00AF     		add	r7, sp, #0
  42              		.cfi_def_cfa_register 7
  75:Generated_Source\PSoC5/UART_1.c ****     /* If not Initialized then initialize all required hardware and software */
  76:Generated_Source\PSoC5/UART_1.c ****     if(UART_1_initVar == 0u)
  43              		.loc 1 76 0
  44 0004 054B     		ldr	r3, .L3
  45 0006 1B78     		ldrb	r3, [r3]	@ zero_extendqisi2
  46 0008 002B     		cmp	r3, #0
  47 000a 04D1     		bne	.L2
  77:Generated_Source\PSoC5/UART_1.c ****     {
  78:Generated_Source\PSoC5/UART_1.c ****         UART_1_Init();
  48              		.loc 1 78 0
  49 000c FFF7FEFF 		bl	UART_1_Init
  79:Generated_Source\PSoC5/UART_1.c ****         UART_1_initVar = 1u;
  50              		.loc 1 79 0
  51 0010 024B     		ldr	r3, .L3
  52 0012 0122     		movs	r2, #1
  53 0014 1A70     		strb	r2, [r3]
  54              	.L2:
  80:Generated_Source\PSoC5/UART_1.c ****     }
  81:Generated_Source\PSoC5/UART_1.c ****     UART_1_Enable();
  55              		.loc 1 81 0
  56 0016 FFF7FEFF 		bl	UART_1_Enable
  82:Generated_Source\PSoC5/UART_1.c **** }
  57              		.loc 1 82 0
  58 001a 80BD     		pop	{r7, pc}
  59              	.L4:
  60              		.align	2
  61              	.L3:
  62 001c 00000000 		.word	UART_1_initVar
  63              		.cfi_endproc
  64              	.LFE0:
  65              		.size	UART_1_Start, .-UART_1_Start
  66              		.section	.text.UART_1_Init,"ax",%progbits
  67              		.align	2
  68              		.global	UART_1_Init
  69              		.thumb
  70              		.thumb_func
  71              		.type	UART_1_Init, %function
  72              	UART_1_Init:
  73              	.LFB1:
  83:Generated_Source\PSoC5/UART_1.c **** 
  84:Generated_Source\PSoC5/UART_1.c **** 
  85:Generated_Source\PSoC5/UART_1.c **** /*******************************************************************************
  86:Generated_Source\PSoC5/UART_1.c **** * Function Name: UART_1_Init
  87:Generated_Source\PSoC5/UART_1.c **** ********************************************************************************
  88:Generated_Source\PSoC5/UART_1.c **** *
  89:Generated_Source\PSoC5/UART_1.c **** * Summary:
  90:Generated_Source\PSoC5/UART_1.c **** *  Initialize component's parameters to the parameters set by user in the
  91:Generated_Source\PSoC5/UART_1.c **** *  customizer of the component placed onto schematic. Usually called in
  92:Generated_Source\PSoC5/UART_1.c **** *  UART_1_Start().
  93:Generated_Source\PSoC5/UART_1.c **** *
  94:Generated_Source\PSoC5/UART_1.c **** * Parameters:
  95:Generated_Source\PSoC5/UART_1.c **** *  None.
  96:Generated_Source\PSoC5/UART_1.c **** *
  97:Generated_Source\PSoC5/UART_1.c **** * Return:
  98:Generated_Source\PSoC5/UART_1.c **** *  None.
ARM GAS  C:\Users\LOCALA~1\AppData\Local\Temp\cc30l4Zv.s 			page 4


  99:Generated_Source\PSoC5/UART_1.c **** *
 100:Generated_Source\PSoC5/UART_1.c **** *******************************************************************************/
 101:Generated_Source\PSoC5/UART_1.c **** void UART_1_Init(void) 
 102:Generated_Source\PSoC5/UART_1.c **** {
  74              		.loc 1 102 0
  75              		.cfi_startproc
  76              		@ args = 0, pretend = 0, frame = 0
  77              		@ frame_needed = 1, uses_anonymous_args = 0
  78              		@ link register save eliminated.
  79 0000 80B4     		push	{r7}
  80              		.cfi_def_cfa_offset 4
  81              		.cfi_offset 7, -4
  82 0002 00AF     		add	r7, sp, #0
  83              		.cfi_def_cfa_register 7
 103:Generated_Source\PSoC5/UART_1.c ****     #if(UART_1_RX_ENABLED || UART_1_HD_ENABLED)
 104:Generated_Source\PSoC5/UART_1.c **** 
 105:Generated_Source\PSoC5/UART_1.c ****         #if(UART_1_RX_INTERRUPT_ENABLED && (UART_1_RXBUFFERSIZE > UART_1_FIFO_LENGTH))
 106:Generated_Source\PSoC5/UART_1.c ****             /* Set the RX Interrupt. */
 107:Generated_Source\PSoC5/UART_1.c ****             (void)CyIntSetVector(UART_1_RX_VECT_NUM, &UART_1_RXISR);
 108:Generated_Source\PSoC5/UART_1.c ****             CyIntSetPriority(UART_1_RX_VECT_NUM, UART_1_RX_PRIOR_NUM);
 109:Generated_Source\PSoC5/UART_1.c ****         #endif /* End UART_1_RX_INTERRUPT_ENABLED */
 110:Generated_Source\PSoC5/UART_1.c **** 
 111:Generated_Source\PSoC5/UART_1.c ****         #if (UART_1_RXHW_ADDRESS_ENABLED)
 112:Generated_Source\PSoC5/UART_1.c ****             UART_1_SetRxAddressMode(UART_1_RXAddressMode);
 113:Generated_Source\PSoC5/UART_1.c ****             UART_1_SetRxAddress1(UART_1_RXHWADDRESS1);
 114:Generated_Source\PSoC5/UART_1.c ****             UART_1_SetRxAddress2(UART_1_RXHWADDRESS2);
 115:Generated_Source\PSoC5/UART_1.c ****         #endif /* End UART_1_RXHW_ADDRESS_ENABLED */
 116:Generated_Source\PSoC5/UART_1.c **** 
 117:Generated_Source\PSoC5/UART_1.c ****         /* Init Count7 period */
 118:Generated_Source\PSoC5/UART_1.c ****         UART_1_RXBITCTR_PERIOD_REG = UART_1_RXBITCTR_INIT;
  84              		.loc 1 118 0
  85 0004 094B     		ldr	r3, .L6
  86 0006 7222     		movs	r2, #114
  87 0008 1A70     		strb	r2, [r3]
 119:Generated_Source\PSoC5/UART_1.c ****         /* Configure the Initial RX interrupt mask */
 120:Generated_Source\PSoC5/UART_1.c ****         UART_1_RXSTATUS_MASK_REG  = UART_1_INIT_RX_INTERRUPTS_MASK;
  88              		.loc 1 120 0
  89 000a 094B     		ldr	r3, .L6+4
  90 000c 2022     		movs	r2, #32
  91 000e 1A70     		strb	r2, [r3]
 121:Generated_Source\PSoC5/UART_1.c ****     #endif /* End UART_1_RX_ENABLED || UART_1_HD_ENABLED*/
 122:Generated_Source\PSoC5/UART_1.c **** 
 123:Generated_Source\PSoC5/UART_1.c ****     #if(UART_1_TX_ENABLED)
 124:Generated_Source\PSoC5/UART_1.c ****         #if(UART_1_TX_INTERRUPT_ENABLED && (UART_1_TXBUFFERSIZE > UART_1_FIFO_LENGTH))
 125:Generated_Source\PSoC5/UART_1.c ****             /* Set the TX Interrupt. */
 126:Generated_Source\PSoC5/UART_1.c ****             (void)CyIntSetVector(UART_1_TX_VECT_NUM, &UART_1_TXISR);
 127:Generated_Source\PSoC5/UART_1.c ****             CyIntSetPriority(UART_1_TX_VECT_NUM, UART_1_TX_PRIOR_NUM);
 128:Generated_Source\PSoC5/UART_1.c ****         #endif /* End UART_1_TX_INTERRUPT_ENABLED */
 129:Generated_Source\PSoC5/UART_1.c **** 
 130:Generated_Source\PSoC5/UART_1.c ****         /* Write Counter Value for TX Bit Clk Generator*/
 131:Generated_Source\PSoC5/UART_1.c ****         #if(UART_1_TXCLKGEN_DP)
 132:Generated_Source\PSoC5/UART_1.c ****             UART_1_TXBITCLKGEN_CTR_REG = UART_1_BIT_CENTER;
  92              		.loc 1 132 0
  93 0010 084B     		ldr	r3, .L6+8
  94 0012 0722     		movs	r2, #7
  95 0014 1A70     		strb	r2, [r3]
 133:Generated_Source\PSoC5/UART_1.c ****             UART_1_TXBITCLKTX_COMPLETE_REG = (UART_1_NUMBER_OF_DATA_BITS +
ARM GAS  C:\Users\LOCALA~1\AppData\Local\Temp\cc30l4Zv.s 			page 5


  96              		.loc 1 133 0
  97 0016 084B     		ldr	r3, .L6+12
  98 0018 4822     		movs	r2, #72
  99 001a 1A70     		strb	r2, [r3]
 134:Generated_Source\PSoC5/UART_1.c ****                         UART_1_NUMBER_OF_START_BIT) * UART_1_OVER_SAMPLE_COUNT;
 135:Generated_Source\PSoC5/UART_1.c ****         #else
 136:Generated_Source\PSoC5/UART_1.c ****             UART_1_TXBITCTR_PERIOD_REG = ((UART_1_NUMBER_OF_DATA_BITS +
 137:Generated_Source\PSoC5/UART_1.c ****                         UART_1_NUMBER_OF_START_BIT) * UART_1_OVER_SAMPLE_8) - 1u;
 138:Generated_Source\PSoC5/UART_1.c ****         #endif /* End UART_1_TXCLKGEN_DP */
 139:Generated_Source\PSoC5/UART_1.c **** 
 140:Generated_Source\PSoC5/UART_1.c ****         /* Configure the Initial TX interrupt mask */
 141:Generated_Source\PSoC5/UART_1.c ****         #if(UART_1_TX_INTERRUPT_ENABLED && (UART_1_TXBUFFERSIZE > UART_1_FIFO_LENGTH))
 142:Generated_Source\PSoC5/UART_1.c ****             UART_1_TXSTATUS_MASK_REG = UART_1_TX_STS_FIFO_EMPTY;
 143:Generated_Source\PSoC5/UART_1.c ****         #else
 144:Generated_Source\PSoC5/UART_1.c ****             UART_1_TXSTATUS_MASK_REG = UART_1_INIT_TX_INTERRUPTS_MASK;
 100              		.loc 1 144 0
 101 001c 074B     		ldr	r3, .L6+16
 102 001e 0022     		movs	r2, #0
 103 0020 1A70     		strb	r2, [r3]
 145:Generated_Source\PSoC5/UART_1.c ****         #endif /*End UART_1_TX_INTERRUPT_ENABLED*/
 146:Generated_Source\PSoC5/UART_1.c **** 
 147:Generated_Source\PSoC5/UART_1.c ****     #endif /* End UART_1_TX_ENABLED */
 148:Generated_Source\PSoC5/UART_1.c **** 
 149:Generated_Source\PSoC5/UART_1.c ****     #if(UART_1_PARITY_TYPE_SW)  /* Write Parity to Control Register */
 150:Generated_Source\PSoC5/UART_1.c ****         UART_1_WriteControlRegister( \
 151:Generated_Source\PSoC5/UART_1.c ****             (UART_1_ReadControlRegister() & (uint8)~UART_1_CTRL_PARITY_TYPE_MASK) | \
 152:Generated_Source\PSoC5/UART_1.c ****             (uint8)(UART_1_PARITY_TYPE << UART_1_CTRL_PARITY_TYPE0_SHIFT) );
 153:Generated_Source\PSoC5/UART_1.c ****     #endif /* End UART_1_PARITY_TYPE_SW */
 154:Generated_Source\PSoC5/UART_1.c **** }
 104              		.loc 1 154 0
 105 0022 BD46     		mov	sp, r7
 106              		.cfi_def_cfa_register 13
 107              		@ sp needed
 108 0024 5DF8047B 		ldr	r7, [sp], #4
 109              		.cfi_restore 7
 110              		.cfi_def_cfa_offset 0
 111 0028 7047     		bx	lr
 112              	.L7:
 113 002a 00BF     		.align	2
 114              	.L6:
 115 002c 8C640040 		.word	1073767564
 116 0030 8B640040 		.word	1073767563
 117 0034 2A640040 		.word	1073767466
 118 0038 3A640040 		.word	1073767482
 119 003c 89640040 		.word	1073767561
 120              		.cfi_endproc
 121              	.LFE1:
 122              		.size	UART_1_Init, .-UART_1_Init
 123              		.section	.text.UART_1_Enable,"ax",%progbits
 124              		.align	2
 125              		.global	UART_1_Enable
 126              		.thumb
 127              		.thumb_func
 128              		.type	UART_1_Enable, %function
 129              	UART_1_Enable:
 130              	.LFB2:
 155:Generated_Source\PSoC5/UART_1.c **** 
ARM GAS  C:\Users\LOCALA~1\AppData\Local\Temp\cc30l4Zv.s 			page 6


 156:Generated_Source\PSoC5/UART_1.c **** 
 157:Generated_Source\PSoC5/UART_1.c **** /*******************************************************************************
 158:Generated_Source\PSoC5/UART_1.c **** * Function Name: UART_1_Enable
 159:Generated_Source\PSoC5/UART_1.c **** ********************************************************************************
 160:Generated_Source\PSoC5/UART_1.c **** *
 161:Generated_Source\PSoC5/UART_1.c **** * Summary:
 162:Generated_Source\PSoC5/UART_1.c **** *  Enables the UART block operation
 163:Generated_Source\PSoC5/UART_1.c **** *
 164:Generated_Source\PSoC5/UART_1.c **** * Parameters:
 165:Generated_Source\PSoC5/UART_1.c **** *  None.
 166:Generated_Source\PSoC5/UART_1.c **** *
 167:Generated_Source\PSoC5/UART_1.c **** * Return:
 168:Generated_Source\PSoC5/UART_1.c **** *  None.
 169:Generated_Source\PSoC5/UART_1.c **** *
 170:Generated_Source\PSoC5/UART_1.c **** * Global Variables:
 171:Generated_Source\PSoC5/UART_1.c **** *  UART_1_rxAddressDetected - set to initial state (0).
 172:Generated_Source\PSoC5/UART_1.c **** *
 173:Generated_Source\PSoC5/UART_1.c **** *******************************************************************************/
 174:Generated_Source\PSoC5/UART_1.c **** void UART_1_Enable(void) 
 175:Generated_Source\PSoC5/UART_1.c **** {
 131              		.loc 1 175 0
 132              		.cfi_startproc
 133              		@ args = 0, pretend = 0, frame = 8
 134              		@ frame_needed = 1, uses_anonymous_args = 0
 135 0000 80B5     		push	{r7, lr}
 136              		.cfi_def_cfa_offset 8
 137              		.cfi_offset 7, -8
 138              		.cfi_offset 14, -4
 139 0002 82B0     		sub	sp, sp, #8
 140              		.cfi_def_cfa_offset 16
 141 0004 00AF     		add	r7, sp, #0
 142              		.cfi_def_cfa_register 7
 176:Generated_Source\PSoC5/UART_1.c ****     uint8 enableInterrupts;
 177:Generated_Source\PSoC5/UART_1.c ****     enableInterrupts = CyEnterCriticalSection();
 143              		.loc 1 177 0
 144 0006 FFF7FEFF 		bl	CyEnterCriticalSection
 145 000a 0346     		mov	r3, r0
 146 000c FB71     		strb	r3, [r7, #7]
 178:Generated_Source\PSoC5/UART_1.c **** 
 179:Generated_Source\PSoC5/UART_1.c ****     #if(UART_1_RX_ENABLED || UART_1_HD_ENABLED)
 180:Generated_Source\PSoC5/UART_1.c ****         /*RX Counter (Count7) Enable */
 181:Generated_Source\PSoC5/UART_1.c ****         UART_1_RXBITCTR_CONTROL_REG |= UART_1_CNTR_ENABLE;
 147              		.loc 1 181 0
 148 000e 104A     		ldr	r2, .L9
 149 0010 0F4B     		ldr	r3, .L9
 150 0012 1B78     		ldrb	r3, [r3]
 151 0014 DBB2     		uxtb	r3, r3
 152 0016 43F02003 		orr	r3, r3, #32
 153 001a DBB2     		uxtb	r3, r3
 154 001c 1370     		strb	r3, [r2]
 182:Generated_Source\PSoC5/UART_1.c ****         /* Enable the RX Interrupt. */
 183:Generated_Source\PSoC5/UART_1.c ****         UART_1_RXSTATUS_ACTL_REG  |= UART_1_INT_ENABLE;
 155              		.loc 1 183 0
 156 001e 0D4A     		ldr	r2, .L9+4
 157 0020 0C4B     		ldr	r3, .L9+4
 158 0022 1B78     		ldrb	r3, [r3]
 159 0024 DBB2     		uxtb	r3, r3
ARM GAS  C:\Users\LOCALA~1\AppData\Local\Temp\cc30l4Zv.s 			page 7


 160 0026 43F01003 		orr	r3, r3, #16
 161 002a DBB2     		uxtb	r3, r3
 162 002c 1370     		strb	r3, [r2]
 184:Generated_Source\PSoC5/UART_1.c ****         #if(UART_1_RX_INTERRUPT_ENABLED && (UART_1_RXBUFFERSIZE > UART_1_FIFO_LENGTH))
 185:Generated_Source\PSoC5/UART_1.c ****             CyIntEnable(UART_1_RX_VECT_NUM);
 186:Generated_Source\PSoC5/UART_1.c ****             #if (UART_1_RXHW_ADDRESS_ENABLED)
 187:Generated_Source\PSoC5/UART_1.c ****                 UART_1_rxAddressDetected = 0u;
 188:Generated_Source\PSoC5/UART_1.c ****             #endif /* End UART_1_RXHW_ADDRESS_ENABLED */
 189:Generated_Source\PSoC5/UART_1.c ****         #endif /* End UART_1_RX_INTERRUPT_ENABLED */
 190:Generated_Source\PSoC5/UART_1.c ****     #endif /* End UART_1_RX_ENABLED || UART_1_HD_ENABLED*/
 191:Generated_Source\PSoC5/UART_1.c **** 
 192:Generated_Source\PSoC5/UART_1.c ****     #if(UART_1_TX_ENABLED)
 193:Generated_Source\PSoC5/UART_1.c ****         /*TX Counter (DP/Count7) Enable */
 194:Generated_Source\PSoC5/UART_1.c ****         #if(!UART_1_TXCLKGEN_DP)
 195:Generated_Source\PSoC5/UART_1.c ****             UART_1_TXBITCTR_CONTROL_REG |= UART_1_CNTR_ENABLE;
 196:Generated_Source\PSoC5/UART_1.c ****         #endif /* End UART_1_TXCLKGEN_DP */
 197:Generated_Source\PSoC5/UART_1.c ****         /* Enable the TX Interrupt. */
 198:Generated_Source\PSoC5/UART_1.c ****         UART_1_TXSTATUS_ACTL_REG |= UART_1_INT_ENABLE;
 163              		.loc 1 198 0
 164 002e 0A4A     		ldr	r2, .L9+8
 165 0030 094B     		ldr	r3, .L9+8
 166 0032 1B78     		ldrb	r3, [r3]
 167 0034 DBB2     		uxtb	r3, r3
 168 0036 43F01003 		orr	r3, r3, #16
 169 003a DBB2     		uxtb	r3, r3
 170 003c 1370     		strb	r3, [r2]
 199:Generated_Source\PSoC5/UART_1.c ****         #if(UART_1_TX_INTERRUPT_ENABLED && (UART_1_TXBUFFERSIZE > UART_1_FIFO_LENGTH))
 200:Generated_Source\PSoC5/UART_1.c ****             CyIntEnable(UART_1_TX_VECT_NUM);
 201:Generated_Source\PSoC5/UART_1.c ****         #endif /* End UART_1_TX_INTERRUPT_ENABLED*/
 202:Generated_Source\PSoC5/UART_1.c ****      #endif /* End UART_1_TX_ENABLED */
 203:Generated_Source\PSoC5/UART_1.c **** 
 204:Generated_Source\PSoC5/UART_1.c ****     #if(UART_1_INTERNAL_CLOCK_USED)
 205:Generated_Source\PSoC5/UART_1.c ****         /* Enable the clock. */
 206:Generated_Source\PSoC5/UART_1.c ****         UART_1_IntClock_Start();
 171              		.loc 1 206 0
 172 003e FFF7FEFF 		bl	UART_1_IntClock_Start
 207:Generated_Source\PSoC5/UART_1.c ****     #endif /* End UART_1_INTERNAL_CLOCK_USED */
 208:Generated_Source\PSoC5/UART_1.c **** 
 209:Generated_Source\PSoC5/UART_1.c ****     CyExitCriticalSection(enableInterrupts);
 173              		.loc 1 209 0
 174 0042 FB79     		ldrb	r3, [r7, #7]	@ zero_extendqisi2
 175 0044 1846     		mov	r0, r3
 176 0046 FFF7FEFF 		bl	CyExitCriticalSection
 210:Generated_Source\PSoC5/UART_1.c **** }
 177              		.loc 1 210 0
 178 004a 0837     		adds	r7, r7, #8
 179              		.cfi_def_cfa_offset 8
 180 004c BD46     		mov	sp, r7
 181              		.cfi_def_cfa_register 13
 182              		@ sp needed
 183 004e 80BD     		pop	{r7, pc}
 184              	.L10:
 185              		.align	2
 186              	.L9:
 187 0050 9C640040 		.word	1073767580
 188 0054 9B640040 		.word	1073767579
 189 0058 99640040 		.word	1073767577
ARM GAS  C:\Users\LOCALA~1\AppData\Local\Temp\cc30l4Zv.s 			page 8


 190              		.cfi_endproc
 191              	.LFE2:
 192              		.size	UART_1_Enable, .-UART_1_Enable
 193              		.section	.text.UART_1_Stop,"ax",%progbits
 194              		.align	2
 195              		.global	UART_1_Stop
 196              		.thumb
 197              		.thumb_func
 198              		.type	UART_1_Stop, %function
 199              	UART_1_Stop:
 200              	.LFB3:
 211:Generated_Source\PSoC5/UART_1.c **** 
 212:Generated_Source\PSoC5/UART_1.c **** 
 213:Generated_Source\PSoC5/UART_1.c **** /*******************************************************************************
 214:Generated_Source\PSoC5/UART_1.c **** * Function Name: UART_1_Stop
 215:Generated_Source\PSoC5/UART_1.c **** ********************************************************************************
 216:Generated_Source\PSoC5/UART_1.c **** *
 217:Generated_Source\PSoC5/UART_1.c **** * Summary:
 218:Generated_Source\PSoC5/UART_1.c **** *  Disable the UART component
 219:Generated_Source\PSoC5/UART_1.c **** *
 220:Generated_Source\PSoC5/UART_1.c **** * Parameters:
 221:Generated_Source\PSoC5/UART_1.c **** *  None.
 222:Generated_Source\PSoC5/UART_1.c **** *
 223:Generated_Source\PSoC5/UART_1.c **** * Return:
 224:Generated_Source\PSoC5/UART_1.c **** *  None.
 225:Generated_Source\PSoC5/UART_1.c **** *
 226:Generated_Source\PSoC5/UART_1.c **** *******************************************************************************/
 227:Generated_Source\PSoC5/UART_1.c **** void UART_1_Stop(void) 
 228:Generated_Source\PSoC5/UART_1.c **** {
 201              		.loc 1 228 0
 202              		.cfi_startproc
 203              		@ args = 0, pretend = 0, frame = 8
 204              		@ frame_needed = 1, uses_anonymous_args = 0
 205 0000 80B5     		push	{r7, lr}
 206              		.cfi_def_cfa_offset 8
 207              		.cfi_offset 7, -8
 208              		.cfi_offset 14, -4
 209 0002 82B0     		sub	sp, sp, #8
 210              		.cfi_def_cfa_offset 16
 211 0004 00AF     		add	r7, sp, #0
 212              		.cfi_def_cfa_register 7
 229:Generated_Source\PSoC5/UART_1.c ****     uint8 enableInterrupts;
 230:Generated_Source\PSoC5/UART_1.c ****     enableInterrupts = CyEnterCriticalSection();
 213              		.loc 1 230 0
 214 0006 FFF7FEFF 		bl	CyEnterCriticalSection
 215 000a 0346     		mov	r3, r0
 216 000c FB71     		strb	r3, [r7, #7]
 231:Generated_Source\PSoC5/UART_1.c **** 
 232:Generated_Source\PSoC5/UART_1.c ****     /* Write Bit Counter Disable */
 233:Generated_Source\PSoC5/UART_1.c ****     #if(UART_1_RX_ENABLED || UART_1_HD_ENABLED)
 234:Generated_Source\PSoC5/UART_1.c ****         UART_1_RXBITCTR_CONTROL_REG &= (uint8)~UART_1_CNTR_ENABLE;
 217              		.loc 1 234 0
 218 000e 104A     		ldr	r2, .L12
 219 0010 0F4B     		ldr	r3, .L12
 220 0012 1B78     		ldrb	r3, [r3]
 221 0014 DBB2     		uxtb	r3, r3
 222 0016 23F02003 		bic	r3, r3, #32
ARM GAS  C:\Users\LOCALA~1\AppData\Local\Temp\cc30l4Zv.s 			page 9


 223 001a DBB2     		uxtb	r3, r3
 224 001c 1370     		strb	r3, [r2]
 235:Generated_Source\PSoC5/UART_1.c ****     #endif /* End UART_1_RX_ENABLED */
 236:Generated_Source\PSoC5/UART_1.c **** 
 237:Generated_Source\PSoC5/UART_1.c ****     #if(UART_1_TX_ENABLED)
 238:Generated_Source\PSoC5/UART_1.c ****         #if(!UART_1_TXCLKGEN_DP)
 239:Generated_Source\PSoC5/UART_1.c ****             UART_1_TXBITCTR_CONTROL_REG &= (uint8)~UART_1_CNTR_ENABLE;
 240:Generated_Source\PSoC5/UART_1.c ****         #endif /* End UART_1_TXCLKGEN_DP */
 241:Generated_Source\PSoC5/UART_1.c ****     #endif /* UART_1_TX_ENABLED */
 242:Generated_Source\PSoC5/UART_1.c **** 
 243:Generated_Source\PSoC5/UART_1.c ****     #if(UART_1_INTERNAL_CLOCK_USED)
 244:Generated_Source\PSoC5/UART_1.c ****         /* Disable the clock. */
 245:Generated_Source\PSoC5/UART_1.c ****         UART_1_IntClock_Stop();
 225              		.loc 1 245 0
 226 001e FFF7FEFF 		bl	UART_1_IntClock_Stop
 246:Generated_Source\PSoC5/UART_1.c ****     #endif /* End UART_1_INTERNAL_CLOCK_USED */
 247:Generated_Source\PSoC5/UART_1.c **** 
 248:Generated_Source\PSoC5/UART_1.c ****     /* Disable internal interrupt component */
 249:Generated_Source\PSoC5/UART_1.c ****     #if(UART_1_RX_ENABLED || UART_1_HD_ENABLED)
 250:Generated_Source\PSoC5/UART_1.c ****         UART_1_RXSTATUS_ACTL_REG  &= (uint8)~UART_1_INT_ENABLE;
 227              		.loc 1 250 0
 228 0022 0C4A     		ldr	r2, .L12+4
 229 0024 0B4B     		ldr	r3, .L12+4
 230 0026 1B78     		ldrb	r3, [r3]
 231 0028 DBB2     		uxtb	r3, r3
 232 002a 23F01003 		bic	r3, r3, #16
 233 002e DBB2     		uxtb	r3, r3
 234 0030 1370     		strb	r3, [r2]
 251:Generated_Source\PSoC5/UART_1.c ****         #if(UART_1_RX_INTERRUPT_ENABLED && (UART_1_RXBUFFERSIZE > UART_1_FIFO_LENGTH))
 252:Generated_Source\PSoC5/UART_1.c ****             UART_1_DisableRxInt();
 253:Generated_Source\PSoC5/UART_1.c ****         #endif /* End UART_1_RX_INTERRUPT_ENABLED */
 254:Generated_Source\PSoC5/UART_1.c ****     #endif /* End UART_1_RX_ENABLED */
 255:Generated_Source\PSoC5/UART_1.c **** 
 256:Generated_Source\PSoC5/UART_1.c ****     #if(UART_1_TX_ENABLED)
 257:Generated_Source\PSoC5/UART_1.c ****         UART_1_TXSTATUS_ACTL_REG &= (uint8)~UART_1_INT_ENABLE;
 235              		.loc 1 257 0
 236 0032 094A     		ldr	r2, .L12+8
 237 0034 084B     		ldr	r3, .L12+8
 238 0036 1B78     		ldrb	r3, [r3]
 239 0038 DBB2     		uxtb	r3, r3
 240 003a 23F01003 		bic	r3, r3, #16
 241 003e DBB2     		uxtb	r3, r3
 242 0040 1370     		strb	r3, [r2]
 258:Generated_Source\PSoC5/UART_1.c ****         #if(UART_1_TX_INTERRUPT_ENABLED && (UART_1_TXBUFFERSIZE > UART_1_FIFO_LENGTH))
 259:Generated_Source\PSoC5/UART_1.c ****             UART_1_DisableTxInt();
 260:Generated_Source\PSoC5/UART_1.c ****         #endif /* End UART_1_TX_INTERRUPT_ENABLED */
 261:Generated_Source\PSoC5/UART_1.c ****     #endif /* End UART_1_TX_ENABLED */
 262:Generated_Source\PSoC5/UART_1.c **** 
 263:Generated_Source\PSoC5/UART_1.c ****     CyExitCriticalSection(enableInterrupts);
 243              		.loc 1 263 0
 244 0042 FB79     		ldrb	r3, [r7, #7]	@ zero_extendqisi2
 245 0044 1846     		mov	r0, r3
 246 0046 FFF7FEFF 		bl	CyExitCriticalSection
 264:Generated_Source\PSoC5/UART_1.c **** }
 247              		.loc 1 264 0
 248 004a 0837     		adds	r7, r7, #8
 249              		.cfi_def_cfa_offset 8
ARM GAS  C:\Users\LOCALA~1\AppData\Local\Temp\cc30l4Zv.s 			page 10


 250 004c BD46     		mov	sp, r7
 251              		.cfi_def_cfa_register 13
 252              		@ sp needed
 253 004e 80BD     		pop	{r7, pc}
 254              	.L13:
 255              		.align	2
 256              	.L12:
 257 0050 9C640040 		.word	1073767580
 258 0054 9B640040 		.word	1073767579
 259 0058 99640040 		.word	1073767577
 260              		.cfi_endproc
 261              	.LFE3:
 262              		.size	UART_1_Stop, .-UART_1_Stop
 263              		.section	.text.UART_1_ReadControlRegister,"ax",%progbits
 264              		.align	2
 265              		.global	UART_1_ReadControlRegister
 266              		.thumb
 267              		.thumb_func
 268              		.type	UART_1_ReadControlRegister, %function
 269              	UART_1_ReadControlRegister:
 270              	.LFB4:
 265:Generated_Source\PSoC5/UART_1.c **** 
 266:Generated_Source\PSoC5/UART_1.c **** 
 267:Generated_Source\PSoC5/UART_1.c **** /*******************************************************************************
 268:Generated_Source\PSoC5/UART_1.c **** * Function Name: UART_1_ReadControlRegister
 269:Generated_Source\PSoC5/UART_1.c **** ********************************************************************************
 270:Generated_Source\PSoC5/UART_1.c **** *
 271:Generated_Source\PSoC5/UART_1.c **** * Summary:
 272:Generated_Source\PSoC5/UART_1.c **** *  Read the current state of the control register
 273:Generated_Source\PSoC5/UART_1.c **** *
 274:Generated_Source\PSoC5/UART_1.c **** * Parameters:
 275:Generated_Source\PSoC5/UART_1.c **** *  None.
 276:Generated_Source\PSoC5/UART_1.c **** *
 277:Generated_Source\PSoC5/UART_1.c **** * Return:
 278:Generated_Source\PSoC5/UART_1.c **** *  Current state of the control register.
 279:Generated_Source\PSoC5/UART_1.c **** *
 280:Generated_Source\PSoC5/UART_1.c **** *******************************************************************************/
 281:Generated_Source\PSoC5/UART_1.c **** uint8 UART_1_ReadControlRegister(void) 
 282:Generated_Source\PSoC5/UART_1.c **** {
 271              		.loc 1 282 0
 272              		.cfi_startproc
 273              		@ args = 0, pretend = 0, frame = 0
 274              		@ frame_needed = 1, uses_anonymous_args = 0
 275              		@ link register save eliminated.
 276 0000 80B4     		push	{r7}
 277              		.cfi_def_cfa_offset 4
 278              		.cfi_offset 7, -4
 279 0002 00AF     		add	r7, sp, #0
 280              		.cfi_def_cfa_register 7
 283:Generated_Source\PSoC5/UART_1.c ****     #if( UART_1_CONTROL_REG_REMOVED )
 284:Generated_Source\PSoC5/UART_1.c ****         return(0u);
 281              		.loc 1 284 0
 282 0004 0023     		movs	r3, #0
 285:Generated_Source\PSoC5/UART_1.c ****     #else
 286:Generated_Source\PSoC5/UART_1.c ****         return(UART_1_CONTROL_REG);
 287:Generated_Source\PSoC5/UART_1.c ****     #endif /* End UART_1_CONTROL_REG_REMOVED */
 288:Generated_Source\PSoC5/UART_1.c **** }
ARM GAS  C:\Users\LOCALA~1\AppData\Local\Temp\cc30l4Zv.s 			page 11


 283              		.loc 1 288 0
 284 0006 1846     		mov	r0, r3
 285 0008 BD46     		mov	sp, r7
 286              		.cfi_def_cfa_register 13
 287              		@ sp needed
 288 000a 5DF8047B 		ldr	r7, [sp], #4
 289              		.cfi_restore 7
 290              		.cfi_def_cfa_offset 0
 291 000e 7047     		bx	lr
 292              		.cfi_endproc
 293              	.LFE4:
 294              		.size	UART_1_ReadControlRegister, .-UART_1_ReadControlRegister
 295              		.section	.text.UART_1_WriteControlRegister,"ax",%progbits
 296              		.align	2
 297              		.global	UART_1_WriteControlRegister
 298              		.thumb
 299              		.thumb_func
 300              		.type	UART_1_WriteControlRegister, %function
 301              	UART_1_WriteControlRegister:
 302              	.LFB5:
 289:Generated_Source\PSoC5/UART_1.c **** 
 290:Generated_Source\PSoC5/UART_1.c **** 
 291:Generated_Source\PSoC5/UART_1.c **** /*******************************************************************************
 292:Generated_Source\PSoC5/UART_1.c **** * Function Name: UART_1_WriteControlRegister
 293:Generated_Source\PSoC5/UART_1.c **** ********************************************************************************
 294:Generated_Source\PSoC5/UART_1.c **** *
 295:Generated_Source\PSoC5/UART_1.c **** * Summary:
 296:Generated_Source\PSoC5/UART_1.c **** *  Writes an 8-bit value into the control register
 297:Generated_Source\PSoC5/UART_1.c **** *
 298:Generated_Source\PSoC5/UART_1.c **** * Parameters:
 299:Generated_Source\PSoC5/UART_1.c **** *  control:  control register value
 300:Generated_Source\PSoC5/UART_1.c **** *
 301:Generated_Source\PSoC5/UART_1.c **** * Return:
 302:Generated_Source\PSoC5/UART_1.c **** *  None.
 303:Generated_Source\PSoC5/UART_1.c **** *
 304:Generated_Source\PSoC5/UART_1.c **** *******************************************************************************/
 305:Generated_Source\PSoC5/UART_1.c **** void  UART_1_WriteControlRegister(uint8 control) 
 306:Generated_Source\PSoC5/UART_1.c **** {
 303              		.loc 1 306 0
 304              		.cfi_startproc
 305              		@ args = 0, pretend = 0, frame = 8
 306              		@ frame_needed = 1, uses_anonymous_args = 0
 307              		@ link register save eliminated.
 308 0000 80B4     		push	{r7}
 309              		.cfi_def_cfa_offset 4
 310              		.cfi_offset 7, -4
 311 0002 83B0     		sub	sp, sp, #12
 312              		.cfi_def_cfa_offset 16
 313 0004 00AF     		add	r7, sp, #0
 314              		.cfi_def_cfa_register 7
 315 0006 0346     		mov	r3, r0
 316 0008 FB71     		strb	r3, [r7, #7]
 307:Generated_Source\PSoC5/UART_1.c ****     #if( UART_1_CONTROL_REG_REMOVED )
 308:Generated_Source\PSoC5/UART_1.c ****         if(control != 0u) { }      /* release compiler warning */
 309:Generated_Source\PSoC5/UART_1.c ****     #else
 310:Generated_Source\PSoC5/UART_1.c ****        UART_1_CONTROL_REG = control;
 311:Generated_Source\PSoC5/UART_1.c ****     #endif /* End UART_1_CONTROL_REG_REMOVED */
ARM GAS  C:\Users\LOCALA~1\AppData\Local\Temp\cc30l4Zv.s 			page 12


 312:Generated_Source\PSoC5/UART_1.c **** }
 317              		.loc 1 312 0
 318 000a 0C37     		adds	r7, r7, #12
 319              		.cfi_def_cfa_offset 4
 320 000c BD46     		mov	sp, r7
 321              		.cfi_def_cfa_register 13
 322              		@ sp needed
 323 000e 5DF8047B 		ldr	r7, [sp], #4
 324              		.cfi_restore 7
 325              		.cfi_def_cfa_offset 0
 326 0012 7047     		bx	lr
 327              		.cfi_endproc
 328              	.LFE5:
 329              		.size	UART_1_WriteControlRegister, .-UART_1_WriteControlRegister
 330              		.section	.text.UART_1_SetRxInterruptMode,"ax",%progbits
 331              		.align	2
 332              		.global	UART_1_SetRxInterruptMode
 333              		.thumb
 334              		.thumb_func
 335              		.type	UART_1_SetRxInterruptMode, %function
 336              	UART_1_SetRxInterruptMode:
 337              	.LFB6:
 313:Generated_Source\PSoC5/UART_1.c **** 
 314:Generated_Source\PSoC5/UART_1.c **** 
 315:Generated_Source\PSoC5/UART_1.c **** #if(UART_1_RX_ENABLED || UART_1_HD_ENABLED)
 316:Generated_Source\PSoC5/UART_1.c **** 
 317:Generated_Source\PSoC5/UART_1.c ****     #if(UART_1_RX_INTERRUPT_ENABLED)
 318:Generated_Source\PSoC5/UART_1.c **** 
 319:Generated_Source\PSoC5/UART_1.c ****         /*******************************************************************************
 320:Generated_Source\PSoC5/UART_1.c ****         * Function Name: UART_1_EnableRxInt
 321:Generated_Source\PSoC5/UART_1.c ****         ********************************************************************************
 322:Generated_Source\PSoC5/UART_1.c ****         *
 323:Generated_Source\PSoC5/UART_1.c ****         * Summary:
 324:Generated_Source\PSoC5/UART_1.c ****         *  Enable RX interrupt generation
 325:Generated_Source\PSoC5/UART_1.c ****         *
 326:Generated_Source\PSoC5/UART_1.c ****         * Parameters:
 327:Generated_Source\PSoC5/UART_1.c ****         *  None.
 328:Generated_Source\PSoC5/UART_1.c ****         *
 329:Generated_Source\PSoC5/UART_1.c ****         * Return:
 330:Generated_Source\PSoC5/UART_1.c ****         *  None.
 331:Generated_Source\PSoC5/UART_1.c ****         *
 332:Generated_Source\PSoC5/UART_1.c ****         * Theory:
 333:Generated_Source\PSoC5/UART_1.c ****         *  Enable the interrupt output -or- the interrupt component itself
 334:Generated_Source\PSoC5/UART_1.c ****         *
 335:Generated_Source\PSoC5/UART_1.c ****         *******************************************************************************/
 336:Generated_Source\PSoC5/UART_1.c ****         void UART_1_EnableRxInt(void) 
 337:Generated_Source\PSoC5/UART_1.c ****         {
 338:Generated_Source\PSoC5/UART_1.c ****             CyIntEnable(UART_1_RX_VECT_NUM);
 339:Generated_Source\PSoC5/UART_1.c ****         }
 340:Generated_Source\PSoC5/UART_1.c **** 
 341:Generated_Source\PSoC5/UART_1.c **** 
 342:Generated_Source\PSoC5/UART_1.c ****         /*******************************************************************************
 343:Generated_Source\PSoC5/UART_1.c ****         * Function Name: UART_1_DisableRxInt
 344:Generated_Source\PSoC5/UART_1.c ****         ********************************************************************************
 345:Generated_Source\PSoC5/UART_1.c ****         *
 346:Generated_Source\PSoC5/UART_1.c ****         * Summary:
 347:Generated_Source\PSoC5/UART_1.c ****         *  Disable RX interrupt generation
ARM GAS  C:\Users\LOCALA~1\AppData\Local\Temp\cc30l4Zv.s 			page 13


 348:Generated_Source\PSoC5/UART_1.c ****         *
 349:Generated_Source\PSoC5/UART_1.c ****         * Parameters:
 350:Generated_Source\PSoC5/UART_1.c ****         *  None.
 351:Generated_Source\PSoC5/UART_1.c ****         *
 352:Generated_Source\PSoC5/UART_1.c ****         * Return:
 353:Generated_Source\PSoC5/UART_1.c ****         *  None.
 354:Generated_Source\PSoC5/UART_1.c ****         *
 355:Generated_Source\PSoC5/UART_1.c ****         * Theory:
 356:Generated_Source\PSoC5/UART_1.c ****         *  Disable the interrupt output -or- the interrupt component itself
 357:Generated_Source\PSoC5/UART_1.c ****         *
 358:Generated_Source\PSoC5/UART_1.c ****         *******************************************************************************/
 359:Generated_Source\PSoC5/UART_1.c ****         void UART_1_DisableRxInt(void) 
 360:Generated_Source\PSoC5/UART_1.c ****         {
 361:Generated_Source\PSoC5/UART_1.c ****             CyIntDisable(UART_1_RX_VECT_NUM);
 362:Generated_Source\PSoC5/UART_1.c ****         }
 363:Generated_Source\PSoC5/UART_1.c **** 
 364:Generated_Source\PSoC5/UART_1.c ****     #endif /* UART_1_RX_INTERRUPT_ENABLED */
 365:Generated_Source\PSoC5/UART_1.c **** 
 366:Generated_Source\PSoC5/UART_1.c **** 
 367:Generated_Source\PSoC5/UART_1.c ****     /*******************************************************************************
 368:Generated_Source\PSoC5/UART_1.c ****     * Function Name: UART_1_SetRxInterruptMode
 369:Generated_Source\PSoC5/UART_1.c ****     ********************************************************************************
 370:Generated_Source\PSoC5/UART_1.c ****     *
 371:Generated_Source\PSoC5/UART_1.c ****     * Summary:
 372:Generated_Source\PSoC5/UART_1.c ****     *  Configure which status bits trigger an interrupt event
 373:Generated_Source\PSoC5/UART_1.c ****     *
 374:Generated_Source\PSoC5/UART_1.c ****     * Parameters:
 375:Generated_Source\PSoC5/UART_1.c ****     *  IntSrc:  An or'd combination of the desired status bit masks (defined in
 376:Generated_Source\PSoC5/UART_1.c ****     *           the header file)
 377:Generated_Source\PSoC5/UART_1.c ****     *
 378:Generated_Source\PSoC5/UART_1.c ****     * Return:
 379:Generated_Source\PSoC5/UART_1.c ****     *  None.
 380:Generated_Source\PSoC5/UART_1.c ****     *
 381:Generated_Source\PSoC5/UART_1.c ****     * Theory:
 382:Generated_Source\PSoC5/UART_1.c ****     *  Enables the output of specific status bits to the interrupt controller
 383:Generated_Source\PSoC5/UART_1.c ****     *
 384:Generated_Source\PSoC5/UART_1.c ****     *******************************************************************************/
 385:Generated_Source\PSoC5/UART_1.c ****     void UART_1_SetRxInterruptMode(uint8 intSrc) 
 386:Generated_Source\PSoC5/UART_1.c ****     {
 338              		.loc 1 386 0
 339              		.cfi_startproc
 340              		@ args = 0, pretend = 0, frame = 8
 341              		@ frame_needed = 1, uses_anonymous_args = 0
 342              		@ link register save eliminated.
 343 0000 80B4     		push	{r7}
 344              		.cfi_def_cfa_offset 4
 345              		.cfi_offset 7, -4
 346 0002 83B0     		sub	sp, sp, #12
 347              		.cfi_def_cfa_offset 16
 348 0004 00AF     		add	r7, sp, #0
 349              		.cfi_def_cfa_register 7
 350 0006 0346     		mov	r3, r0
 351 0008 FB71     		strb	r3, [r7, #7]
 387:Generated_Source\PSoC5/UART_1.c ****         UART_1_RXSTATUS_MASK_REG  = intSrc;
 352              		.loc 1 387 0
 353 000a 044A     		ldr	r2, .L18
 354 000c FB79     		ldrb	r3, [r7, #7]
ARM GAS  C:\Users\LOCALA~1\AppData\Local\Temp\cc30l4Zv.s 			page 14


 355 000e 1370     		strb	r3, [r2]
 388:Generated_Source\PSoC5/UART_1.c ****     }
 356              		.loc 1 388 0
 357 0010 0C37     		adds	r7, r7, #12
 358              		.cfi_def_cfa_offset 4
 359 0012 BD46     		mov	sp, r7
 360              		.cfi_def_cfa_register 13
 361              		@ sp needed
 362 0014 5DF8047B 		ldr	r7, [sp], #4
 363              		.cfi_restore 7
 364              		.cfi_def_cfa_offset 0
 365 0018 7047     		bx	lr
 366              	.L19:
 367 001a 00BF     		.align	2
 368              	.L18:
 369 001c 8B640040 		.word	1073767563
 370              		.cfi_endproc
 371              	.LFE6:
 372              		.size	UART_1_SetRxInterruptMode, .-UART_1_SetRxInterruptMode
 373              		.section	.text.UART_1_ReadRxData,"ax",%progbits
 374              		.align	2
 375              		.global	UART_1_ReadRxData
 376              		.thumb
 377              		.thumb_func
 378              		.type	UART_1_ReadRxData, %function
 379              	UART_1_ReadRxData:
 380              	.LFB7:
 389:Generated_Source\PSoC5/UART_1.c **** 
 390:Generated_Source\PSoC5/UART_1.c **** 
 391:Generated_Source\PSoC5/UART_1.c ****     /*******************************************************************************
 392:Generated_Source\PSoC5/UART_1.c ****     * Function Name: UART_1_ReadRxData
 393:Generated_Source\PSoC5/UART_1.c ****     ********************************************************************************
 394:Generated_Source\PSoC5/UART_1.c ****     *
 395:Generated_Source\PSoC5/UART_1.c ****     * Summary:
 396:Generated_Source\PSoC5/UART_1.c ****     *  Returns data in RX Data register without checking status register to
 397:Generated_Source\PSoC5/UART_1.c ****     *  determine if data is valid
 398:Generated_Source\PSoC5/UART_1.c ****     *
 399:Generated_Source\PSoC5/UART_1.c ****     * Parameters:
 400:Generated_Source\PSoC5/UART_1.c ****     *  None.
 401:Generated_Source\PSoC5/UART_1.c ****     *
 402:Generated_Source\PSoC5/UART_1.c ****     * Return:
 403:Generated_Source\PSoC5/UART_1.c ****     *  Received data from RX register
 404:Generated_Source\PSoC5/UART_1.c ****     *
 405:Generated_Source\PSoC5/UART_1.c ****     * Global Variables:
 406:Generated_Source\PSoC5/UART_1.c ****     *  UART_1_rxBuffer - RAM buffer pointer for save received data.
 407:Generated_Source\PSoC5/UART_1.c ****     *  UART_1_rxBufferWrite - cyclic index for write to rxBuffer,
 408:Generated_Source\PSoC5/UART_1.c ****     *     checked to identify new data.
 409:Generated_Source\PSoC5/UART_1.c ****     *  UART_1_rxBufferRead - cyclic index for read from rxBuffer,
 410:Generated_Source\PSoC5/UART_1.c ****     *     incremented after each byte has been read from buffer.
 411:Generated_Source\PSoC5/UART_1.c ****     *  UART_1_rxBufferLoopDetect - creared if loop condition was detected
 412:Generated_Source\PSoC5/UART_1.c ****     *     in RX ISR.
 413:Generated_Source\PSoC5/UART_1.c ****     *
 414:Generated_Source\PSoC5/UART_1.c ****     * Reentrant:
 415:Generated_Source\PSoC5/UART_1.c ****     *  No.
 416:Generated_Source\PSoC5/UART_1.c ****     *
 417:Generated_Source\PSoC5/UART_1.c ****     *******************************************************************************/
 418:Generated_Source\PSoC5/UART_1.c ****     uint8 UART_1_ReadRxData(void) 
ARM GAS  C:\Users\LOCALA~1\AppData\Local\Temp\cc30l4Zv.s 			page 15


 419:Generated_Source\PSoC5/UART_1.c ****     {
 381              		.loc 1 419 0
 382              		.cfi_startproc
 383              		@ args = 0, pretend = 0, frame = 8
 384              		@ frame_needed = 1, uses_anonymous_args = 0
 385              		@ link register save eliminated.
 386 0000 80B4     		push	{r7}
 387              		.cfi_def_cfa_offset 4
 388              		.cfi_offset 7, -4
 389 0002 83B0     		sub	sp, sp, #12
 390              		.cfi_def_cfa_offset 16
 391 0004 00AF     		add	r7, sp, #0
 392              		.cfi_def_cfa_register 7
 420:Generated_Source\PSoC5/UART_1.c ****         uint8 rxData;
 421:Generated_Source\PSoC5/UART_1.c **** 
 422:Generated_Source\PSoC5/UART_1.c ****         #if(UART_1_RXBUFFERSIZE > UART_1_FIFO_LENGTH)
 423:Generated_Source\PSoC5/UART_1.c ****             uint8 loc_rxBufferRead;
 424:Generated_Source\PSoC5/UART_1.c ****             uint8 loc_rxBufferWrite;
 425:Generated_Source\PSoC5/UART_1.c ****             /* Protect variables that could change on interrupt. */
 426:Generated_Source\PSoC5/UART_1.c ****             /* Disable Rx interrupt. */
 427:Generated_Source\PSoC5/UART_1.c ****             #if(UART_1_RX_INTERRUPT_ENABLED)
 428:Generated_Source\PSoC5/UART_1.c ****                 UART_1_DisableRxInt();
 429:Generated_Source\PSoC5/UART_1.c ****             #endif /* UART_1_RX_INTERRUPT_ENABLED */
 430:Generated_Source\PSoC5/UART_1.c ****             loc_rxBufferRead = UART_1_rxBufferRead;
 431:Generated_Source\PSoC5/UART_1.c ****             loc_rxBufferWrite = UART_1_rxBufferWrite;
 432:Generated_Source\PSoC5/UART_1.c **** 
 433:Generated_Source\PSoC5/UART_1.c ****             if( (UART_1_rxBufferLoopDetect != 0u) || (loc_rxBufferRead != loc_rxBufferWrite) )
 434:Generated_Source\PSoC5/UART_1.c ****             {
 435:Generated_Source\PSoC5/UART_1.c ****                 rxData = UART_1_rxBuffer[loc_rxBufferRead];
 436:Generated_Source\PSoC5/UART_1.c ****                 loc_rxBufferRead++;
 437:Generated_Source\PSoC5/UART_1.c **** 
 438:Generated_Source\PSoC5/UART_1.c ****                 if(loc_rxBufferRead >= UART_1_RXBUFFERSIZE)
 439:Generated_Source\PSoC5/UART_1.c ****                 {
 440:Generated_Source\PSoC5/UART_1.c ****                     loc_rxBufferRead = 0u;
 441:Generated_Source\PSoC5/UART_1.c ****                 }
 442:Generated_Source\PSoC5/UART_1.c ****                 /* Update the real pointer */
 443:Generated_Source\PSoC5/UART_1.c ****                 UART_1_rxBufferRead = loc_rxBufferRead;
 444:Generated_Source\PSoC5/UART_1.c **** 
 445:Generated_Source\PSoC5/UART_1.c ****                 if(UART_1_rxBufferLoopDetect != 0u )
 446:Generated_Source\PSoC5/UART_1.c ****                 {
 447:Generated_Source\PSoC5/UART_1.c ****                     UART_1_rxBufferLoopDetect = 0u;
 448:Generated_Source\PSoC5/UART_1.c ****                     #if( (UART_1_RX_INTERRUPT_ENABLED) && (UART_1_FLOW_CONTROL != 0u) && \
 449:Generated_Source\PSoC5/UART_1.c ****                          (UART_1_RXBUFFERSIZE > UART_1_FIFO_LENGTH) )
 450:Generated_Source\PSoC5/UART_1.c ****                         /* When Hardware Flow Control selected - return RX mask */
 451:Generated_Source\PSoC5/UART_1.c ****                         #if( UART_1_HD_ENABLED )
 452:Generated_Source\PSoC5/UART_1.c ****                             if((UART_1_CONTROL_REG & UART_1_CTRL_HD_SEND) == 0u)
 453:Generated_Source\PSoC5/UART_1.c ****                             {   /* In Half duplex mode return RX mask only in RX
 454:Generated_Source\PSoC5/UART_1.c ****                                 *  configuration set, otherwise
 455:Generated_Source\PSoC5/UART_1.c ****                                 *  mask will be returned in LoadRxConfig() API.
 456:Generated_Source\PSoC5/UART_1.c ****                                 */
 457:Generated_Source\PSoC5/UART_1.c ****                                 UART_1_RXSTATUS_MASK_REG  |= UART_1_RX_STS_FIFO_NOTEMPTY;
 458:Generated_Source\PSoC5/UART_1.c ****                             }
 459:Generated_Source\PSoC5/UART_1.c ****                         #else
 460:Generated_Source\PSoC5/UART_1.c ****                             UART_1_RXSTATUS_MASK_REG  |= UART_1_RX_STS_FIFO_NOTEMPTY;
 461:Generated_Source\PSoC5/UART_1.c ****                         #endif /* end UART_1_HD_ENABLED */
 462:Generated_Source\PSoC5/UART_1.c ****                     #endif /* UART_1_RX_INTERRUPT_ENABLED and Hardware flow control*/
 463:Generated_Source\PSoC5/UART_1.c ****                 }
ARM GAS  C:\Users\LOCALA~1\AppData\Local\Temp\cc30l4Zv.s 			page 16


 464:Generated_Source\PSoC5/UART_1.c ****             }
 465:Generated_Source\PSoC5/UART_1.c ****             else
 466:Generated_Source\PSoC5/UART_1.c ****             {   /* Needs to check status for RX_STS_FIFO_NOTEMPTY bit*/
 467:Generated_Source\PSoC5/UART_1.c ****                 rxData = UART_1_RXDATA_REG;
 468:Generated_Source\PSoC5/UART_1.c ****             }
 469:Generated_Source\PSoC5/UART_1.c **** 
 470:Generated_Source\PSoC5/UART_1.c ****             /* Enable Rx interrupt. */
 471:Generated_Source\PSoC5/UART_1.c ****             #if(UART_1_RX_INTERRUPT_ENABLED)
 472:Generated_Source\PSoC5/UART_1.c ****                 UART_1_EnableRxInt();
 473:Generated_Source\PSoC5/UART_1.c ****             #endif /* End UART_1_RX_INTERRUPT_ENABLED */
 474:Generated_Source\PSoC5/UART_1.c **** 
 475:Generated_Source\PSoC5/UART_1.c ****         #else /* UART_1_RXBUFFERSIZE > UART_1_FIFO_LENGTH */
 476:Generated_Source\PSoC5/UART_1.c **** 
 477:Generated_Source\PSoC5/UART_1.c ****             /* Needs to check status for RX_STS_FIFO_NOTEMPTY bit*/
 478:Generated_Source\PSoC5/UART_1.c ****             rxData = UART_1_RXDATA_REG;
 393              		.loc 1 478 0
 394 0006 054B     		ldr	r3, .L22
 395 0008 1B78     		ldrb	r3, [r3]
 396 000a FB71     		strb	r3, [r7, #7]
 479:Generated_Source\PSoC5/UART_1.c **** 
 480:Generated_Source\PSoC5/UART_1.c ****         #endif /* UART_1_RXBUFFERSIZE > UART_1_FIFO_LENGTH */
 481:Generated_Source\PSoC5/UART_1.c **** 
 482:Generated_Source\PSoC5/UART_1.c ****         return(rxData);
 397              		.loc 1 482 0
 398 000c FB79     		ldrb	r3, [r7, #7]	@ zero_extendqisi2
 483:Generated_Source\PSoC5/UART_1.c ****     }
 399              		.loc 1 483 0
 400 000e 1846     		mov	r0, r3
 401 0010 0C37     		adds	r7, r7, #12
 402              		.cfi_def_cfa_offset 4
 403 0012 BD46     		mov	sp, r7
 404              		.cfi_def_cfa_register 13
 405              		@ sp needed
 406 0014 5DF8047B 		ldr	r7, [sp], #4
 407              		.cfi_restore 7
 408              		.cfi_def_cfa_offset 0
 409 0018 7047     		bx	lr
 410              	.L23:
 411 001a 00BF     		.align	2
 412              	.L22:
 413 001c 4B640040 		.word	1073767499
 414              		.cfi_endproc
 415              	.LFE7:
 416              		.size	UART_1_ReadRxData, .-UART_1_ReadRxData
 417              		.section	.text.UART_1_ReadRxStatus,"ax",%progbits
 418              		.align	2
 419              		.global	UART_1_ReadRxStatus
 420              		.thumb
 421              		.thumb_func
 422              		.type	UART_1_ReadRxStatus, %function
 423              	UART_1_ReadRxStatus:
 424              	.LFB8:
 484:Generated_Source\PSoC5/UART_1.c **** 
 485:Generated_Source\PSoC5/UART_1.c **** 
 486:Generated_Source\PSoC5/UART_1.c ****     /*******************************************************************************
 487:Generated_Source\PSoC5/UART_1.c ****     * Function Name: UART_1_ReadRxStatus
 488:Generated_Source\PSoC5/UART_1.c ****     ********************************************************************************
ARM GAS  C:\Users\LOCALA~1\AppData\Local\Temp\cc30l4Zv.s 			page 17


 489:Generated_Source\PSoC5/UART_1.c ****     *
 490:Generated_Source\PSoC5/UART_1.c ****     * Summary:
 491:Generated_Source\PSoC5/UART_1.c ****     *  Read the current state of the status register
 492:Generated_Source\PSoC5/UART_1.c ****     *  And detect software buffer overflow.
 493:Generated_Source\PSoC5/UART_1.c ****     *
 494:Generated_Source\PSoC5/UART_1.c ****     * Parameters:
 495:Generated_Source\PSoC5/UART_1.c ****     *  None.
 496:Generated_Source\PSoC5/UART_1.c ****     *
 497:Generated_Source\PSoC5/UART_1.c ****     * Return:
 498:Generated_Source\PSoC5/UART_1.c ****     *  Current state of the status register.
 499:Generated_Source\PSoC5/UART_1.c ****     *
 500:Generated_Source\PSoC5/UART_1.c ****     * Global Variables:
 501:Generated_Source\PSoC5/UART_1.c ****     *  UART_1_rxBufferOverflow - used to indicate overload condition.
 502:Generated_Source\PSoC5/UART_1.c ****     *   It set to one in RX interrupt when there isn?t free space in
 503:Generated_Source\PSoC5/UART_1.c ****     *   UART_1_rxBufferRead to write new data. This condition returned
 504:Generated_Source\PSoC5/UART_1.c ****     *   and cleared to zero by this API as an
 505:Generated_Source\PSoC5/UART_1.c ****     *   UART_1_RX_STS_SOFT_BUFF_OVER bit along with RX Status register
 506:Generated_Source\PSoC5/UART_1.c ****     *   bits.
 507:Generated_Source\PSoC5/UART_1.c ****     *
 508:Generated_Source\PSoC5/UART_1.c ****     *******************************************************************************/
 509:Generated_Source\PSoC5/UART_1.c ****     uint8 UART_1_ReadRxStatus(void) 
 510:Generated_Source\PSoC5/UART_1.c ****     {
 425              		.loc 1 510 0
 426              		.cfi_startproc
 427              		@ args = 0, pretend = 0, frame = 8
 428              		@ frame_needed = 1, uses_anonymous_args = 0
 429              		@ link register save eliminated.
 430 0000 80B4     		push	{r7}
 431              		.cfi_def_cfa_offset 4
 432              		.cfi_offset 7, -4
 433 0002 83B0     		sub	sp, sp, #12
 434              		.cfi_def_cfa_offset 16
 435 0004 00AF     		add	r7, sp, #0
 436              		.cfi_def_cfa_register 7
 511:Generated_Source\PSoC5/UART_1.c ****         uint8 status;
 512:Generated_Source\PSoC5/UART_1.c **** 
 513:Generated_Source\PSoC5/UART_1.c ****         status = UART_1_RXSTATUS_REG & UART_1_RX_HW_MASK;
 437              		.loc 1 513 0
 438 0006 064B     		ldr	r3, .L26
 439 0008 1B78     		ldrb	r3, [r3]
 440 000a DBB2     		uxtb	r3, r3
 441 000c 03F07F03 		and	r3, r3, #127
 442 0010 FB71     		strb	r3, [r7, #7]
 514:Generated_Source\PSoC5/UART_1.c **** 
 515:Generated_Source\PSoC5/UART_1.c ****         #if(UART_1_RXBUFFERSIZE > UART_1_FIFO_LENGTH)
 516:Generated_Source\PSoC5/UART_1.c ****             if( UART_1_rxBufferOverflow != 0u )
 517:Generated_Source\PSoC5/UART_1.c ****             {
 518:Generated_Source\PSoC5/UART_1.c ****                 status |= UART_1_RX_STS_SOFT_BUFF_OVER;
 519:Generated_Source\PSoC5/UART_1.c ****                 UART_1_rxBufferOverflow = 0u;
 520:Generated_Source\PSoC5/UART_1.c ****             }
 521:Generated_Source\PSoC5/UART_1.c ****         #endif /* UART_1_RXBUFFERSIZE */
 522:Generated_Source\PSoC5/UART_1.c **** 
 523:Generated_Source\PSoC5/UART_1.c ****         return(status);
 443              		.loc 1 523 0
 444 0012 FB79     		ldrb	r3, [r7, #7]	@ zero_extendqisi2
 524:Generated_Source\PSoC5/UART_1.c ****     }
 445              		.loc 1 524 0
ARM GAS  C:\Users\LOCALA~1\AppData\Local\Temp\cc30l4Zv.s 			page 18


 446 0014 1846     		mov	r0, r3
 447 0016 0C37     		adds	r7, r7, #12
 448              		.cfi_def_cfa_offset 4
 449 0018 BD46     		mov	sp, r7
 450              		.cfi_def_cfa_register 13
 451              		@ sp needed
 452 001a 5DF8047B 		ldr	r7, [sp], #4
 453              		.cfi_restore 7
 454              		.cfi_def_cfa_offset 0
 455 001e 7047     		bx	lr
 456              	.L27:
 457              		.align	2
 458              	.L26:
 459 0020 6B640040 		.word	1073767531
 460              		.cfi_endproc
 461              	.LFE8:
 462              		.size	UART_1_ReadRxStatus, .-UART_1_ReadRxStatus
 463              		.section	.text.UART_1_GetChar,"ax",%progbits
 464              		.align	2
 465              		.global	UART_1_GetChar
 466              		.thumb
 467              		.thumb_func
 468              		.type	UART_1_GetChar, %function
 469              	UART_1_GetChar:
 470              	.LFB9:
 525:Generated_Source\PSoC5/UART_1.c **** 
 526:Generated_Source\PSoC5/UART_1.c **** 
 527:Generated_Source\PSoC5/UART_1.c ****     /*******************************************************************************
 528:Generated_Source\PSoC5/UART_1.c ****     * Function Name: UART_1_GetChar
 529:Generated_Source\PSoC5/UART_1.c ****     ********************************************************************************
 530:Generated_Source\PSoC5/UART_1.c ****     *
 531:Generated_Source\PSoC5/UART_1.c ****     * Summary:
 532:Generated_Source\PSoC5/UART_1.c ****     *  Reads UART RX buffer immediately, if data is not available or an error
 533:Generated_Source\PSoC5/UART_1.c ****     *  condition exists, zero is returned; otherwise, character is read and
 534:Generated_Source\PSoC5/UART_1.c ****     *  returned.
 535:Generated_Source\PSoC5/UART_1.c ****     *
 536:Generated_Source\PSoC5/UART_1.c ****     * Parameters:
 537:Generated_Source\PSoC5/UART_1.c ****     *  None.
 538:Generated_Source\PSoC5/UART_1.c ****     *
 539:Generated_Source\PSoC5/UART_1.c ****     * Return:
 540:Generated_Source\PSoC5/UART_1.c ****     *  Character read from UART RX buffer. ASCII characters from 1 to 255 are valid.
 541:Generated_Source\PSoC5/UART_1.c ****     *  A returned zero signifies an error condition or no data available.
 542:Generated_Source\PSoC5/UART_1.c ****     *
 543:Generated_Source\PSoC5/UART_1.c ****     * Global Variables:
 544:Generated_Source\PSoC5/UART_1.c ****     *  UART_1_rxBuffer - RAM buffer pointer for save received data.
 545:Generated_Source\PSoC5/UART_1.c ****     *  UART_1_rxBufferWrite - cyclic index for write to rxBuffer,
 546:Generated_Source\PSoC5/UART_1.c ****     *     checked to identify new data.
 547:Generated_Source\PSoC5/UART_1.c ****     *  UART_1_rxBufferRead - cyclic index for read from rxBuffer,
 548:Generated_Source\PSoC5/UART_1.c ****     *     incremented after each byte has been read from buffer.
 549:Generated_Source\PSoC5/UART_1.c ****     *  UART_1_rxBufferLoopDetect - creared if loop condition was detected
 550:Generated_Source\PSoC5/UART_1.c ****     *     in RX ISR.
 551:Generated_Source\PSoC5/UART_1.c ****     *
 552:Generated_Source\PSoC5/UART_1.c ****     * Reentrant:
 553:Generated_Source\PSoC5/UART_1.c ****     *  No.
 554:Generated_Source\PSoC5/UART_1.c ****     *
 555:Generated_Source\PSoC5/UART_1.c ****     *******************************************************************************/
 556:Generated_Source\PSoC5/UART_1.c ****     uint8 UART_1_GetChar(void) 
ARM GAS  C:\Users\LOCALA~1\AppData\Local\Temp\cc30l4Zv.s 			page 19


 557:Generated_Source\PSoC5/UART_1.c ****     {
 471              		.loc 1 557 0
 472              		.cfi_startproc
 473              		@ args = 0, pretend = 0, frame = 8
 474              		@ frame_needed = 1, uses_anonymous_args = 0
 475              		@ link register save eliminated.
 476 0000 80B4     		push	{r7}
 477              		.cfi_def_cfa_offset 4
 478              		.cfi_offset 7, -4
 479 0002 83B0     		sub	sp, sp, #12
 480              		.cfi_def_cfa_offset 16
 481 0004 00AF     		add	r7, sp, #0
 482              		.cfi_def_cfa_register 7
 558:Generated_Source\PSoC5/UART_1.c ****         uint8 rxData = 0u;
 483              		.loc 1 558 0
 484 0006 0023     		movs	r3, #0
 485 0008 FB71     		strb	r3, [r7, #7]
 559:Generated_Source\PSoC5/UART_1.c ****         uint8 rxStatus;
 560:Generated_Source\PSoC5/UART_1.c **** 
 561:Generated_Source\PSoC5/UART_1.c ****         #if(UART_1_RXBUFFERSIZE > UART_1_FIFO_LENGTH)
 562:Generated_Source\PSoC5/UART_1.c ****             uint8 loc_rxBufferRead;
 563:Generated_Source\PSoC5/UART_1.c ****             uint8 loc_rxBufferWrite;
 564:Generated_Source\PSoC5/UART_1.c ****             /* Protect variables that could change on interrupt. */
 565:Generated_Source\PSoC5/UART_1.c ****             /* Disable Rx interrupt. */
 566:Generated_Source\PSoC5/UART_1.c ****             #if(UART_1_RX_INTERRUPT_ENABLED)
 567:Generated_Source\PSoC5/UART_1.c ****                 UART_1_DisableRxInt();
 568:Generated_Source\PSoC5/UART_1.c ****             #endif /* UART_1_RX_INTERRUPT_ENABLED */
 569:Generated_Source\PSoC5/UART_1.c ****             loc_rxBufferRead = UART_1_rxBufferRead;
 570:Generated_Source\PSoC5/UART_1.c ****             loc_rxBufferWrite = UART_1_rxBufferWrite;
 571:Generated_Source\PSoC5/UART_1.c **** 
 572:Generated_Source\PSoC5/UART_1.c ****             if( (UART_1_rxBufferLoopDetect != 0u) || (loc_rxBufferRead != loc_rxBufferWrite) )
 573:Generated_Source\PSoC5/UART_1.c ****             {
 574:Generated_Source\PSoC5/UART_1.c ****                 rxData = UART_1_rxBuffer[loc_rxBufferRead];
 575:Generated_Source\PSoC5/UART_1.c ****                 loc_rxBufferRead++;
 576:Generated_Source\PSoC5/UART_1.c ****                 if(loc_rxBufferRead >= UART_1_RXBUFFERSIZE)
 577:Generated_Source\PSoC5/UART_1.c ****                 {
 578:Generated_Source\PSoC5/UART_1.c ****                     loc_rxBufferRead = 0u;
 579:Generated_Source\PSoC5/UART_1.c ****                 }
 580:Generated_Source\PSoC5/UART_1.c ****                 /* Update the real pointer */
 581:Generated_Source\PSoC5/UART_1.c ****                 UART_1_rxBufferRead = loc_rxBufferRead;
 582:Generated_Source\PSoC5/UART_1.c **** 
 583:Generated_Source\PSoC5/UART_1.c ****                 if(UART_1_rxBufferLoopDetect > 0u )
 584:Generated_Source\PSoC5/UART_1.c ****                 {
 585:Generated_Source\PSoC5/UART_1.c ****                     UART_1_rxBufferLoopDetect = 0u;
 586:Generated_Source\PSoC5/UART_1.c ****                     #if( (UART_1_RX_INTERRUPT_ENABLED) && (UART_1_FLOW_CONTROL != 0u) )
 587:Generated_Source\PSoC5/UART_1.c ****                         /* When Hardware Flow Control selected - return RX mask */
 588:Generated_Source\PSoC5/UART_1.c ****                         #if( UART_1_HD_ENABLED )
 589:Generated_Source\PSoC5/UART_1.c ****                             if((UART_1_CONTROL_REG & UART_1_CTRL_HD_SEND) == 0u)
 590:Generated_Source\PSoC5/UART_1.c ****                             {   /* In Half duplex mode return RX mask only if
 591:Generated_Source\PSoC5/UART_1.c ****                                 *  RX configuration set, otherwise
 592:Generated_Source\PSoC5/UART_1.c ****                                 *  mask will be returned in LoadRxConfig() API.
 593:Generated_Source\PSoC5/UART_1.c ****                                 */
 594:Generated_Source\PSoC5/UART_1.c ****                                 UART_1_RXSTATUS_MASK_REG  |= UART_1_RX_STS_FIFO_NOTEMPTY;
 595:Generated_Source\PSoC5/UART_1.c ****                             }
 596:Generated_Source\PSoC5/UART_1.c ****                         #else
 597:Generated_Source\PSoC5/UART_1.c ****                             UART_1_RXSTATUS_MASK_REG  |= UART_1_RX_STS_FIFO_NOTEMPTY;
 598:Generated_Source\PSoC5/UART_1.c ****                         #endif /* end UART_1_HD_ENABLED */
ARM GAS  C:\Users\LOCALA~1\AppData\Local\Temp\cc30l4Zv.s 			page 20


 599:Generated_Source\PSoC5/UART_1.c ****                     #endif /* UART_1_RX_INTERRUPT_ENABLED and Hardware flow control*/
 600:Generated_Source\PSoC5/UART_1.c ****                 }
 601:Generated_Source\PSoC5/UART_1.c **** 
 602:Generated_Source\PSoC5/UART_1.c ****             }
 603:Generated_Source\PSoC5/UART_1.c ****             else
 604:Generated_Source\PSoC5/UART_1.c ****             {   rxStatus = UART_1_RXSTATUS_REG;
 605:Generated_Source\PSoC5/UART_1.c ****                 if((rxStatus & UART_1_RX_STS_FIFO_NOTEMPTY) != 0u)
 606:Generated_Source\PSoC5/UART_1.c ****                 {   /* Read received data from FIFO*/
 607:Generated_Source\PSoC5/UART_1.c ****                     rxData = UART_1_RXDATA_REG;
 608:Generated_Source\PSoC5/UART_1.c ****                     /*Check status on error*/
 609:Generated_Source\PSoC5/UART_1.c ****                     if((rxStatus & (UART_1_RX_STS_BREAK | UART_1_RX_STS_PAR_ERROR |
 610:Generated_Source\PSoC5/UART_1.c ****                                    UART_1_RX_STS_STOP_ERROR | UART_1_RX_STS_OVERRUN)) != 0u)
 611:Generated_Source\PSoC5/UART_1.c ****                     {
 612:Generated_Source\PSoC5/UART_1.c ****                         rxData = 0u;
 613:Generated_Source\PSoC5/UART_1.c ****                     }
 614:Generated_Source\PSoC5/UART_1.c ****                 }
 615:Generated_Source\PSoC5/UART_1.c ****             }
 616:Generated_Source\PSoC5/UART_1.c **** 
 617:Generated_Source\PSoC5/UART_1.c ****             /* Enable Rx interrupt. */
 618:Generated_Source\PSoC5/UART_1.c ****             #if(UART_1_RX_INTERRUPT_ENABLED)
 619:Generated_Source\PSoC5/UART_1.c ****                 UART_1_EnableRxInt();
 620:Generated_Source\PSoC5/UART_1.c ****             #endif /* UART_1_RX_INTERRUPT_ENABLED */
 621:Generated_Source\PSoC5/UART_1.c **** 
 622:Generated_Source\PSoC5/UART_1.c ****         #else /* UART_1_RXBUFFERSIZE > UART_1_FIFO_LENGTH */
 623:Generated_Source\PSoC5/UART_1.c **** 
 624:Generated_Source\PSoC5/UART_1.c ****             rxStatus =UART_1_RXSTATUS_REG;
 486              		.loc 1 624 0
 487 000a 0C4B     		ldr	r3, .L31
 488 000c 1B78     		ldrb	r3, [r3]
 489 000e BB71     		strb	r3, [r7, #6]
 625:Generated_Source\PSoC5/UART_1.c ****             if((rxStatus & UART_1_RX_STS_FIFO_NOTEMPTY) != 0u)
 490              		.loc 1 625 0
 491 0010 BB79     		ldrb	r3, [r7, #6]	@ zero_extendqisi2
 492 0012 03F02003 		and	r3, r3, #32
 493 0016 002B     		cmp	r3, #0
 494 0018 09D0     		beq	.L29
 626:Generated_Source\PSoC5/UART_1.c ****             {   /* Read received data from FIFO*/
 627:Generated_Source\PSoC5/UART_1.c ****                 rxData = UART_1_RXDATA_REG;
 495              		.loc 1 627 0
 496 001a 094B     		ldr	r3, .L31+4
 497 001c 1B78     		ldrb	r3, [r3]
 498 001e FB71     		strb	r3, [r7, #7]
 628:Generated_Source\PSoC5/UART_1.c ****                 /*Check status on error*/
 629:Generated_Source\PSoC5/UART_1.c ****                 if((rxStatus & (UART_1_RX_STS_BREAK | UART_1_RX_STS_PAR_ERROR |
 630:Generated_Source\PSoC5/UART_1.c ****                                UART_1_RX_STS_STOP_ERROR | UART_1_RX_STS_OVERRUN)) != 0u)
 499              		.loc 1 630 0
 500 0020 BB79     		ldrb	r3, [r7, #6]	@ zero_extendqisi2
 501 0022 03F01E03 		and	r3, r3, #30
 629:Generated_Source\PSoC5/UART_1.c ****                                UART_1_RX_STS_STOP_ERROR | UART_1_RX_STS_OVERRUN)) != 0u)
 502              		.loc 1 629 0
 503 0026 002B     		cmp	r3, #0
 504 0028 01D0     		beq	.L29
 631:Generated_Source\PSoC5/UART_1.c ****                 {
 632:Generated_Source\PSoC5/UART_1.c ****                     rxData = 0u;
 505              		.loc 1 632 0
 506 002a 0023     		movs	r3, #0
 507 002c FB71     		strb	r3, [r7, #7]
ARM GAS  C:\Users\LOCALA~1\AppData\Local\Temp\cc30l4Zv.s 			page 21


 508              	.L29:
 633:Generated_Source\PSoC5/UART_1.c ****                 }
 634:Generated_Source\PSoC5/UART_1.c ****             }
 635:Generated_Source\PSoC5/UART_1.c ****         #endif /* UART_1_RXBUFFERSIZE > UART_1_FIFO_LENGTH */
 636:Generated_Source\PSoC5/UART_1.c **** 
 637:Generated_Source\PSoC5/UART_1.c ****         return(rxData);
 509              		.loc 1 637 0
 510 002e FB79     		ldrb	r3, [r7, #7]	@ zero_extendqisi2
 638:Generated_Source\PSoC5/UART_1.c ****     }
 511              		.loc 1 638 0
 512 0030 1846     		mov	r0, r3
 513 0032 0C37     		adds	r7, r7, #12
 514              		.cfi_def_cfa_offset 4
 515 0034 BD46     		mov	sp, r7
 516              		.cfi_def_cfa_register 13
 517              		@ sp needed
 518 0036 5DF8047B 		ldr	r7, [sp], #4
 519              		.cfi_restore 7
 520              		.cfi_def_cfa_offset 0
 521 003a 7047     		bx	lr
 522              	.L32:
 523              		.align	2
 524              	.L31:
 525 003c 6B640040 		.word	1073767531
 526 0040 4B640040 		.word	1073767499
 527              		.cfi_endproc
 528              	.LFE9:
 529              		.size	UART_1_GetChar, .-UART_1_GetChar
 530              		.section	.text.UART_1_GetByte,"ax",%progbits
 531              		.align	2
 532              		.global	UART_1_GetByte
 533              		.thumb
 534              		.thumb_func
 535              		.type	UART_1_GetByte, %function
 536              	UART_1_GetByte:
 537              	.LFB10:
 639:Generated_Source\PSoC5/UART_1.c **** 
 640:Generated_Source\PSoC5/UART_1.c **** 
 641:Generated_Source\PSoC5/UART_1.c ****     /*******************************************************************************
 642:Generated_Source\PSoC5/UART_1.c ****     * Function Name: UART_1_GetByte
 643:Generated_Source\PSoC5/UART_1.c ****     ********************************************************************************
 644:Generated_Source\PSoC5/UART_1.c ****     *
 645:Generated_Source\PSoC5/UART_1.c ****     * Summary:
 646:Generated_Source\PSoC5/UART_1.c ****     *  Grab the next available byte of data from the recieve FIFO
 647:Generated_Source\PSoC5/UART_1.c ****     *
 648:Generated_Source\PSoC5/UART_1.c ****     * Parameters:
 649:Generated_Source\PSoC5/UART_1.c ****     *  None.
 650:Generated_Source\PSoC5/UART_1.c ****     *
 651:Generated_Source\PSoC5/UART_1.c ****     * Return:
 652:Generated_Source\PSoC5/UART_1.c ****     *  MSB contains Status Register and LSB contains UART RX data
 653:Generated_Source\PSoC5/UART_1.c ****     *
 654:Generated_Source\PSoC5/UART_1.c ****     * Reentrant:
 655:Generated_Source\PSoC5/UART_1.c ****     *  No.
 656:Generated_Source\PSoC5/UART_1.c ****     *
 657:Generated_Source\PSoC5/UART_1.c ****     *******************************************************************************/
 658:Generated_Source\PSoC5/UART_1.c ****     uint16 UART_1_GetByte(void) 
 659:Generated_Source\PSoC5/UART_1.c ****     {
ARM GAS  C:\Users\LOCALA~1\AppData\Local\Temp\cc30l4Zv.s 			page 22


 538              		.loc 1 659 0
 539              		.cfi_startproc
 540              		@ args = 0, pretend = 0, frame = 0
 541              		@ frame_needed = 1, uses_anonymous_args = 0
 542 0000 98B5     		push	{r3, r4, r7, lr}
 543              		.cfi_def_cfa_offset 16
 544              		.cfi_offset 3, -16
 545              		.cfi_offset 4, -12
 546              		.cfi_offset 7, -8
 547              		.cfi_offset 14, -4
 548 0002 00AF     		add	r7, sp, #0
 549              		.cfi_def_cfa_register 7
 660:Generated_Source\PSoC5/UART_1.c ****         return ( ((uint16)UART_1_ReadRxStatus() << 8u) | UART_1_ReadRxData() );
 550              		.loc 1 660 0
 551 0004 FFF7FEFF 		bl	UART_1_ReadRxStatus
 552 0008 0346     		mov	r3, r0
 553 000a 1B02     		lsls	r3, r3, #8
 554 000c 9CB2     		uxth	r4, r3
 555 000e FFF7FEFF 		bl	UART_1_ReadRxData
 556 0012 0346     		mov	r3, r0
 557 0014 9BB2     		uxth	r3, r3
 558 0016 2246     		mov	r2, r4	@ movhi
 559 0018 1343     		orrs	r3, r3, r2
 560 001a 9BB2     		uxth	r3, r3
 561 001c 9BB2     		uxth	r3, r3
 661:Generated_Source\PSoC5/UART_1.c ****     }
 562              		.loc 1 661 0
 563 001e 1846     		mov	r0, r3
 564 0020 98BD     		pop	{r3, r4, r7, pc}
 565              		.cfi_endproc
 566              	.LFE10:
 567              		.size	UART_1_GetByte, .-UART_1_GetByte
 568 0022 00BF     		.section	.text.UART_1_GetRxBufferSize,"ax",%progbits
 569              		.align	2
 570              		.global	UART_1_GetRxBufferSize
 571              		.thumb
 572              		.thumb_func
 573              		.type	UART_1_GetRxBufferSize, %function
 574              	UART_1_GetRxBufferSize:
 575              	.LFB11:
 662:Generated_Source\PSoC5/UART_1.c **** 
 663:Generated_Source\PSoC5/UART_1.c **** 
 664:Generated_Source\PSoC5/UART_1.c ****     /*******************************************************************************
 665:Generated_Source\PSoC5/UART_1.c ****     * Function Name: UART_1_GetRxBufferSize
 666:Generated_Source\PSoC5/UART_1.c ****     ********************************************************************************
 667:Generated_Source\PSoC5/UART_1.c ****     *
 668:Generated_Source\PSoC5/UART_1.c ****     * Summary:
 669:Generated_Source\PSoC5/UART_1.c ****     *  Determine the amount of bytes left in the RX buffer and return the count in
 670:Generated_Source\PSoC5/UART_1.c ****     *  bytes
 671:Generated_Source\PSoC5/UART_1.c ****     *
 672:Generated_Source\PSoC5/UART_1.c ****     * Parameters:
 673:Generated_Source\PSoC5/UART_1.c ****     *  None.
 674:Generated_Source\PSoC5/UART_1.c ****     *
 675:Generated_Source\PSoC5/UART_1.c ****     * Return:
 676:Generated_Source\PSoC5/UART_1.c ****     *  uint8: Integer count of the number of bytes left
 677:Generated_Source\PSoC5/UART_1.c ****     *  in the RX buffer
 678:Generated_Source\PSoC5/UART_1.c ****     *
ARM GAS  C:\Users\LOCALA~1\AppData\Local\Temp\cc30l4Zv.s 			page 23


 679:Generated_Source\PSoC5/UART_1.c ****     * Global Variables:
 680:Generated_Source\PSoC5/UART_1.c ****     *  UART_1_rxBufferWrite - used to calculate left bytes.
 681:Generated_Source\PSoC5/UART_1.c ****     *  UART_1_rxBufferRead - used to calculate left bytes.
 682:Generated_Source\PSoC5/UART_1.c ****     *  UART_1_rxBufferLoopDetect - checked to decide left bytes amount.
 683:Generated_Source\PSoC5/UART_1.c ****     *
 684:Generated_Source\PSoC5/UART_1.c ****     * Reentrant:
 685:Generated_Source\PSoC5/UART_1.c ****     *  No.
 686:Generated_Source\PSoC5/UART_1.c ****     *
 687:Generated_Source\PSoC5/UART_1.c ****     * Theory:
 688:Generated_Source\PSoC5/UART_1.c ****     *  Allows the user to find out how full the RX Buffer is.
 689:Generated_Source\PSoC5/UART_1.c ****     *
 690:Generated_Source\PSoC5/UART_1.c ****     *******************************************************************************/
 691:Generated_Source\PSoC5/UART_1.c ****     uint8 UART_1_GetRxBufferSize(void)
 692:Generated_Source\PSoC5/UART_1.c ****                                                             
 693:Generated_Source\PSoC5/UART_1.c ****     {
 576              		.loc 1 693 0
 577              		.cfi_startproc
 578              		@ args = 0, pretend = 0, frame = 8
 579              		@ frame_needed = 1, uses_anonymous_args = 0
 580              		@ link register save eliminated.
 581 0000 80B4     		push	{r7}
 582              		.cfi_def_cfa_offset 4
 583              		.cfi_offset 7, -4
 584 0002 83B0     		sub	sp, sp, #12
 585              		.cfi_def_cfa_offset 16
 586 0004 00AF     		add	r7, sp, #0
 587              		.cfi_def_cfa_register 7
 694:Generated_Source\PSoC5/UART_1.c ****         uint8 size;
 695:Generated_Source\PSoC5/UART_1.c **** 
 696:Generated_Source\PSoC5/UART_1.c ****         #if(UART_1_RXBUFFERSIZE > UART_1_FIFO_LENGTH)
 697:Generated_Source\PSoC5/UART_1.c **** 
 698:Generated_Source\PSoC5/UART_1.c ****             /* Disable Rx interrupt. */
 699:Generated_Source\PSoC5/UART_1.c ****             /* Protect variables that could change on interrupt. */
 700:Generated_Source\PSoC5/UART_1.c ****             #if(UART_1_RX_INTERRUPT_ENABLED)
 701:Generated_Source\PSoC5/UART_1.c ****                 UART_1_DisableRxInt();
 702:Generated_Source\PSoC5/UART_1.c ****             #endif /* UART_1_RX_INTERRUPT_ENABLED */
 703:Generated_Source\PSoC5/UART_1.c **** 
 704:Generated_Source\PSoC5/UART_1.c ****             if(UART_1_rxBufferRead == UART_1_rxBufferWrite)
 705:Generated_Source\PSoC5/UART_1.c ****             {
 706:Generated_Source\PSoC5/UART_1.c ****                 if(UART_1_rxBufferLoopDetect > 0u)
 707:Generated_Source\PSoC5/UART_1.c ****                 {
 708:Generated_Source\PSoC5/UART_1.c ****                     size = UART_1_RXBUFFERSIZE;
 709:Generated_Source\PSoC5/UART_1.c ****                 }
 710:Generated_Source\PSoC5/UART_1.c ****                 else
 711:Generated_Source\PSoC5/UART_1.c ****                 {
 712:Generated_Source\PSoC5/UART_1.c ****                     size = 0u;
 713:Generated_Source\PSoC5/UART_1.c ****                 }
 714:Generated_Source\PSoC5/UART_1.c ****             }
 715:Generated_Source\PSoC5/UART_1.c ****             else if(UART_1_rxBufferRead < UART_1_rxBufferWrite)
 716:Generated_Source\PSoC5/UART_1.c ****             {
 717:Generated_Source\PSoC5/UART_1.c ****                 size = (UART_1_rxBufferWrite - UART_1_rxBufferRead);
 718:Generated_Source\PSoC5/UART_1.c ****             }
 719:Generated_Source\PSoC5/UART_1.c ****             else
 720:Generated_Source\PSoC5/UART_1.c ****             {
 721:Generated_Source\PSoC5/UART_1.c ****                 size = (UART_1_RXBUFFERSIZE - UART_1_rxBufferRead) + UART_1_rxBufferWrite;
 722:Generated_Source\PSoC5/UART_1.c ****             }
 723:Generated_Source\PSoC5/UART_1.c **** 
ARM GAS  C:\Users\LOCALA~1\AppData\Local\Temp\cc30l4Zv.s 			page 24


 724:Generated_Source\PSoC5/UART_1.c ****             /* Enable Rx interrupt. */
 725:Generated_Source\PSoC5/UART_1.c ****             #if(UART_1_RX_INTERRUPT_ENABLED)
 726:Generated_Source\PSoC5/UART_1.c ****                 UART_1_EnableRxInt();
 727:Generated_Source\PSoC5/UART_1.c ****             #endif /* End UART_1_RX_INTERRUPT_ENABLED */
 728:Generated_Source\PSoC5/UART_1.c **** 
 729:Generated_Source\PSoC5/UART_1.c ****         #else /* UART_1_RXBUFFERSIZE > UART_1_FIFO_LENGTH */
 730:Generated_Source\PSoC5/UART_1.c **** 
 731:Generated_Source\PSoC5/UART_1.c ****             /* We can only know if there is data in the fifo. */
 732:Generated_Source\PSoC5/UART_1.c ****             size = ((UART_1_RXSTATUS_REG & UART_1_RX_STS_FIFO_NOTEMPTY) != 0u) ? 1u : 0u;
 588              		.loc 1 732 0
 589 0006 094B     		ldr	r3, .L39
 590 0008 1B78     		ldrb	r3, [r3]
 591 000a DBB2     		uxtb	r3, r3
 592 000c 03F02003 		and	r3, r3, #32
 593 0010 002B     		cmp	r3, #0
 594 0012 01D0     		beq	.L36
 595              		.loc 1 732 0 is_stmt 0 discriminator 1
 596 0014 0123     		movs	r3, #1
 597 0016 00E0     		b	.L37
 598              	.L36:
 599              		.loc 1 732 0 discriminator 2
 600 0018 0023     		movs	r3, #0
 601              	.L37:
 602              		.loc 1 732 0 discriminator 4
 603 001a FB71     		strb	r3, [r7, #7]
 733:Generated_Source\PSoC5/UART_1.c **** 
 734:Generated_Source\PSoC5/UART_1.c ****         #endif /* End UART_1_RXBUFFERSIZE > UART_1_FIFO_LENGTH */
 735:Generated_Source\PSoC5/UART_1.c **** 
 736:Generated_Source\PSoC5/UART_1.c ****         return(size);
 604              		.loc 1 736 0 is_stmt 1 discriminator 4
 605 001c FB79     		ldrb	r3, [r7, #7]	@ zero_extendqisi2
 737:Generated_Source\PSoC5/UART_1.c ****     }
 606              		.loc 1 737 0 discriminator 4
 607 001e 1846     		mov	r0, r3
 608 0020 0C37     		adds	r7, r7, #12
 609              		.cfi_def_cfa_offset 4
 610 0022 BD46     		mov	sp, r7
 611              		.cfi_def_cfa_register 13
 612              		@ sp needed
 613 0024 5DF8047B 		ldr	r7, [sp], #4
 614              		.cfi_restore 7
 615              		.cfi_def_cfa_offset 0
 616 0028 7047     		bx	lr
 617              	.L40:
 618 002a 00BF     		.align	2
 619              	.L39:
 620 002c 6B640040 		.word	1073767531
 621              		.cfi_endproc
 622              	.LFE11:
 623              		.size	UART_1_GetRxBufferSize, .-UART_1_GetRxBufferSize
 624              		.section	.text.UART_1_ClearRxBuffer,"ax",%progbits
 625              		.align	2
 626              		.global	UART_1_ClearRxBuffer
 627              		.thumb
 628              		.thumb_func
 629              		.type	UART_1_ClearRxBuffer, %function
 630              	UART_1_ClearRxBuffer:
ARM GAS  C:\Users\LOCALA~1\AppData\Local\Temp\cc30l4Zv.s 			page 25


 631              	.LFB12:
 738:Generated_Source\PSoC5/UART_1.c **** 
 739:Generated_Source\PSoC5/UART_1.c **** 
 740:Generated_Source\PSoC5/UART_1.c ****     /*******************************************************************************
 741:Generated_Source\PSoC5/UART_1.c ****     * Function Name: UART_1_ClearRxBuffer
 742:Generated_Source\PSoC5/UART_1.c ****     ********************************************************************************
 743:Generated_Source\PSoC5/UART_1.c ****     *
 744:Generated_Source\PSoC5/UART_1.c ****     * Summary:
 745:Generated_Source\PSoC5/UART_1.c ****     *  Clears the RX RAM buffer by setting the read and write pointers both to zero.
 746:Generated_Source\PSoC5/UART_1.c ****     *  Clears hardware RX FIFO.
 747:Generated_Source\PSoC5/UART_1.c ****     *
 748:Generated_Source\PSoC5/UART_1.c ****     * Parameters:
 749:Generated_Source\PSoC5/UART_1.c ****     *  None.
 750:Generated_Source\PSoC5/UART_1.c ****     *
 751:Generated_Source\PSoC5/UART_1.c ****     * Return:
 752:Generated_Source\PSoC5/UART_1.c ****     *  None.
 753:Generated_Source\PSoC5/UART_1.c ****     *
 754:Generated_Source\PSoC5/UART_1.c ****     * Global Variables:
 755:Generated_Source\PSoC5/UART_1.c ****     *  UART_1_rxBufferWrite - cleared to zero.
 756:Generated_Source\PSoC5/UART_1.c ****     *  UART_1_rxBufferRead - cleared to zero.
 757:Generated_Source\PSoC5/UART_1.c ****     *  UART_1_rxBufferLoopDetect - cleared to zero.
 758:Generated_Source\PSoC5/UART_1.c ****     *  UART_1_rxBufferOverflow - cleared to zero.
 759:Generated_Source\PSoC5/UART_1.c ****     *
 760:Generated_Source\PSoC5/UART_1.c ****     * Reentrant:
 761:Generated_Source\PSoC5/UART_1.c ****     *  No.
 762:Generated_Source\PSoC5/UART_1.c ****     *
 763:Generated_Source\PSoC5/UART_1.c ****     * Theory:
 764:Generated_Source\PSoC5/UART_1.c ****     *  Setting the pointers to zero makes the system believe there is no data to
 765:Generated_Source\PSoC5/UART_1.c ****     *  read and writing will resume at address 0 overwriting any data that may
 766:Generated_Source\PSoC5/UART_1.c ****     *  have remained in the RAM.
 767:Generated_Source\PSoC5/UART_1.c ****     *
 768:Generated_Source\PSoC5/UART_1.c ****     * Side Effects:
 769:Generated_Source\PSoC5/UART_1.c ****     *  Any received data not read from the RAM or FIFO buffer will be lost.
 770:Generated_Source\PSoC5/UART_1.c ****     *******************************************************************************/
 771:Generated_Source\PSoC5/UART_1.c ****     void UART_1_ClearRxBuffer(void) 
 772:Generated_Source\PSoC5/UART_1.c ****     {
 632              		.loc 1 772 0
 633              		.cfi_startproc
 634              		@ args = 0, pretend = 0, frame = 8
 635              		@ frame_needed = 1, uses_anonymous_args = 0
 636 0000 80B5     		push	{r7, lr}
 637              		.cfi_def_cfa_offset 8
 638              		.cfi_offset 7, -8
 639              		.cfi_offset 14, -4
 640 0002 82B0     		sub	sp, sp, #8
 641              		.cfi_def_cfa_offset 16
 642 0004 00AF     		add	r7, sp, #0
 643              		.cfi_def_cfa_register 7
 773:Generated_Source\PSoC5/UART_1.c ****         uint8 enableInterrupts;
 774:Generated_Source\PSoC5/UART_1.c **** 
 775:Generated_Source\PSoC5/UART_1.c ****         /* clear the HW FIFO */
 776:Generated_Source\PSoC5/UART_1.c ****         /* Enter critical section */
 777:Generated_Source\PSoC5/UART_1.c ****         enableInterrupts = CyEnterCriticalSection();
 644              		.loc 1 777 0
 645 0006 FFF7FEFF 		bl	CyEnterCriticalSection
 646 000a 0346     		mov	r3, r0
 647 000c FB71     		strb	r3, [r7, #7]
ARM GAS  C:\Users\LOCALA~1\AppData\Local\Temp\cc30l4Zv.s 			page 26


 778:Generated_Source\PSoC5/UART_1.c ****         UART_1_RXDATA_AUX_CTL_REG |=  UART_1_RX_FIFO_CLR;
 648              		.loc 1 778 0
 649 000e 0B4A     		ldr	r2, .L42
 650 0010 0A4B     		ldr	r3, .L42
 651 0012 1B78     		ldrb	r3, [r3]
 652 0014 DBB2     		uxtb	r3, r3
 653 0016 43F00103 		orr	r3, r3, #1
 654 001a DBB2     		uxtb	r3, r3
 655 001c 1370     		strb	r3, [r2]
 779:Generated_Source\PSoC5/UART_1.c ****         UART_1_RXDATA_AUX_CTL_REG &= (uint8)~UART_1_RX_FIFO_CLR;
 656              		.loc 1 779 0
 657 001e 074A     		ldr	r2, .L42
 658 0020 064B     		ldr	r3, .L42
 659 0022 1B78     		ldrb	r3, [r3]
 660 0024 DBB2     		uxtb	r3, r3
 661 0026 23F00103 		bic	r3, r3, #1
 662 002a DBB2     		uxtb	r3, r3
 663 002c 1370     		strb	r3, [r2]
 780:Generated_Source\PSoC5/UART_1.c ****         /* Exit critical section */
 781:Generated_Source\PSoC5/UART_1.c ****         CyExitCriticalSection(enableInterrupts);
 664              		.loc 1 781 0
 665 002e FB79     		ldrb	r3, [r7, #7]	@ zero_extendqisi2
 666 0030 1846     		mov	r0, r3
 667 0032 FFF7FEFF 		bl	CyExitCriticalSection
 782:Generated_Source\PSoC5/UART_1.c **** 
 783:Generated_Source\PSoC5/UART_1.c ****         #if(UART_1_RXBUFFERSIZE > UART_1_FIFO_LENGTH)
 784:Generated_Source\PSoC5/UART_1.c ****             /* Disable Rx interrupt. */
 785:Generated_Source\PSoC5/UART_1.c ****             /* Protect variables that could change on interrupt. */
 786:Generated_Source\PSoC5/UART_1.c ****             #if(UART_1_RX_INTERRUPT_ENABLED)
 787:Generated_Source\PSoC5/UART_1.c ****                 UART_1_DisableRxInt();
 788:Generated_Source\PSoC5/UART_1.c ****             #endif /* End UART_1_RX_INTERRUPT_ENABLED */
 789:Generated_Source\PSoC5/UART_1.c **** 
 790:Generated_Source\PSoC5/UART_1.c ****             UART_1_rxBufferRead = 0u;
 791:Generated_Source\PSoC5/UART_1.c ****             UART_1_rxBufferWrite = 0u;
 792:Generated_Source\PSoC5/UART_1.c ****             UART_1_rxBufferLoopDetect = 0u;
 793:Generated_Source\PSoC5/UART_1.c ****             UART_1_rxBufferOverflow = 0u;
 794:Generated_Source\PSoC5/UART_1.c **** 
 795:Generated_Source\PSoC5/UART_1.c ****             /* Enable Rx interrupt. */
 796:Generated_Source\PSoC5/UART_1.c ****             #if(UART_1_RX_INTERRUPT_ENABLED)
 797:Generated_Source\PSoC5/UART_1.c ****                 UART_1_EnableRxInt();
 798:Generated_Source\PSoC5/UART_1.c ****             #endif /* End UART_1_RX_INTERRUPT_ENABLED */
 799:Generated_Source\PSoC5/UART_1.c ****         #endif /* End UART_1_RXBUFFERSIZE > UART_1_FIFO_LENGTH */
 800:Generated_Source\PSoC5/UART_1.c **** 
 801:Generated_Source\PSoC5/UART_1.c ****     }
 668              		.loc 1 801 0
 669 0036 0837     		adds	r7, r7, #8
 670              		.cfi_def_cfa_offset 8
 671 0038 BD46     		mov	sp, r7
 672              		.cfi_def_cfa_register 13
 673              		@ sp needed
 674 003a 80BD     		pop	{r7, pc}
 675              	.L43:
 676              		.align	2
 677              	.L42:
 678 003c 9B640040 		.word	1073767579
 679              		.cfi_endproc
 680              	.LFE12:
ARM GAS  C:\Users\LOCALA~1\AppData\Local\Temp\cc30l4Zv.s 			page 27


 681              		.size	UART_1_ClearRxBuffer, .-UART_1_ClearRxBuffer
 682              		.section	.text.UART_1_SetRxAddressMode,"ax",%progbits
 683              		.align	2
 684              		.global	UART_1_SetRxAddressMode
 685              		.thumb
 686              		.thumb_func
 687              		.type	UART_1_SetRxAddressMode, %function
 688              	UART_1_SetRxAddressMode:
 689              	.LFB13:
 802:Generated_Source\PSoC5/UART_1.c **** 
 803:Generated_Source\PSoC5/UART_1.c **** 
 804:Generated_Source\PSoC5/UART_1.c ****     /*******************************************************************************
 805:Generated_Source\PSoC5/UART_1.c ****     * Function Name: UART_1_SetRxAddressMode
 806:Generated_Source\PSoC5/UART_1.c ****     ********************************************************************************
 807:Generated_Source\PSoC5/UART_1.c ****     *
 808:Generated_Source\PSoC5/UART_1.c ****     * Summary:
 809:Generated_Source\PSoC5/UART_1.c ****     *  Set the receive addressing mode
 810:Generated_Source\PSoC5/UART_1.c ****     *
 811:Generated_Source\PSoC5/UART_1.c ****     * Parameters:
 812:Generated_Source\PSoC5/UART_1.c ****     *  addressMode: Enumerated value indicating the mode of RX addressing
 813:Generated_Source\PSoC5/UART_1.c ****     *  UART_1__B_UART__AM_SW_BYTE_BYTE -  Software Byte-by-Byte address
 814:Generated_Source\PSoC5/UART_1.c ****     *                                               detection
 815:Generated_Source\PSoC5/UART_1.c ****     *  UART_1__B_UART__AM_SW_DETECT_TO_BUFFER - Software Detect to Buffer
 816:Generated_Source\PSoC5/UART_1.c ****     *                                               address detection
 817:Generated_Source\PSoC5/UART_1.c ****     *  UART_1__B_UART__AM_HW_BYTE_BY_BYTE - Hardware Byte-by-Byte address
 818:Generated_Source\PSoC5/UART_1.c ****     *                                               detection
 819:Generated_Source\PSoC5/UART_1.c ****     *  UART_1__B_UART__AM_HW_DETECT_TO_BUFFER - Hardware Detect to Buffer
 820:Generated_Source\PSoC5/UART_1.c ****     *                                               address detection
 821:Generated_Source\PSoC5/UART_1.c ****     *  UART_1__B_UART__AM_NONE - No address detection
 822:Generated_Source\PSoC5/UART_1.c ****     *
 823:Generated_Source\PSoC5/UART_1.c ****     * Return:
 824:Generated_Source\PSoC5/UART_1.c ****     *  None.
 825:Generated_Source\PSoC5/UART_1.c ****     *
 826:Generated_Source\PSoC5/UART_1.c ****     * Global Variables:
 827:Generated_Source\PSoC5/UART_1.c ****     *  UART_1_rxAddressMode - the parameter stored in this variable for
 828:Generated_Source\PSoC5/UART_1.c ****     *   the farther usage in RX ISR.
 829:Generated_Source\PSoC5/UART_1.c ****     *  UART_1_rxAddressDetected - set to initial state (0).
 830:Generated_Source\PSoC5/UART_1.c ****     *
 831:Generated_Source\PSoC5/UART_1.c ****     *******************************************************************************/
 832:Generated_Source\PSoC5/UART_1.c ****     void UART_1_SetRxAddressMode(uint8 addressMode)
 833:Generated_Source\PSoC5/UART_1.c ****                                                         
 834:Generated_Source\PSoC5/UART_1.c ****     {
 690              		.loc 1 834 0
 691              		.cfi_startproc
 692              		@ args = 0, pretend = 0, frame = 8
 693              		@ frame_needed = 1, uses_anonymous_args = 0
 694              		@ link register save eliminated.
 695 0000 80B4     		push	{r7}
 696              		.cfi_def_cfa_offset 4
 697              		.cfi_offset 7, -4
 698 0002 83B0     		sub	sp, sp, #12
 699              		.cfi_def_cfa_offset 16
 700 0004 00AF     		add	r7, sp, #0
 701              		.cfi_def_cfa_register 7
 702 0006 0346     		mov	r3, r0
 703 0008 FB71     		strb	r3, [r7, #7]
 835:Generated_Source\PSoC5/UART_1.c ****         #if(UART_1_RXHW_ADDRESS_ENABLED)
ARM GAS  C:\Users\LOCALA~1\AppData\Local\Temp\cc30l4Zv.s 			page 28


 836:Generated_Source\PSoC5/UART_1.c ****             #if(UART_1_CONTROL_REG_REMOVED)
 837:Generated_Source\PSoC5/UART_1.c ****                 if(addressMode != 0u) { }     /* release compiler warning */
 838:Generated_Source\PSoC5/UART_1.c ****             #else /* UART_1_CONTROL_REG_REMOVED */
 839:Generated_Source\PSoC5/UART_1.c ****                 uint8 tmpCtrl;
 840:Generated_Source\PSoC5/UART_1.c ****                 tmpCtrl = UART_1_CONTROL_REG & (uint8)~UART_1_CTRL_RXADDR_MODE_MASK;
 841:Generated_Source\PSoC5/UART_1.c ****                 tmpCtrl |= (uint8)(addressMode << UART_1_CTRL_RXADDR_MODE0_SHIFT);
 842:Generated_Source\PSoC5/UART_1.c ****                 UART_1_CONTROL_REG = tmpCtrl;
 843:Generated_Source\PSoC5/UART_1.c ****                 #if(UART_1_RX_INTERRUPT_ENABLED && \
 844:Generated_Source\PSoC5/UART_1.c ****                    (UART_1_RXBUFFERSIZE > UART_1_FIFO_LENGTH) )
 845:Generated_Source\PSoC5/UART_1.c ****                     UART_1_rxAddressMode = addressMode;
 846:Generated_Source\PSoC5/UART_1.c ****                     UART_1_rxAddressDetected = 0u;
 847:Generated_Source\PSoC5/UART_1.c ****                 #endif /* End UART_1_RXBUFFERSIZE > UART_1_FIFO_LENGTH*/
 848:Generated_Source\PSoC5/UART_1.c ****             #endif /* End UART_1_CONTROL_REG_REMOVED */
 849:Generated_Source\PSoC5/UART_1.c ****         #else /* UART_1_RXHW_ADDRESS_ENABLED */
 850:Generated_Source\PSoC5/UART_1.c ****             if(addressMode != 0u) { }     /* release compiler warning */
 851:Generated_Source\PSoC5/UART_1.c ****         #endif /* End UART_1_RXHW_ADDRESS_ENABLED */
 852:Generated_Source\PSoC5/UART_1.c ****     }
 704              		.loc 1 852 0
 705 000a 0C37     		adds	r7, r7, #12
 706              		.cfi_def_cfa_offset 4
 707 000c BD46     		mov	sp, r7
 708              		.cfi_def_cfa_register 13
 709              		@ sp needed
 710 000e 5DF8047B 		ldr	r7, [sp], #4
 711              		.cfi_restore 7
 712              		.cfi_def_cfa_offset 0
 713 0012 7047     		bx	lr
 714              		.cfi_endproc
 715              	.LFE13:
 716              		.size	UART_1_SetRxAddressMode, .-UART_1_SetRxAddressMode
 717              		.section	.text.UART_1_SetRxAddress1,"ax",%progbits
 718              		.align	2
 719              		.global	UART_1_SetRxAddress1
 720              		.thumb
 721              		.thumb_func
 722              		.type	UART_1_SetRxAddress1, %function
 723              	UART_1_SetRxAddress1:
 724              	.LFB14:
 853:Generated_Source\PSoC5/UART_1.c **** 
 854:Generated_Source\PSoC5/UART_1.c **** 
 855:Generated_Source\PSoC5/UART_1.c ****     /*******************************************************************************
 856:Generated_Source\PSoC5/UART_1.c ****     * Function Name: UART_1_SetRxAddress1
 857:Generated_Source\PSoC5/UART_1.c ****     ********************************************************************************
 858:Generated_Source\PSoC5/UART_1.c ****     *
 859:Generated_Source\PSoC5/UART_1.c ****     * Summary:
 860:Generated_Source\PSoC5/UART_1.c ****     *  Set the first hardware address compare value
 861:Generated_Source\PSoC5/UART_1.c ****     *
 862:Generated_Source\PSoC5/UART_1.c ****     * Parameters:
 863:Generated_Source\PSoC5/UART_1.c ****     *  address
 864:Generated_Source\PSoC5/UART_1.c ****     *
 865:Generated_Source\PSoC5/UART_1.c ****     * Return:
 866:Generated_Source\PSoC5/UART_1.c ****     *  None.
 867:Generated_Source\PSoC5/UART_1.c ****     *
 868:Generated_Source\PSoC5/UART_1.c ****     *******************************************************************************/
 869:Generated_Source\PSoC5/UART_1.c ****     void UART_1_SetRxAddress1(uint8 address) 
 870:Generated_Source\PSoC5/UART_1.c **** 
 871:Generated_Source\PSoC5/UART_1.c ****     {
ARM GAS  C:\Users\LOCALA~1\AppData\Local\Temp\cc30l4Zv.s 			page 29


 725              		.loc 1 871 0
 726              		.cfi_startproc
 727              		@ args = 0, pretend = 0, frame = 8
 728              		@ frame_needed = 1, uses_anonymous_args = 0
 729              		@ link register save eliminated.
 730 0000 80B4     		push	{r7}
 731              		.cfi_def_cfa_offset 4
 732              		.cfi_offset 7, -4
 733 0002 83B0     		sub	sp, sp, #12
 734              		.cfi_def_cfa_offset 16
 735 0004 00AF     		add	r7, sp, #0
 736              		.cfi_def_cfa_register 7
 737 0006 0346     		mov	r3, r0
 738 0008 FB71     		strb	r3, [r7, #7]
 872:Generated_Source\PSoC5/UART_1.c ****         UART_1_RXADDRESS1_REG = address;
 739              		.loc 1 872 0
 740 000a 044A     		ldr	r2, .L46
 741 000c FB79     		ldrb	r3, [r7, #7]
 742 000e 1370     		strb	r3, [r2]
 873:Generated_Source\PSoC5/UART_1.c ****     }
 743              		.loc 1 873 0
 744 0010 0C37     		adds	r7, r7, #12
 745              		.cfi_def_cfa_offset 4
 746 0012 BD46     		mov	sp, r7
 747              		.cfi_def_cfa_register 13
 748              		@ sp needed
 749 0014 5DF8047B 		ldr	r7, [sp], #4
 750              		.cfi_restore 7
 751              		.cfi_def_cfa_offset 0
 752 0018 7047     		bx	lr
 753              	.L47:
 754 001a 00BF     		.align	2
 755              	.L46:
 756 001c 2B640040 		.word	1073767467
 757              		.cfi_endproc
 758              	.LFE14:
 759              		.size	UART_1_SetRxAddress1, .-UART_1_SetRxAddress1
 760              		.section	.text.UART_1_SetRxAddress2,"ax",%progbits
 761              		.align	2
 762              		.global	UART_1_SetRxAddress2
 763              		.thumb
 764              		.thumb_func
 765              		.type	UART_1_SetRxAddress2, %function
 766              	UART_1_SetRxAddress2:
 767              	.LFB15:
 874:Generated_Source\PSoC5/UART_1.c **** 
 875:Generated_Source\PSoC5/UART_1.c **** 
 876:Generated_Source\PSoC5/UART_1.c ****     /*******************************************************************************
 877:Generated_Source\PSoC5/UART_1.c ****     * Function Name: UART_1_SetRxAddress2
 878:Generated_Source\PSoC5/UART_1.c ****     ********************************************************************************
 879:Generated_Source\PSoC5/UART_1.c ****     *
 880:Generated_Source\PSoC5/UART_1.c ****     * Summary:
 881:Generated_Source\PSoC5/UART_1.c ****     *  Set the second hardware address compare value
 882:Generated_Source\PSoC5/UART_1.c ****     *
 883:Generated_Source\PSoC5/UART_1.c ****     * Parameters:
 884:Generated_Source\PSoC5/UART_1.c ****     *  address
 885:Generated_Source\PSoC5/UART_1.c ****     *
ARM GAS  C:\Users\LOCALA~1\AppData\Local\Temp\cc30l4Zv.s 			page 30


 886:Generated_Source\PSoC5/UART_1.c ****     * Return:
 887:Generated_Source\PSoC5/UART_1.c ****     *  None.
 888:Generated_Source\PSoC5/UART_1.c ****     *
 889:Generated_Source\PSoC5/UART_1.c ****     *******************************************************************************/
 890:Generated_Source\PSoC5/UART_1.c ****     void UART_1_SetRxAddress2(uint8 address) 
 891:Generated_Source\PSoC5/UART_1.c ****     {
 768              		.loc 1 891 0
 769              		.cfi_startproc
 770              		@ args = 0, pretend = 0, frame = 8
 771              		@ frame_needed = 1, uses_anonymous_args = 0
 772              		@ link register save eliminated.
 773 0000 80B4     		push	{r7}
 774              		.cfi_def_cfa_offset 4
 775              		.cfi_offset 7, -4
 776 0002 83B0     		sub	sp, sp, #12
 777              		.cfi_def_cfa_offset 16
 778 0004 00AF     		add	r7, sp, #0
 779              		.cfi_def_cfa_register 7
 780 0006 0346     		mov	r3, r0
 781 0008 FB71     		strb	r3, [r7, #7]
 892:Generated_Source\PSoC5/UART_1.c ****         UART_1_RXADDRESS2_REG = address;
 782              		.loc 1 892 0
 783 000a 044A     		ldr	r2, .L49
 784 000c FB79     		ldrb	r3, [r7, #7]
 785 000e 1370     		strb	r3, [r2]
 893:Generated_Source\PSoC5/UART_1.c ****     }
 786              		.loc 1 893 0
 787 0010 0C37     		adds	r7, r7, #12
 788              		.cfi_def_cfa_offset 4
 789 0012 BD46     		mov	sp, r7
 790              		.cfi_def_cfa_register 13
 791              		@ sp needed
 792 0014 5DF8047B 		ldr	r7, [sp], #4
 793              		.cfi_restore 7
 794              		.cfi_def_cfa_offset 0
 795 0018 7047     		bx	lr
 796              	.L50:
 797 001a 00BF     		.align	2
 798              	.L49:
 799 001c 3B640040 		.word	1073767483
 800              		.cfi_endproc
 801              	.LFE15:
 802              		.size	UART_1_SetRxAddress2, .-UART_1_SetRxAddress2
 803              		.section	.text.UART_1_SetTxInterruptMode,"ax",%progbits
 804              		.align	2
 805              		.global	UART_1_SetTxInterruptMode
 806              		.thumb
 807              		.thumb_func
 808              		.type	UART_1_SetTxInterruptMode, %function
 809              	UART_1_SetTxInterruptMode:
 810              	.LFB16:
 894:Generated_Source\PSoC5/UART_1.c **** 
 895:Generated_Source\PSoC5/UART_1.c **** #endif  /* UART_1_RX_ENABLED || UART_1_HD_ENABLED*/
 896:Generated_Source\PSoC5/UART_1.c **** 
 897:Generated_Source\PSoC5/UART_1.c **** 
 898:Generated_Source\PSoC5/UART_1.c **** #if( (UART_1_TX_ENABLED) || (UART_1_HD_ENABLED) )
 899:Generated_Source\PSoC5/UART_1.c **** 
ARM GAS  C:\Users\LOCALA~1\AppData\Local\Temp\cc30l4Zv.s 			page 31


 900:Generated_Source\PSoC5/UART_1.c ****     #if(UART_1_TX_INTERRUPT_ENABLED)
 901:Generated_Source\PSoC5/UART_1.c **** 
 902:Generated_Source\PSoC5/UART_1.c ****         /*******************************************************************************
 903:Generated_Source\PSoC5/UART_1.c ****         * Function Name: UART_1_EnableTxInt
 904:Generated_Source\PSoC5/UART_1.c ****         ********************************************************************************
 905:Generated_Source\PSoC5/UART_1.c ****         *
 906:Generated_Source\PSoC5/UART_1.c ****         * Summary:
 907:Generated_Source\PSoC5/UART_1.c ****         *  Enable TX interrupt generation
 908:Generated_Source\PSoC5/UART_1.c ****         *
 909:Generated_Source\PSoC5/UART_1.c ****         * Parameters:
 910:Generated_Source\PSoC5/UART_1.c ****         *  None.
 911:Generated_Source\PSoC5/UART_1.c ****         *
 912:Generated_Source\PSoC5/UART_1.c ****         * Return:
 913:Generated_Source\PSoC5/UART_1.c ****         *  None.
 914:Generated_Source\PSoC5/UART_1.c ****         *
 915:Generated_Source\PSoC5/UART_1.c ****         * Theory:
 916:Generated_Source\PSoC5/UART_1.c ****         *  Enable the interrupt output -or- the interrupt component itself
 917:Generated_Source\PSoC5/UART_1.c ****         *
 918:Generated_Source\PSoC5/UART_1.c ****         *******************************************************************************/
 919:Generated_Source\PSoC5/UART_1.c ****         void UART_1_EnableTxInt(void) 
 920:Generated_Source\PSoC5/UART_1.c ****         {
 921:Generated_Source\PSoC5/UART_1.c ****             CyIntEnable(UART_1_TX_VECT_NUM);
 922:Generated_Source\PSoC5/UART_1.c ****         }
 923:Generated_Source\PSoC5/UART_1.c **** 
 924:Generated_Source\PSoC5/UART_1.c **** 
 925:Generated_Source\PSoC5/UART_1.c ****         /*******************************************************************************
 926:Generated_Source\PSoC5/UART_1.c ****         * Function Name: UART_1_DisableTxInt
 927:Generated_Source\PSoC5/UART_1.c ****         ********************************************************************************
 928:Generated_Source\PSoC5/UART_1.c ****         *
 929:Generated_Source\PSoC5/UART_1.c ****         * Summary:
 930:Generated_Source\PSoC5/UART_1.c ****         *  Disable TX interrupt generation
 931:Generated_Source\PSoC5/UART_1.c ****         *
 932:Generated_Source\PSoC5/UART_1.c ****         * Parameters:
 933:Generated_Source\PSoC5/UART_1.c ****         *  None.
 934:Generated_Source\PSoC5/UART_1.c ****         *
 935:Generated_Source\PSoC5/UART_1.c ****         * Return:
 936:Generated_Source\PSoC5/UART_1.c ****         *  None.
 937:Generated_Source\PSoC5/UART_1.c ****         *
 938:Generated_Source\PSoC5/UART_1.c ****         * Theory:
 939:Generated_Source\PSoC5/UART_1.c ****         *  Disable the interrupt output -or- the interrupt component itself
 940:Generated_Source\PSoC5/UART_1.c ****         *
 941:Generated_Source\PSoC5/UART_1.c ****         *******************************************************************************/
 942:Generated_Source\PSoC5/UART_1.c ****         void UART_1_DisableTxInt(void) 
 943:Generated_Source\PSoC5/UART_1.c ****         {
 944:Generated_Source\PSoC5/UART_1.c ****             CyIntDisable(UART_1_TX_VECT_NUM);
 945:Generated_Source\PSoC5/UART_1.c ****         }
 946:Generated_Source\PSoC5/UART_1.c **** 
 947:Generated_Source\PSoC5/UART_1.c ****     #endif /* UART_1_TX_INTERRUPT_ENABLED */
 948:Generated_Source\PSoC5/UART_1.c **** 
 949:Generated_Source\PSoC5/UART_1.c **** 
 950:Generated_Source\PSoC5/UART_1.c ****     /*******************************************************************************
 951:Generated_Source\PSoC5/UART_1.c ****     * Function Name: UART_1_SetTxInterruptMode
 952:Generated_Source\PSoC5/UART_1.c ****     ********************************************************************************
 953:Generated_Source\PSoC5/UART_1.c ****     *
 954:Generated_Source\PSoC5/UART_1.c ****     * Summary:
 955:Generated_Source\PSoC5/UART_1.c ****     *  Configure which status bits trigger an interrupt event
 956:Generated_Source\PSoC5/UART_1.c ****     *
ARM GAS  C:\Users\LOCALA~1\AppData\Local\Temp\cc30l4Zv.s 			page 32


 957:Generated_Source\PSoC5/UART_1.c ****     * Parameters:
 958:Generated_Source\PSoC5/UART_1.c ****     *  intSrc: An or'd combination of the desired status bit masks (defined in
 959:Generated_Source\PSoC5/UART_1.c ****     *          the header file)
 960:Generated_Source\PSoC5/UART_1.c ****     *
 961:Generated_Source\PSoC5/UART_1.c ****     * Return:
 962:Generated_Source\PSoC5/UART_1.c ****     *  None.
 963:Generated_Source\PSoC5/UART_1.c ****     *
 964:Generated_Source\PSoC5/UART_1.c ****     * Theory:
 965:Generated_Source\PSoC5/UART_1.c ****     *  Enables the output of specific status bits to the interrupt controller
 966:Generated_Source\PSoC5/UART_1.c ****     *
 967:Generated_Source\PSoC5/UART_1.c ****     *******************************************************************************/
 968:Generated_Source\PSoC5/UART_1.c ****     void UART_1_SetTxInterruptMode(uint8 intSrc) 
 969:Generated_Source\PSoC5/UART_1.c ****     {
 811              		.loc 1 969 0
 812              		.cfi_startproc
 813              		@ args = 0, pretend = 0, frame = 8
 814              		@ frame_needed = 1, uses_anonymous_args = 0
 815              		@ link register save eliminated.
 816 0000 80B4     		push	{r7}
 817              		.cfi_def_cfa_offset 4
 818              		.cfi_offset 7, -4
 819 0002 83B0     		sub	sp, sp, #12
 820              		.cfi_def_cfa_offset 16
 821 0004 00AF     		add	r7, sp, #0
 822              		.cfi_def_cfa_register 7
 823 0006 0346     		mov	r3, r0
 824 0008 FB71     		strb	r3, [r7, #7]
 970:Generated_Source\PSoC5/UART_1.c ****         UART_1_TXSTATUS_MASK_REG = intSrc;
 825              		.loc 1 970 0
 826 000a 044A     		ldr	r2, .L52
 827 000c FB79     		ldrb	r3, [r7, #7]
 828 000e 1370     		strb	r3, [r2]
 971:Generated_Source\PSoC5/UART_1.c ****     }
 829              		.loc 1 971 0
 830 0010 0C37     		adds	r7, r7, #12
 831              		.cfi_def_cfa_offset 4
 832 0012 BD46     		mov	sp, r7
 833              		.cfi_def_cfa_register 13
 834              		@ sp needed
 835 0014 5DF8047B 		ldr	r7, [sp], #4
 836              		.cfi_restore 7
 837              		.cfi_def_cfa_offset 0
 838 0018 7047     		bx	lr
 839              	.L53:
 840 001a 00BF     		.align	2
 841              	.L52:
 842 001c 89640040 		.word	1073767561
 843              		.cfi_endproc
 844              	.LFE16:
 845              		.size	UART_1_SetTxInterruptMode, .-UART_1_SetTxInterruptMode
 846              		.section	.text.UART_1_WriteTxData,"ax",%progbits
 847              		.align	2
 848              		.global	UART_1_WriteTxData
 849              		.thumb
 850              		.thumb_func
 851              		.type	UART_1_WriteTxData, %function
 852              	UART_1_WriteTxData:
ARM GAS  C:\Users\LOCALA~1\AppData\Local\Temp\cc30l4Zv.s 			page 33


 853              	.LFB17:
 972:Generated_Source\PSoC5/UART_1.c **** 
 973:Generated_Source\PSoC5/UART_1.c **** 
 974:Generated_Source\PSoC5/UART_1.c ****     /*******************************************************************************
 975:Generated_Source\PSoC5/UART_1.c ****     * Function Name: UART_1_WriteTxData
 976:Generated_Source\PSoC5/UART_1.c ****     ********************************************************************************
 977:Generated_Source\PSoC5/UART_1.c ****     *
 978:Generated_Source\PSoC5/UART_1.c ****     * Summary:
 979:Generated_Source\PSoC5/UART_1.c ****     *  Write a byte of data to the Transmit FIFO or TX buffer to be sent when the
 980:Generated_Source\PSoC5/UART_1.c ****     *  bus is available. WriteTxData sends a byte without checking for buffer room
 981:Generated_Source\PSoC5/UART_1.c ****     *  or status. It is up to the user to separately check status.
 982:Generated_Source\PSoC5/UART_1.c ****     *
 983:Generated_Source\PSoC5/UART_1.c ****     * Parameters:
 984:Generated_Source\PSoC5/UART_1.c ****     *  TXDataByte: byte of data to place in the transmit FIFO
 985:Generated_Source\PSoC5/UART_1.c ****     *
 986:Generated_Source\PSoC5/UART_1.c ****     * Return:
 987:Generated_Source\PSoC5/UART_1.c ****     * void
 988:Generated_Source\PSoC5/UART_1.c ****     *
 989:Generated_Source\PSoC5/UART_1.c ****     * Global Variables:
 990:Generated_Source\PSoC5/UART_1.c ****     *  UART_1_txBuffer - RAM buffer pointer for save data for transmission
 991:Generated_Source\PSoC5/UART_1.c ****     *  UART_1_txBufferWrite - cyclic index for write to txBuffer,
 992:Generated_Source\PSoC5/UART_1.c ****     *    incremented after each byte saved to buffer.
 993:Generated_Source\PSoC5/UART_1.c ****     *  UART_1_txBufferRead - cyclic index for read from txBuffer,
 994:Generated_Source\PSoC5/UART_1.c ****     *    checked to identify the condition to write to FIFO directly or to TX buffer
 995:Generated_Source\PSoC5/UART_1.c ****     *  UART_1_initVar - checked to identify that the component has been
 996:Generated_Source\PSoC5/UART_1.c ****     *    initialized.
 997:Generated_Source\PSoC5/UART_1.c ****     *
 998:Generated_Source\PSoC5/UART_1.c ****     * Reentrant:
 999:Generated_Source\PSoC5/UART_1.c ****     *  No.
1000:Generated_Source\PSoC5/UART_1.c ****     *
1001:Generated_Source\PSoC5/UART_1.c ****     *******************************************************************************/
1002:Generated_Source\PSoC5/UART_1.c ****     void UART_1_WriteTxData(uint8 txDataByte) 
1003:Generated_Source\PSoC5/UART_1.c ****     {
 854              		.loc 1 1003 0
 855              		.cfi_startproc
 856              		@ args = 0, pretend = 0, frame = 8
 857              		@ frame_needed = 1, uses_anonymous_args = 0
 858              		@ link register save eliminated.
 859 0000 80B4     		push	{r7}
 860              		.cfi_def_cfa_offset 4
 861              		.cfi_offset 7, -4
 862 0002 83B0     		sub	sp, sp, #12
 863              		.cfi_def_cfa_offset 16
 864 0004 00AF     		add	r7, sp, #0
 865              		.cfi_def_cfa_register 7
 866 0006 0346     		mov	r3, r0
 867 0008 FB71     		strb	r3, [r7, #7]
1004:Generated_Source\PSoC5/UART_1.c ****         /* If not Initialized then skip this function*/
1005:Generated_Source\PSoC5/UART_1.c ****         if(UART_1_initVar != 0u)
 868              		.loc 1 1005 0
 869 000a 064B     		ldr	r3, .L56
 870 000c 1B78     		ldrb	r3, [r3]	@ zero_extendqisi2
 871 000e 002B     		cmp	r3, #0
 872 0010 02D0     		beq	.L54
1006:Generated_Source\PSoC5/UART_1.c ****         {
1007:Generated_Source\PSoC5/UART_1.c ****             #if(UART_1_TXBUFFERSIZE > UART_1_FIFO_LENGTH)
1008:Generated_Source\PSoC5/UART_1.c **** 
ARM GAS  C:\Users\LOCALA~1\AppData\Local\Temp\cc30l4Zv.s 			page 34


1009:Generated_Source\PSoC5/UART_1.c ****                 /* Disable Tx interrupt. */
1010:Generated_Source\PSoC5/UART_1.c ****                 /* Protect variables that could change on interrupt. */
1011:Generated_Source\PSoC5/UART_1.c ****                 #if(UART_1_TX_INTERRUPT_ENABLED)
1012:Generated_Source\PSoC5/UART_1.c ****                     UART_1_DisableTxInt();
1013:Generated_Source\PSoC5/UART_1.c ****                 #endif /* End UART_1_TX_INTERRUPT_ENABLED */
1014:Generated_Source\PSoC5/UART_1.c **** 
1015:Generated_Source\PSoC5/UART_1.c ****                 if( (UART_1_txBufferRead == UART_1_txBufferWrite) &&
1016:Generated_Source\PSoC5/UART_1.c ****                     ((UART_1_TXSTATUS_REG & UART_1_TX_STS_FIFO_FULL) == 0u) )
1017:Generated_Source\PSoC5/UART_1.c ****                 {
1018:Generated_Source\PSoC5/UART_1.c ****                     /* Add directly to the FIFO. */
1019:Generated_Source\PSoC5/UART_1.c ****                     UART_1_TXDATA_REG = txDataByte;
1020:Generated_Source\PSoC5/UART_1.c ****                 }
1021:Generated_Source\PSoC5/UART_1.c ****                 else
1022:Generated_Source\PSoC5/UART_1.c ****                 {
1023:Generated_Source\PSoC5/UART_1.c ****                     if(UART_1_txBufferWrite >= UART_1_TXBUFFERSIZE)
1024:Generated_Source\PSoC5/UART_1.c ****                     {
1025:Generated_Source\PSoC5/UART_1.c ****                         UART_1_txBufferWrite = 0u;
1026:Generated_Source\PSoC5/UART_1.c ****                     }
1027:Generated_Source\PSoC5/UART_1.c **** 
1028:Generated_Source\PSoC5/UART_1.c ****                     UART_1_txBuffer[UART_1_txBufferWrite] = txDataByte;
1029:Generated_Source\PSoC5/UART_1.c **** 
1030:Generated_Source\PSoC5/UART_1.c ****                     /* Add to the software buffer. */
1031:Generated_Source\PSoC5/UART_1.c ****                     UART_1_txBufferWrite++;
1032:Generated_Source\PSoC5/UART_1.c **** 
1033:Generated_Source\PSoC5/UART_1.c ****                 }
1034:Generated_Source\PSoC5/UART_1.c **** 
1035:Generated_Source\PSoC5/UART_1.c ****                 /* Enable Tx interrupt. */
1036:Generated_Source\PSoC5/UART_1.c ****                 #if(UART_1_TX_INTERRUPT_ENABLED)
1037:Generated_Source\PSoC5/UART_1.c ****                     UART_1_EnableTxInt();
1038:Generated_Source\PSoC5/UART_1.c ****                 #endif /* End UART_1_TX_INTERRUPT_ENABLED */
1039:Generated_Source\PSoC5/UART_1.c **** 
1040:Generated_Source\PSoC5/UART_1.c ****             #else /* UART_1_TXBUFFERSIZE > UART_1_FIFO_LENGTH */
1041:Generated_Source\PSoC5/UART_1.c **** 
1042:Generated_Source\PSoC5/UART_1.c ****                 /* Add directly to the FIFO. */
1043:Generated_Source\PSoC5/UART_1.c ****                 UART_1_TXDATA_REG = txDataByte;
 873              		.loc 1 1043 0
 874 0012 054A     		ldr	r2, .L56+4
 875 0014 FB79     		ldrb	r3, [r7, #7]
 876 0016 1370     		strb	r3, [r2]
 877              	.L54:
1044:Generated_Source\PSoC5/UART_1.c **** 
1045:Generated_Source\PSoC5/UART_1.c ****             #endif /* End UART_1_TXBUFFERSIZE > UART_1_FIFO_LENGTH */
1046:Generated_Source\PSoC5/UART_1.c ****         }
1047:Generated_Source\PSoC5/UART_1.c ****     }
 878              		.loc 1 1047 0
 879 0018 0C37     		adds	r7, r7, #12
 880              		.cfi_def_cfa_offset 4
 881 001a BD46     		mov	sp, r7
 882              		.cfi_def_cfa_register 13
 883              		@ sp needed
 884 001c 5DF8047B 		ldr	r7, [sp], #4
 885              		.cfi_restore 7
 886              		.cfi_def_cfa_offset 0
 887 0020 7047     		bx	lr
 888              	.L57:
 889 0022 00BF     		.align	2
 890              	.L56:
ARM GAS  C:\Users\LOCALA~1\AppData\Local\Temp\cc30l4Zv.s 			page 35


 891 0024 00000000 		.word	UART_1_initVar
 892 0028 49640040 		.word	1073767497
 893              		.cfi_endproc
 894              	.LFE17:
 895              		.size	UART_1_WriteTxData, .-UART_1_WriteTxData
 896              		.section	.text.UART_1_ReadTxStatus,"ax",%progbits
 897              		.align	2
 898              		.global	UART_1_ReadTxStatus
 899              		.thumb
 900              		.thumb_func
 901              		.type	UART_1_ReadTxStatus, %function
 902              	UART_1_ReadTxStatus:
 903              	.LFB18:
1048:Generated_Source\PSoC5/UART_1.c **** 
1049:Generated_Source\PSoC5/UART_1.c **** 
1050:Generated_Source\PSoC5/UART_1.c ****     /*******************************************************************************
1051:Generated_Source\PSoC5/UART_1.c ****     * Function Name: UART_1_ReadTxStatus
1052:Generated_Source\PSoC5/UART_1.c ****     ********************************************************************************
1053:Generated_Source\PSoC5/UART_1.c ****     *
1054:Generated_Source\PSoC5/UART_1.c ****     * Summary:
1055:Generated_Source\PSoC5/UART_1.c ****     *  Read the status register for the component
1056:Generated_Source\PSoC5/UART_1.c ****     *
1057:Generated_Source\PSoC5/UART_1.c ****     * Parameters:
1058:Generated_Source\PSoC5/UART_1.c ****     *  None.
1059:Generated_Source\PSoC5/UART_1.c ****     *
1060:Generated_Source\PSoC5/UART_1.c ****     * Return:
1061:Generated_Source\PSoC5/UART_1.c ****     *  Contents of the status register
1062:Generated_Source\PSoC5/UART_1.c ****     *
1063:Generated_Source\PSoC5/UART_1.c ****     * Theory:
1064:Generated_Source\PSoC5/UART_1.c ****     *  This function reads the status register which is clear on read. It is up to
1065:Generated_Source\PSoC5/UART_1.c ****     *  the user to handle all bits in this return value accordingly, even if the bit
1066:Generated_Source\PSoC5/UART_1.c ****     *  was not enabled as an interrupt source the event happened and must be handled
1067:Generated_Source\PSoC5/UART_1.c ****     *  accordingly.
1068:Generated_Source\PSoC5/UART_1.c ****     *
1069:Generated_Source\PSoC5/UART_1.c ****     *******************************************************************************/
1070:Generated_Source\PSoC5/UART_1.c ****     uint8 UART_1_ReadTxStatus(void) 
1071:Generated_Source\PSoC5/UART_1.c ****     {
 904              		.loc 1 1071 0
 905              		.cfi_startproc
 906              		@ args = 0, pretend = 0, frame = 0
 907              		@ frame_needed = 1, uses_anonymous_args = 0
 908              		@ link register save eliminated.
 909 0000 80B4     		push	{r7}
 910              		.cfi_def_cfa_offset 4
 911              		.cfi_offset 7, -4
 912 0002 00AF     		add	r7, sp, #0
 913              		.cfi_def_cfa_register 7
1072:Generated_Source\PSoC5/UART_1.c ****         return(UART_1_TXSTATUS_REG);
 914              		.loc 1 1072 0
 915 0004 034B     		ldr	r3, .L60
 916 0006 1B78     		ldrb	r3, [r3]
 917 0008 DBB2     		uxtb	r3, r3
1073:Generated_Source\PSoC5/UART_1.c ****     }
 918              		.loc 1 1073 0
 919 000a 1846     		mov	r0, r3
 920 000c BD46     		mov	sp, r7
 921              		.cfi_def_cfa_register 13
ARM GAS  C:\Users\LOCALA~1\AppData\Local\Temp\cc30l4Zv.s 			page 36


 922              		@ sp needed
 923 000e 5DF8047B 		ldr	r7, [sp], #4
 924              		.cfi_restore 7
 925              		.cfi_def_cfa_offset 0
 926 0012 7047     		bx	lr
 927              	.L61:
 928              		.align	2
 929              	.L60:
 930 0014 69640040 		.word	1073767529
 931              		.cfi_endproc
 932              	.LFE18:
 933              		.size	UART_1_ReadTxStatus, .-UART_1_ReadTxStatus
 934              		.section	.text.UART_1_PutChar,"ax",%progbits
 935              		.align	2
 936              		.global	UART_1_PutChar
 937              		.thumb
 938              		.thumb_func
 939              		.type	UART_1_PutChar, %function
 940              	UART_1_PutChar:
 941              	.LFB19:
1074:Generated_Source\PSoC5/UART_1.c **** 
1075:Generated_Source\PSoC5/UART_1.c **** 
1076:Generated_Source\PSoC5/UART_1.c ****     /*******************************************************************************
1077:Generated_Source\PSoC5/UART_1.c ****     * Function Name: UART_1_PutChar
1078:Generated_Source\PSoC5/UART_1.c ****     ********************************************************************************
1079:Generated_Source\PSoC5/UART_1.c ****     *
1080:Generated_Source\PSoC5/UART_1.c ****     * Summary:
1081:Generated_Source\PSoC5/UART_1.c ****     *  Wait to send byte until TX register or buffer has room.
1082:Generated_Source\PSoC5/UART_1.c ****     *
1083:Generated_Source\PSoC5/UART_1.c ****     * Parameters:
1084:Generated_Source\PSoC5/UART_1.c ****     *  txDataByte: The 8-bit data value to send across the UART.
1085:Generated_Source\PSoC5/UART_1.c ****     *
1086:Generated_Source\PSoC5/UART_1.c ****     * Return:
1087:Generated_Source\PSoC5/UART_1.c ****     *  None.
1088:Generated_Source\PSoC5/UART_1.c ****     *
1089:Generated_Source\PSoC5/UART_1.c ****     * Global Variables:
1090:Generated_Source\PSoC5/UART_1.c ****     *  UART_1_txBuffer - RAM buffer pointer for save data for transmission
1091:Generated_Source\PSoC5/UART_1.c ****     *  UART_1_txBufferWrite - cyclic index for write to txBuffer,
1092:Generated_Source\PSoC5/UART_1.c ****     *     checked to identify free space in txBuffer and incremented after each byte
1093:Generated_Source\PSoC5/UART_1.c ****     *     saved to buffer.
1094:Generated_Source\PSoC5/UART_1.c ****     *  UART_1_txBufferRead - cyclic index for read from txBuffer,
1095:Generated_Source\PSoC5/UART_1.c ****     *     checked to identify free space in txBuffer.
1096:Generated_Source\PSoC5/UART_1.c ****     *  UART_1_initVar - checked to identify that the component has been
1097:Generated_Source\PSoC5/UART_1.c ****     *     initialized.
1098:Generated_Source\PSoC5/UART_1.c ****     *
1099:Generated_Source\PSoC5/UART_1.c ****     * Reentrant:
1100:Generated_Source\PSoC5/UART_1.c ****     *  No.
1101:Generated_Source\PSoC5/UART_1.c ****     *
1102:Generated_Source\PSoC5/UART_1.c ****     * Theory:
1103:Generated_Source\PSoC5/UART_1.c ****     *  Allows the user to transmit any byte of data in a single transfer
1104:Generated_Source\PSoC5/UART_1.c ****     *
1105:Generated_Source\PSoC5/UART_1.c ****     *******************************************************************************/
1106:Generated_Source\PSoC5/UART_1.c ****     void UART_1_PutChar(uint8 txDataByte) 
1107:Generated_Source\PSoC5/UART_1.c ****     {
 942              		.loc 1 1107 0
 943              		.cfi_startproc
 944              		@ args = 0, pretend = 0, frame = 8
ARM GAS  C:\Users\LOCALA~1\AppData\Local\Temp\cc30l4Zv.s 			page 37


 945              		@ frame_needed = 1, uses_anonymous_args = 0
 946              		@ link register save eliminated.
 947 0000 80B4     		push	{r7}
 948              		.cfi_def_cfa_offset 4
 949              		.cfi_offset 7, -4
 950 0002 83B0     		sub	sp, sp, #12
 951              		.cfi_def_cfa_offset 16
 952 0004 00AF     		add	r7, sp, #0
 953              		.cfi_def_cfa_register 7
 954 0006 0346     		mov	r3, r0
 955 0008 FB71     		strb	r3, [r7, #7]
1108:Generated_Source\PSoC5/UART_1.c ****             #if(UART_1_TXBUFFERSIZE > UART_1_FIFO_LENGTH)
1109:Generated_Source\PSoC5/UART_1.c ****                 /* The temporary output pointer is used since it takes two instructions
1110:Generated_Source\PSoC5/UART_1.c ****                 *  to increment with a wrap, and we can't risk doing that with the real
1111:Generated_Source\PSoC5/UART_1.c ****                 *  pointer and getting an interrupt in between instructions.
1112:Generated_Source\PSoC5/UART_1.c ****                 */
1113:Generated_Source\PSoC5/UART_1.c ****                 uint8 loc_txBufferWrite;
1114:Generated_Source\PSoC5/UART_1.c ****                 uint8 loc_txBufferRead;
1115:Generated_Source\PSoC5/UART_1.c **** 
1116:Generated_Source\PSoC5/UART_1.c ****                 do{
1117:Generated_Source\PSoC5/UART_1.c ****                     /* Block if software buffer is full, so we don't overwrite. */
1118:Generated_Source\PSoC5/UART_1.c ****                     #if ((UART_1_TXBUFFERSIZE > UART_1_MAX_BYTE_VALUE) && (CY_PSOC3))
1119:Generated_Source\PSoC5/UART_1.c ****                         /* Disable TX interrupt to protect variables that could change on interrupt
1120:Generated_Source\PSoC5/UART_1.c ****                         CyIntDisable(UART_1_TX_VECT_NUM);
1121:Generated_Source\PSoC5/UART_1.c ****                     #endif /* End TXBUFFERSIZE > 255 */
1122:Generated_Source\PSoC5/UART_1.c ****                     loc_txBufferWrite = UART_1_txBufferWrite;
1123:Generated_Source\PSoC5/UART_1.c ****                     loc_txBufferRead = UART_1_txBufferRead;
1124:Generated_Source\PSoC5/UART_1.c ****                     #if ((UART_1_TXBUFFERSIZE > UART_1_MAX_BYTE_VALUE) && (CY_PSOC3))
1125:Generated_Source\PSoC5/UART_1.c ****                         /* Enable interrupt to continue transmission */
1126:Generated_Source\PSoC5/UART_1.c ****                         CyIntEnable(UART_1_TX_VECT_NUM);
1127:Generated_Source\PSoC5/UART_1.c ****                     #endif /* End TXBUFFERSIZE > 255 */
1128:Generated_Source\PSoC5/UART_1.c ****                 }while( (loc_txBufferWrite < loc_txBufferRead) ? (loc_txBufferWrite == (loc_txBuffe
1129:Generated_Source\PSoC5/UART_1.c ****                                         ((loc_txBufferWrite - loc_txBufferRead) ==
1130:Generated_Source\PSoC5/UART_1.c ****                                         (uint8)(UART_1_TXBUFFERSIZE - 1u)) );
1131:Generated_Source\PSoC5/UART_1.c **** 
1132:Generated_Source\PSoC5/UART_1.c ****                 if( (loc_txBufferRead == loc_txBufferWrite) &&
1133:Generated_Source\PSoC5/UART_1.c ****                     ((UART_1_TXSTATUS_REG & UART_1_TX_STS_FIFO_FULL) == 0u) )
1134:Generated_Source\PSoC5/UART_1.c ****                 {
1135:Generated_Source\PSoC5/UART_1.c ****                     /* Add directly to the FIFO. */
1136:Generated_Source\PSoC5/UART_1.c ****                     UART_1_TXDATA_REG = txDataByte;
1137:Generated_Source\PSoC5/UART_1.c ****                 }
1138:Generated_Source\PSoC5/UART_1.c ****                 else
1139:Generated_Source\PSoC5/UART_1.c ****                 {
1140:Generated_Source\PSoC5/UART_1.c ****                     if(loc_txBufferWrite >= UART_1_TXBUFFERSIZE)
1141:Generated_Source\PSoC5/UART_1.c ****                     {
1142:Generated_Source\PSoC5/UART_1.c ****                         loc_txBufferWrite = 0u;
1143:Generated_Source\PSoC5/UART_1.c ****                     }
1144:Generated_Source\PSoC5/UART_1.c ****                     /* Add to the software buffer. */
1145:Generated_Source\PSoC5/UART_1.c ****                     UART_1_txBuffer[loc_txBufferWrite] = txDataByte;
1146:Generated_Source\PSoC5/UART_1.c ****                     loc_txBufferWrite++;
1147:Generated_Source\PSoC5/UART_1.c **** 
1148:Generated_Source\PSoC5/UART_1.c ****                     /* Finally, update the real output pointer */
1149:Generated_Source\PSoC5/UART_1.c ****                     #if ((UART_1_TXBUFFERSIZE > UART_1_MAX_BYTE_VALUE) && (CY_PSOC3))
1150:Generated_Source\PSoC5/UART_1.c ****                         CyIntDisable(UART_1_TX_VECT_NUM);
1151:Generated_Source\PSoC5/UART_1.c ****                     #endif /* End TXBUFFERSIZE > 255 */
1152:Generated_Source\PSoC5/UART_1.c ****                     UART_1_txBufferWrite = loc_txBufferWrite;
1153:Generated_Source\PSoC5/UART_1.c ****                     #if ((UART_1_TXBUFFERSIZE > UART_1_MAX_BYTE_VALUE) && (CY_PSOC3))
ARM GAS  C:\Users\LOCALA~1\AppData\Local\Temp\cc30l4Zv.s 			page 38


1154:Generated_Source\PSoC5/UART_1.c ****                         CyIntEnable(UART_1_TX_VECT_NUM);
1155:Generated_Source\PSoC5/UART_1.c ****                     #endif /* End TXBUFFERSIZE > 255 */
1156:Generated_Source\PSoC5/UART_1.c ****                 }
1157:Generated_Source\PSoC5/UART_1.c **** 
1158:Generated_Source\PSoC5/UART_1.c ****             #else /* UART_1_TXBUFFERSIZE > UART_1_FIFO_LENGTH */
1159:Generated_Source\PSoC5/UART_1.c **** 
1160:Generated_Source\PSoC5/UART_1.c ****                 while((UART_1_TXSTATUS_REG & UART_1_TX_STS_FIFO_FULL) != 0u)
 956              		.loc 1 1160 0
 957 000a 00BF     		nop
 958              	.L63:
 959              		.loc 1 1160 0 is_stmt 0 discriminator 1
 960 000c 074B     		ldr	r3, .L64
 961 000e 1B78     		ldrb	r3, [r3]
 962 0010 DBB2     		uxtb	r3, r3
 963 0012 03F00403 		and	r3, r3, #4
 964 0016 002B     		cmp	r3, #0
 965 0018 F8D1     		bne	.L63
1161:Generated_Source\PSoC5/UART_1.c ****                 {
1162:Generated_Source\PSoC5/UART_1.c ****                     ; /* Wait for room in the FIFO. */
1163:Generated_Source\PSoC5/UART_1.c ****                 }
1164:Generated_Source\PSoC5/UART_1.c **** 
1165:Generated_Source\PSoC5/UART_1.c ****                 /* Add directly to the FIFO. */
1166:Generated_Source\PSoC5/UART_1.c ****                 UART_1_TXDATA_REG = txDataByte;
 966              		.loc 1 1166 0 is_stmt 1
 967 001a 054A     		ldr	r2, .L64+4
 968 001c FB79     		ldrb	r3, [r7, #7]
 969 001e 1370     		strb	r3, [r2]
1167:Generated_Source\PSoC5/UART_1.c **** 
1168:Generated_Source\PSoC5/UART_1.c ****             #endif /* End UART_1_TXBUFFERSIZE > UART_1_FIFO_LENGTH */
1169:Generated_Source\PSoC5/UART_1.c ****     }
 970              		.loc 1 1169 0
 971 0020 0C37     		adds	r7, r7, #12
 972              		.cfi_def_cfa_offset 4
 973 0022 BD46     		mov	sp, r7
 974              		.cfi_def_cfa_register 13
 975              		@ sp needed
 976 0024 5DF8047B 		ldr	r7, [sp], #4
 977              		.cfi_restore 7
 978              		.cfi_def_cfa_offset 0
 979 0028 7047     		bx	lr
 980              	.L65:
 981 002a 00BF     		.align	2
 982              	.L64:
 983 002c 69640040 		.word	1073767529
 984 0030 49640040 		.word	1073767497
 985              		.cfi_endproc
 986              	.LFE19:
 987              		.size	UART_1_PutChar, .-UART_1_PutChar
 988              		.section	.text.UART_1_PutString,"ax",%progbits
 989              		.align	2
 990              		.global	UART_1_PutString
 991              		.thumb
 992              		.thumb_func
 993              		.type	UART_1_PutString, %function
 994              	UART_1_PutString:
 995              	.LFB20:
1170:Generated_Source\PSoC5/UART_1.c **** 
ARM GAS  C:\Users\LOCALA~1\AppData\Local\Temp\cc30l4Zv.s 			page 39


1171:Generated_Source\PSoC5/UART_1.c **** 
1172:Generated_Source\PSoC5/UART_1.c ****     /*******************************************************************************
1173:Generated_Source\PSoC5/UART_1.c ****     * Function Name: UART_1_PutString
1174:Generated_Source\PSoC5/UART_1.c ****     ********************************************************************************
1175:Generated_Source\PSoC5/UART_1.c ****     *
1176:Generated_Source\PSoC5/UART_1.c ****     * Summary:
1177:Generated_Source\PSoC5/UART_1.c ****     *  Write a Sequence of bytes on the Transmit line. Data comes from RAM or ROM.
1178:Generated_Source\PSoC5/UART_1.c ****     *
1179:Generated_Source\PSoC5/UART_1.c ****     * Parameters:
1180:Generated_Source\PSoC5/UART_1.c ****     *  string: char pointer to character string of Data to Send.
1181:Generated_Source\PSoC5/UART_1.c ****     *
1182:Generated_Source\PSoC5/UART_1.c ****     * Return:
1183:Generated_Source\PSoC5/UART_1.c ****     *  None.
1184:Generated_Source\PSoC5/UART_1.c ****     *
1185:Generated_Source\PSoC5/UART_1.c ****     * Global Variables:
1186:Generated_Source\PSoC5/UART_1.c ****     *  UART_1_initVar - checked to identify that the component has been
1187:Generated_Source\PSoC5/UART_1.c ****     *     initialized.
1188:Generated_Source\PSoC5/UART_1.c ****     *
1189:Generated_Source\PSoC5/UART_1.c ****     * Reentrant:
1190:Generated_Source\PSoC5/UART_1.c ****     *  No.
1191:Generated_Source\PSoC5/UART_1.c ****     *
1192:Generated_Source\PSoC5/UART_1.c ****     * Theory:
1193:Generated_Source\PSoC5/UART_1.c ****     *  This function will block if there is not enough memory to place the whole
1194:Generated_Source\PSoC5/UART_1.c ****     *  string, it will block until the entire string has been written to the
1195:Generated_Source\PSoC5/UART_1.c ****     *  transmit buffer.
1196:Generated_Source\PSoC5/UART_1.c ****     *
1197:Generated_Source\PSoC5/UART_1.c ****     *******************************************************************************/
1198:Generated_Source\PSoC5/UART_1.c ****     void UART_1_PutString(const char8 string[]) 
1199:Generated_Source\PSoC5/UART_1.c ****     {
 996              		.loc 1 1199 0
 997              		.cfi_startproc
 998              		@ args = 0, pretend = 0, frame = 16
 999              		@ frame_needed = 1, uses_anonymous_args = 0
 1000 0000 80B5     		push	{r7, lr}
 1001              		.cfi_def_cfa_offset 8
 1002              		.cfi_offset 7, -8
 1003              		.cfi_offset 14, -4
 1004 0002 84B0     		sub	sp, sp, #16
 1005              		.cfi_def_cfa_offset 24
 1006 0004 00AF     		add	r7, sp, #0
 1007              		.cfi_def_cfa_register 7
 1008 0006 7860     		str	r0, [r7, #4]
1200:Generated_Source\PSoC5/UART_1.c ****         uint16 buf_index = 0u;
 1009              		.loc 1 1200 0
 1010 0008 0023     		movs	r3, #0
 1011 000a FB81     		strh	r3, [r7, #14]	@ movhi
1201:Generated_Source\PSoC5/UART_1.c ****         /* If not Initialized then skip this function*/
1202:Generated_Source\PSoC5/UART_1.c ****         if(UART_1_initVar != 0u)
 1012              		.loc 1 1202 0
 1013 000c 0B4B     		ldr	r3, .L70
 1014 000e 1B78     		ldrb	r3, [r3]	@ zero_extendqisi2
 1015 0010 002B     		cmp	r3, #0
 1016 0012 10D0     		beq	.L66
1203:Generated_Source\PSoC5/UART_1.c ****         {
1204:Generated_Source\PSoC5/UART_1.c ****             /* This is a blocking function, it will not exit until all data is sent*/
1205:Generated_Source\PSoC5/UART_1.c ****             while(string[buf_index] != (char8)0)
 1017              		.loc 1 1205 0
ARM GAS  C:\Users\LOCALA~1\AppData\Local\Temp\cc30l4Zv.s 			page 40


 1018 0014 09E0     		b	.L68
 1019              	.L69:
1206:Generated_Source\PSoC5/UART_1.c ****             {
1207:Generated_Source\PSoC5/UART_1.c ****                 UART_1_PutChar((uint8)string[buf_index]);
 1020              		.loc 1 1207 0
 1021 0016 FB89     		ldrh	r3, [r7, #14]
 1022 0018 7A68     		ldr	r2, [r7, #4]
 1023 001a 1344     		add	r3, r3, r2
 1024 001c 1B78     		ldrb	r3, [r3]	@ zero_extendqisi2
 1025 001e 1846     		mov	r0, r3
 1026 0020 FFF7FEFF 		bl	UART_1_PutChar
1208:Generated_Source\PSoC5/UART_1.c ****                 buf_index++;
 1027              		.loc 1 1208 0
 1028 0024 FB89     		ldrh	r3, [r7, #14]
 1029 0026 0133     		adds	r3, r3, #1
 1030 0028 FB81     		strh	r3, [r7, #14]	@ movhi
 1031              	.L68:
1205:Generated_Source\PSoC5/UART_1.c ****             {
 1032              		.loc 1 1205 0
 1033 002a FB89     		ldrh	r3, [r7, #14]
 1034 002c 7A68     		ldr	r2, [r7, #4]
 1035 002e 1344     		add	r3, r3, r2
 1036 0030 1B78     		ldrb	r3, [r3]	@ zero_extendqisi2
 1037 0032 002B     		cmp	r3, #0
 1038 0034 EFD1     		bne	.L69
 1039              	.L66:
1209:Generated_Source\PSoC5/UART_1.c ****             }
1210:Generated_Source\PSoC5/UART_1.c ****         }
1211:Generated_Source\PSoC5/UART_1.c ****     }
 1040              		.loc 1 1211 0
 1041 0036 1037     		adds	r7, r7, #16
 1042              		.cfi_def_cfa_offset 8
 1043 0038 BD46     		mov	sp, r7
 1044              		.cfi_def_cfa_register 13
 1045              		@ sp needed
 1046 003a 80BD     		pop	{r7, pc}
 1047              	.L71:
 1048              		.align	2
 1049              	.L70:
 1050 003c 00000000 		.word	UART_1_initVar
 1051              		.cfi_endproc
 1052              	.LFE20:
 1053              		.size	UART_1_PutString, .-UART_1_PutString
 1054              		.section	.text.UART_1_PutArray,"ax",%progbits
 1055              		.align	2
 1056              		.global	UART_1_PutArray
 1057              		.thumb
 1058              		.thumb_func
 1059              		.type	UART_1_PutArray, %function
 1060              	UART_1_PutArray:
 1061              	.LFB21:
1212:Generated_Source\PSoC5/UART_1.c **** 
1213:Generated_Source\PSoC5/UART_1.c **** 
1214:Generated_Source\PSoC5/UART_1.c ****     /*******************************************************************************
1215:Generated_Source\PSoC5/UART_1.c ****     * Function Name: UART_1_PutArray
1216:Generated_Source\PSoC5/UART_1.c ****     ********************************************************************************
1217:Generated_Source\PSoC5/UART_1.c ****     *
ARM GAS  C:\Users\LOCALA~1\AppData\Local\Temp\cc30l4Zv.s 			page 41


1218:Generated_Source\PSoC5/UART_1.c ****     * Summary:
1219:Generated_Source\PSoC5/UART_1.c ****     *  Write a Sequence of bytes on the Transmit line. Data comes from RAM or ROM.
1220:Generated_Source\PSoC5/UART_1.c ****     *
1221:Generated_Source\PSoC5/UART_1.c ****     * Parameters:
1222:Generated_Source\PSoC5/UART_1.c ****     *  string: Address of the memory array residing in RAM or ROM.
1223:Generated_Source\PSoC5/UART_1.c ****     *  byteCount: Number of Bytes to be transmitted.
1224:Generated_Source\PSoC5/UART_1.c ****     *
1225:Generated_Source\PSoC5/UART_1.c ****     * Return:
1226:Generated_Source\PSoC5/UART_1.c ****     *  None.
1227:Generated_Source\PSoC5/UART_1.c ****     *
1228:Generated_Source\PSoC5/UART_1.c ****     * Global Variables:
1229:Generated_Source\PSoC5/UART_1.c ****     *  UART_1_initVar - checked to identify that the component has been
1230:Generated_Source\PSoC5/UART_1.c ****     *     initialized.
1231:Generated_Source\PSoC5/UART_1.c ****     *
1232:Generated_Source\PSoC5/UART_1.c ****     * Reentrant:
1233:Generated_Source\PSoC5/UART_1.c ****     *  No.
1234:Generated_Source\PSoC5/UART_1.c ****     *
1235:Generated_Source\PSoC5/UART_1.c ****     *******************************************************************************/
1236:Generated_Source\PSoC5/UART_1.c ****     void UART_1_PutArray(const uint8 string[], uint8 byteCount)
1237:Generated_Source\PSoC5/UART_1.c ****                                                                     
1238:Generated_Source\PSoC5/UART_1.c ****     {
 1062              		.loc 1 1238 0
 1063              		.cfi_startproc
 1064              		@ args = 0, pretend = 0, frame = 16
 1065              		@ frame_needed = 1, uses_anonymous_args = 0
 1066 0000 80B5     		push	{r7, lr}
 1067              		.cfi_def_cfa_offset 8
 1068              		.cfi_offset 7, -8
 1069              		.cfi_offset 14, -4
 1070 0002 84B0     		sub	sp, sp, #16
 1071              		.cfi_def_cfa_offset 24
 1072 0004 00AF     		add	r7, sp, #0
 1073              		.cfi_def_cfa_register 7
 1074 0006 7860     		str	r0, [r7, #4]
 1075 0008 0B46     		mov	r3, r1
 1076 000a FB70     		strb	r3, [r7, #3]
1239:Generated_Source\PSoC5/UART_1.c ****         uint8 buf_index = 0u;
 1077              		.loc 1 1239 0
 1078 000c 0023     		movs	r3, #0
 1079 000e FB73     		strb	r3, [r7, #15]
1240:Generated_Source\PSoC5/UART_1.c ****         /* If not Initialized then skip this function*/
1241:Generated_Source\PSoC5/UART_1.c ****         if(UART_1_initVar != 0u)
 1080              		.loc 1 1241 0
 1081 0010 0A4B     		ldr	r3, .L75
 1082 0012 1B78     		ldrb	r3, [r3]	@ zero_extendqisi2
 1083 0014 002B     		cmp	r3, #0
 1084 0016 0DD0     		beq	.L72
 1085              	.L74:
1242:Generated_Source\PSoC5/UART_1.c ****         {
1243:Generated_Source\PSoC5/UART_1.c ****             do
1244:Generated_Source\PSoC5/UART_1.c ****             {
1245:Generated_Source\PSoC5/UART_1.c ****                 UART_1_PutChar(string[buf_index]);
 1086              		.loc 1 1245 0 discriminator 1
 1087 0018 FB7B     		ldrb	r3, [r7, #15]	@ zero_extendqisi2
 1088 001a 7A68     		ldr	r2, [r7, #4]
 1089 001c 1344     		add	r3, r3, r2
 1090 001e 1B78     		ldrb	r3, [r3]	@ zero_extendqisi2
ARM GAS  C:\Users\LOCALA~1\AppData\Local\Temp\cc30l4Zv.s 			page 42


 1091 0020 1846     		mov	r0, r3
 1092 0022 FFF7FEFF 		bl	UART_1_PutChar
1246:Generated_Source\PSoC5/UART_1.c ****                 buf_index++;
 1093              		.loc 1 1246 0 discriminator 1
 1094 0026 FB7B     		ldrb	r3, [r7, #15]	@ zero_extendqisi2
 1095 0028 0133     		adds	r3, r3, #1
 1096 002a FB73     		strb	r3, [r7, #15]
1247:Generated_Source\PSoC5/UART_1.c ****             }while(buf_index < byteCount);
 1097              		.loc 1 1247 0 discriminator 1
 1098 002c FA7B     		ldrb	r2, [r7, #15]	@ zero_extendqisi2
 1099 002e FB78     		ldrb	r3, [r7, #3]	@ zero_extendqisi2
 1100 0030 9A42     		cmp	r2, r3
 1101 0032 F1D3     		bcc	.L74
 1102              	.L72:
1248:Generated_Source\PSoC5/UART_1.c ****         }
1249:Generated_Source\PSoC5/UART_1.c ****     }
 1103              		.loc 1 1249 0
 1104 0034 1037     		adds	r7, r7, #16
 1105              		.cfi_def_cfa_offset 8
 1106 0036 BD46     		mov	sp, r7
 1107              		.cfi_def_cfa_register 13
 1108              		@ sp needed
 1109 0038 80BD     		pop	{r7, pc}
 1110              	.L76:
 1111 003a 00BF     		.align	2
 1112              	.L75:
 1113 003c 00000000 		.word	UART_1_initVar
 1114              		.cfi_endproc
 1115              	.LFE21:
 1116              		.size	UART_1_PutArray, .-UART_1_PutArray
 1117              		.section	.text.UART_1_PutCRLF,"ax",%progbits
 1118              		.align	2
 1119              		.global	UART_1_PutCRLF
 1120              		.thumb
 1121              		.thumb_func
 1122              		.type	UART_1_PutCRLF, %function
 1123              	UART_1_PutCRLF:
 1124              	.LFB22:
1250:Generated_Source\PSoC5/UART_1.c **** 
1251:Generated_Source\PSoC5/UART_1.c **** 
1252:Generated_Source\PSoC5/UART_1.c ****     /*******************************************************************************
1253:Generated_Source\PSoC5/UART_1.c ****     * Function Name: UART_1_PutCRLF
1254:Generated_Source\PSoC5/UART_1.c ****     ********************************************************************************
1255:Generated_Source\PSoC5/UART_1.c ****     *
1256:Generated_Source\PSoC5/UART_1.c ****     * Summary:
1257:Generated_Source\PSoC5/UART_1.c ****     *  Write a character and then carriage return and line feed.
1258:Generated_Source\PSoC5/UART_1.c ****     *
1259:Generated_Source\PSoC5/UART_1.c ****     * Parameters:
1260:Generated_Source\PSoC5/UART_1.c ****     *  txDataByte: uint8 Character to send.
1261:Generated_Source\PSoC5/UART_1.c ****     *
1262:Generated_Source\PSoC5/UART_1.c ****     * Return:
1263:Generated_Source\PSoC5/UART_1.c ****     *  None.
1264:Generated_Source\PSoC5/UART_1.c ****     *
1265:Generated_Source\PSoC5/UART_1.c ****     * Global Variables:
1266:Generated_Source\PSoC5/UART_1.c ****     *  UART_1_initVar - checked to identify that the component has been
1267:Generated_Source\PSoC5/UART_1.c ****     *     initialized.
1268:Generated_Source\PSoC5/UART_1.c ****     *
ARM GAS  C:\Users\LOCALA~1\AppData\Local\Temp\cc30l4Zv.s 			page 43


1269:Generated_Source\PSoC5/UART_1.c ****     * Reentrant:
1270:Generated_Source\PSoC5/UART_1.c ****     *  No.
1271:Generated_Source\PSoC5/UART_1.c ****     *
1272:Generated_Source\PSoC5/UART_1.c ****     *******************************************************************************/
1273:Generated_Source\PSoC5/UART_1.c ****     void UART_1_PutCRLF(uint8 txDataByte) 
1274:Generated_Source\PSoC5/UART_1.c ****     {
 1125              		.loc 1 1274 0
 1126              		.cfi_startproc
 1127              		@ args = 0, pretend = 0, frame = 8
 1128              		@ frame_needed = 1, uses_anonymous_args = 0
 1129 0000 80B5     		push	{r7, lr}
 1130              		.cfi_def_cfa_offset 8
 1131              		.cfi_offset 7, -8
 1132              		.cfi_offset 14, -4
 1133 0002 82B0     		sub	sp, sp, #8
 1134              		.cfi_def_cfa_offset 16
 1135 0004 00AF     		add	r7, sp, #0
 1136              		.cfi_def_cfa_register 7
 1137 0006 0346     		mov	r3, r0
 1138 0008 FB71     		strb	r3, [r7, #7]
1275:Generated_Source\PSoC5/UART_1.c ****         /* If not Initialized then skip this function*/
1276:Generated_Source\PSoC5/UART_1.c ****         if(UART_1_initVar != 0u)
 1139              		.loc 1 1276 0
 1140 000a 084B     		ldr	r3, .L79
 1141 000c 1B78     		ldrb	r3, [r3]	@ zero_extendqisi2
 1142 000e 002B     		cmp	r3, #0
 1143 0010 09D0     		beq	.L77
1277:Generated_Source\PSoC5/UART_1.c ****         {
1278:Generated_Source\PSoC5/UART_1.c ****             UART_1_PutChar(txDataByte);
 1144              		.loc 1 1278 0
 1145 0012 FB79     		ldrb	r3, [r7, #7]	@ zero_extendqisi2
 1146 0014 1846     		mov	r0, r3
 1147 0016 FFF7FEFF 		bl	UART_1_PutChar
1279:Generated_Source\PSoC5/UART_1.c ****             UART_1_PutChar(0x0Du);
 1148              		.loc 1 1279 0
 1149 001a 0D20     		movs	r0, #13
 1150 001c FFF7FEFF 		bl	UART_1_PutChar
1280:Generated_Source\PSoC5/UART_1.c ****             UART_1_PutChar(0x0Au);
 1151              		.loc 1 1280 0
 1152 0020 0A20     		movs	r0, #10
 1153 0022 FFF7FEFF 		bl	UART_1_PutChar
 1154              	.L77:
1281:Generated_Source\PSoC5/UART_1.c ****         }
1282:Generated_Source\PSoC5/UART_1.c ****     }
 1155              		.loc 1 1282 0
 1156 0026 0837     		adds	r7, r7, #8
 1157              		.cfi_def_cfa_offset 8
 1158 0028 BD46     		mov	sp, r7
 1159              		.cfi_def_cfa_register 13
 1160              		@ sp needed
 1161 002a 80BD     		pop	{r7, pc}
 1162              	.L80:
 1163              		.align	2
 1164              	.L79:
 1165 002c 00000000 		.word	UART_1_initVar
 1166              		.cfi_endproc
 1167              	.LFE22:
ARM GAS  C:\Users\LOCALA~1\AppData\Local\Temp\cc30l4Zv.s 			page 44


 1168              		.size	UART_1_PutCRLF, .-UART_1_PutCRLF
 1169              		.section	.text.UART_1_GetTxBufferSize,"ax",%progbits
 1170              		.align	2
 1171              		.global	UART_1_GetTxBufferSize
 1172              		.thumb
 1173              		.thumb_func
 1174              		.type	UART_1_GetTxBufferSize, %function
 1175              	UART_1_GetTxBufferSize:
 1176              	.LFB23:
1283:Generated_Source\PSoC5/UART_1.c **** 
1284:Generated_Source\PSoC5/UART_1.c **** 
1285:Generated_Source\PSoC5/UART_1.c ****     /*******************************************************************************
1286:Generated_Source\PSoC5/UART_1.c ****     * Function Name: UART_1_GetTxBufferSize
1287:Generated_Source\PSoC5/UART_1.c ****     ********************************************************************************
1288:Generated_Source\PSoC5/UART_1.c ****     *
1289:Generated_Source\PSoC5/UART_1.c ****     * Summary:
1290:Generated_Source\PSoC5/UART_1.c ****     *  Determine the amount of space left in the TX buffer and return the count in
1291:Generated_Source\PSoC5/UART_1.c ****     *  bytes
1292:Generated_Source\PSoC5/UART_1.c ****     *
1293:Generated_Source\PSoC5/UART_1.c ****     * Parameters:
1294:Generated_Source\PSoC5/UART_1.c ****     *  None.
1295:Generated_Source\PSoC5/UART_1.c ****     *
1296:Generated_Source\PSoC5/UART_1.c ****     * Return:
1297:Generated_Source\PSoC5/UART_1.c ****     *  Integer count of the number of bytes left in the TX buffer
1298:Generated_Source\PSoC5/UART_1.c ****     *
1299:Generated_Source\PSoC5/UART_1.c ****     * Global Variables:
1300:Generated_Source\PSoC5/UART_1.c ****     *  UART_1_txBufferWrite - used to calculate left space.
1301:Generated_Source\PSoC5/UART_1.c ****     *  UART_1_txBufferRead - used to calculate left space.
1302:Generated_Source\PSoC5/UART_1.c ****     *
1303:Generated_Source\PSoC5/UART_1.c ****     * Reentrant:
1304:Generated_Source\PSoC5/UART_1.c ****     *  No.
1305:Generated_Source\PSoC5/UART_1.c ****     *
1306:Generated_Source\PSoC5/UART_1.c ****     * Theory:
1307:Generated_Source\PSoC5/UART_1.c ****     *  Allows the user to find out how full the TX Buffer is.
1308:Generated_Source\PSoC5/UART_1.c ****     *
1309:Generated_Source\PSoC5/UART_1.c ****     *******************************************************************************/
1310:Generated_Source\PSoC5/UART_1.c ****     uint8 UART_1_GetTxBufferSize(void)
1311:Generated_Source\PSoC5/UART_1.c ****                                                             
1312:Generated_Source\PSoC5/UART_1.c ****     {
 1177              		.loc 1 1312 0
 1178              		.cfi_startproc
 1179              		@ args = 0, pretend = 0, frame = 8
 1180              		@ frame_needed = 1, uses_anonymous_args = 0
 1181              		@ link register save eliminated.
 1182 0000 80B4     		push	{r7}
 1183              		.cfi_def_cfa_offset 4
 1184              		.cfi_offset 7, -4
 1185 0002 83B0     		sub	sp, sp, #12
 1186              		.cfi_def_cfa_offset 16
 1187 0004 00AF     		add	r7, sp, #0
 1188              		.cfi_def_cfa_register 7
1313:Generated_Source\PSoC5/UART_1.c ****         uint8 size;
1314:Generated_Source\PSoC5/UART_1.c **** 
1315:Generated_Source\PSoC5/UART_1.c ****         #if(UART_1_TXBUFFERSIZE > UART_1_FIFO_LENGTH)
1316:Generated_Source\PSoC5/UART_1.c **** 
1317:Generated_Source\PSoC5/UART_1.c ****             /* Disable Tx interrupt. */
1318:Generated_Source\PSoC5/UART_1.c ****             /* Protect variables that could change on interrupt. */
ARM GAS  C:\Users\LOCALA~1\AppData\Local\Temp\cc30l4Zv.s 			page 45


1319:Generated_Source\PSoC5/UART_1.c ****             #if(UART_1_TX_INTERRUPT_ENABLED)
1320:Generated_Source\PSoC5/UART_1.c ****                 UART_1_DisableTxInt();
1321:Generated_Source\PSoC5/UART_1.c ****             #endif /* End UART_1_TX_INTERRUPT_ENABLED */
1322:Generated_Source\PSoC5/UART_1.c **** 
1323:Generated_Source\PSoC5/UART_1.c ****             if(UART_1_txBufferRead == UART_1_txBufferWrite)
1324:Generated_Source\PSoC5/UART_1.c ****             {
1325:Generated_Source\PSoC5/UART_1.c ****                 size = 0u;
1326:Generated_Source\PSoC5/UART_1.c ****             }
1327:Generated_Source\PSoC5/UART_1.c ****             else if(UART_1_txBufferRead < UART_1_txBufferWrite)
1328:Generated_Source\PSoC5/UART_1.c ****             {
1329:Generated_Source\PSoC5/UART_1.c ****                 size = (UART_1_txBufferWrite - UART_1_txBufferRead);
1330:Generated_Source\PSoC5/UART_1.c ****             }
1331:Generated_Source\PSoC5/UART_1.c ****             else
1332:Generated_Source\PSoC5/UART_1.c ****             {
1333:Generated_Source\PSoC5/UART_1.c ****                 size = (UART_1_TXBUFFERSIZE - UART_1_txBufferRead) + UART_1_txBufferWrite;
1334:Generated_Source\PSoC5/UART_1.c ****             }
1335:Generated_Source\PSoC5/UART_1.c **** 
1336:Generated_Source\PSoC5/UART_1.c ****             /* Enable Tx interrupt. */
1337:Generated_Source\PSoC5/UART_1.c ****             #if(UART_1_TX_INTERRUPT_ENABLED)
1338:Generated_Source\PSoC5/UART_1.c ****                 UART_1_EnableTxInt();
1339:Generated_Source\PSoC5/UART_1.c ****             #endif /* End UART_1_TX_INTERRUPT_ENABLED */
1340:Generated_Source\PSoC5/UART_1.c **** 
1341:Generated_Source\PSoC5/UART_1.c ****         #else /* UART_1_TXBUFFERSIZE > UART_1_FIFO_LENGTH */
1342:Generated_Source\PSoC5/UART_1.c **** 
1343:Generated_Source\PSoC5/UART_1.c ****             size = UART_1_TXSTATUS_REG;
 1189              		.loc 1 1343 0
 1190 0006 0E4B     		ldr	r3, .L86
 1191 0008 1B78     		ldrb	r3, [r3]
 1192 000a FB71     		strb	r3, [r7, #7]
1344:Generated_Source\PSoC5/UART_1.c **** 
1345:Generated_Source\PSoC5/UART_1.c ****             /* Is the fifo is full. */
1346:Generated_Source\PSoC5/UART_1.c ****             if((size & UART_1_TX_STS_FIFO_FULL) != 0u)
 1193              		.loc 1 1346 0
 1194 000c FB79     		ldrb	r3, [r7, #7]	@ zero_extendqisi2
 1195 000e 03F00403 		and	r3, r3, #4
 1196 0012 002B     		cmp	r3, #0
 1197 0014 02D0     		beq	.L82
1347:Generated_Source\PSoC5/UART_1.c ****             {
1348:Generated_Source\PSoC5/UART_1.c ****                 size = UART_1_FIFO_LENGTH;
 1198              		.loc 1 1348 0
 1199 0016 0423     		movs	r3, #4
 1200 0018 FB71     		strb	r3, [r7, #7]
 1201 001a 09E0     		b	.L83
 1202              	.L82:
1349:Generated_Source\PSoC5/UART_1.c ****             }
1350:Generated_Source\PSoC5/UART_1.c ****             else if((size & UART_1_TX_STS_FIFO_EMPTY) != 0u)
 1203              		.loc 1 1350 0
 1204 001c FB79     		ldrb	r3, [r7, #7]	@ zero_extendqisi2
 1205 001e 03F00203 		and	r3, r3, #2
 1206 0022 002B     		cmp	r3, #0
 1207 0024 02D0     		beq	.L84
1351:Generated_Source\PSoC5/UART_1.c ****             {
1352:Generated_Source\PSoC5/UART_1.c ****                 size = 0u;
 1208              		.loc 1 1352 0
 1209 0026 0023     		movs	r3, #0
 1210 0028 FB71     		strb	r3, [r7, #7]
 1211 002a 01E0     		b	.L83
ARM GAS  C:\Users\LOCALA~1\AppData\Local\Temp\cc30l4Zv.s 			page 46


 1212              	.L84:
1353:Generated_Source\PSoC5/UART_1.c ****             }
1354:Generated_Source\PSoC5/UART_1.c ****             else
1355:Generated_Source\PSoC5/UART_1.c ****             {
1356:Generated_Source\PSoC5/UART_1.c ****                 /* We only know there is data in the fifo. */
1357:Generated_Source\PSoC5/UART_1.c ****                 size = 1u;
 1213              		.loc 1 1357 0
 1214 002c 0123     		movs	r3, #1
 1215 002e FB71     		strb	r3, [r7, #7]
 1216              	.L83:
1358:Generated_Source\PSoC5/UART_1.c ****             }
1359:Generated_Source\PSoC5/UART_1.c **** 
1360:Generated_Source\PSoC5/UART_1.c ****         #endif /* End UART_1_TXBUFFERSIZE > UART_1_FIFO_LENGTH */
1361:Generated_Source\PSoC5/UART_1.c **** 
1362:Generated_Source\PSoC5/UART_1.c ****         return(size);
 1217              		.loc 1 1362 0
 1218 0030 FB79     		ldrb	r3, [r7, #7]	@ zero_extendqisi2
1363:Generated_Source\PSoC5/UART_1.c ****     }
 1219              		.loc 1 1363 0
 1220 0032 1846     		mov	r0, r3
 1221 0034 0C37     		adds	r7, r7, #12
 1222              		.cfi_def_cfa_offset 4
 1223 0036 BD46     		mov	sp, r7
 1224              		.cfi_def_cfa_register 13
 1225              		@ sp needed
 1226 0038 5DF8047B 		ldr	r7, [sp], #4
 1227              		.cfi_restore 7
 1228              		.cfi_def_cfa_offset 0
 1229 003c 7047     		bx	lr
 1230              	.L87:
 1231 003e 00BF     		.align	2
 1232              	.L86:
 1233 0040 69640040 		.word	1073767529
 1234              		.cfi_endproc
 1235              	.LFE23:
 1236              		.size	UART_1_GetTxBufferSize, .-UART_1_GetTxBufferSize
 1237              		.section	.text.UART_1_ClearTxBuffer,"ax",%progbits
 1238              		.align	2
 1239              		.global	UART_1_ClearTxBuffer
 1240              		.thumb
 1241              		.thumb_func
 1242              		.type	UART_1_ClearTxBuffer, %function
 1243              	UART_1_ClearTxBuffer:
 1244              	.LFB24:
1364:Generated_Source\PSoC5/UART_1.c **** 
1365:Generated_Source\PSoC5/UART_1.c **** 
1366:Generated_Source\PSoC5/UART_1.c ****     /*******************************************************************************
1367:Generated_Source\PSoC5/UART_1.c ****     * Function Name: UART_1_ClearTxBuffer
1368:Generated_Source\PSoC5/UART_1.c ****     ********************************************************************************
1369:Generated_Source\PSoC5/UART_1.c ****     *
1370:Generated_Source\PSoC5/UART_1.c ****     * Summary:
1371:Generated_Source\PSoC5/UART_1.c ****     *  Clears the TX RAM buffer by setting the read and write pointers both to zero.
1372:Generated_Source\PSoC5/UART_1.c ****     *  Clears the hardware TX FIFO.  Any data present in the FIFO will not be sent.
1373:Generated_Source\PSoC5/UART_1.c ****     *
1374:Generated_Source\PSoC5/UART_1.c ****     * Parameters:
1375:Generated_Source\PSoC5/UART_1.c ****     *  None.
1376:Generated_Source\PSoC5/UART_1.c ****     *
ARM GAS  C:\Users\LOCALA~1\AppData\Local\Temp\cc30l4Zv.s 			page 47


1377:Generated_Source\PSoC5/UART_1.c ****     * Return:
1378:Generated_Source\PSoC5/UART_1.c ****     *  None.
1379:Generated_Source\PSoC5/UART_1.c ****     *
1380:Generated_Source\PSoC5/UART_1.c ****     * Global Variables:
1381:Generated_Source\PSoC5/UART_1.c ****     *  UART_1_txBufferWrite - cleared to zero.
1382:Generated_Source\PSoC5/UART_1.c ****     *  UART_1_txBufferRead - cleared to zero.
1383:Generated_Source\PSoC5/UART_1.c ****     *
1384:Generated_Source\PSoC5/UART_1.c ****     * Reentrant:
1385:Generated_Source\PSoC5/UART_1.c ****     *  No.
1386:Generated_Source\PSoC5/UART_1.c ****     *
1387:Generated_Source\PSoC5/UART_1.c ****     * Theory:
1388:Generated_Source\PSoC5/UART_1.c ****     *  Setting the pointers to zero makes the system believe there is no data to
1389:Generated_Source\PSoC5/UART_1.c ****     *  read and writing will resume at address 0 overwriting any data that may have
1390:Generated_Source\PSoC5/UART_1.c ****     *  remained in the RAM.
1391:Generated_Source\PSoC5/UART_1.c ****     *
1392:Generated_Source\PSoC5/UART_1.c ****     * Side Effects:
1393:Generated_Source\PSoC5/UART_1.c ****     *  Any received data not read from the RAM buffer will be lost when overwritten.
1394:Generated_Source\PSoC5/UART_1.c ****     *
1395:Generated_Source\PSoC5/UART_1.c ****     *******************************************************************************/
1396:Generated_Source\PSoC5/UART_1.c ****     void UART_1_ClearTxBuffer(void) 
1397:Generated_Source\PSoC5/UART_1.c ****     {
 1245              		.loc 1 1397 0
 1246              		.cfi_startproc
 1247              		@ args = 0, pretend = 0, frame = 8
 1248              		@ frame_needed = 1, uses_anonymous_args = 0
 1249 0000 80B5     		push	{r7, lr}
 1250              		.cfi_def_cfa_offset 8
 1251              		.cfi_offset 7, -8
 1252              		.cfi_offset 14, -4
 1253 0002 82B0     		sub	sp, sp, #8
 1254              		.cfi_def_cfa_offset 16
 1255 0004 00AF     		add	r7, sp, #0
 1256              		.cfi_def_cfa_register 7
1398:Generated_Source\PSoC5/UART_1.c ****         uint8 enableInterrupts;
1399:Generated_Source\PSoC5/UART_1.c **** 
1400:Generated_Source\PSoC5/UART_1.c ****         /* Enter critical section */
1401:Generated_Source\PSoC5/UART_1.c ****         enableInterrupts = CyEnterCriticalSection();
 1257              		.loc 1 1401 0
 1258 0006 FFF7FEFF 		bl	CyEnterCriticalSection
 1259 000a 0346     		mov	r3, r0
 1260 000c FB71     		strb	r3, [r7, #7]
1402:Generated_Source\PSoC5/UART_1.c ****         /* clear the HW FIFO */
1403:Generated_Source\PSoC5/UART_1.c ****         UART_1_TXDATA_AUX_CTL_REG |=  UART_1_TX_FIFO_CLR;
 1261              		.loc 1 1403 0
 1262 000e 0B4A     		ldr	r2, .L89
 1263 0010 0A4B     		ldr	r3, .L89
 1264 0012 1B78     		ldrb	r3, [r3]
 1265 0014 DBB2     		uxtb	r3, r3
 1266 0016 43F00103 		orr	r3, r3, #1
 1267 001a DBB2     		uxtb	r3, r3
 1268 001c 1370     		strb	r3, [r2]
1404:Generated_Source\PSoC5/UART_1.c ****         UART_1_TXDATA_AUX_CTL_REG &= (uint8)~UART_1_TX_FIFO_CLR;
 1269              		.loc 1 1404 0
 1270 001e 074A     		ldr	r2, .L89
 1271 0020 064B     		ldr	r3, .L89
 1272 0022 1B78     		ldrb	r3, [r3]
 1273 0024 DBB2     		uxtb	r3, r3
ARM GAS  C:\Users\LOCALA~1\AppData\Local\Temp\cc30l4Zv.s 			page 48


 1274 0026 23F00103 		bic	r3, r3, #1
 1275 002a DBB2     		uxtb	r3, r3
 1276 002c 1370     		strb	r3, [r2]
1405:Generated_Source\PSoC5/UART_1.c ****         /* Exit critical section */
1406:Generated_Source\PSoC5/UART_1.c ****         CyExitCriticalSection(enableInterrupts);
 1277              		.loc 1 1406 0
 1278 002e FB79     		ldrb	r3, [r7, #7]	@ zero_extendqisi2
 1279 0030 1846     		mov	r0, r3
 1280 0032 FFF7FEFF 		bl	CyExitCriticalSection
1407:Generated_Source\PSoC5/UART_1.c **** 
1408:Generated_Source\PSoC5/UART_1.c ****         #if(UART_1_TXBUFFERSIZE > UART_1_FIFO_LENGTH)
1409:Generated_Source\PSoC5/UART_1.c **** 
1410:Generated_Source\PSoC5/UART_1.c ****             /* Disable Tx interrupt. */
1411:Generated_Source\PSoC5/UART_1.c ****             /* Protect variables that could change on interrupt. */
1412:Generated_Source\PSoC5/UART_1.c ****             #if(UART_1_TX_INTERRUPT_ENABLED)
1413:Generated_Source\PSoC5/UART_1.c ****                 UART_1_DisableTxInt();
1414:Generated_Source\PSoC5/UART_1.c ****             #endif /* End UART_1_TX_INTERRUPT_ENABLED */
1415:Generated_Source\PSoC5/UART_1.c **** 
1416:Generated_Source\PSoC5/UART_1.c ****             UART_1_txBufferRead = 0u;
1417:Generated_Source\PSoC5/UART_1.c ****             UART_1_txBufferWrite = 0u;
1418:Generated_Source\PSoC5/UART_1.c **** 
1419:Generated_Source\PSoC5/UART_1.c ****             /* Enable Tx interrupt. */
1420:Generated_Source\PSoC5/UART_1.c ****             #if(UART_1_TX_INTERRUPT_ENABLED)
1421:Generated_Source\PSoC5/UART_1.c ****                 UART_1_EnableTxInt();
1422:Generated_Source\PSoC5/UART_1.c ****             #endif /* End UART_1_TX_INTERRUPT_ENABLED */
1423:Generated_Source\PSoC5/UART_1.c **** 
1424:Generated_Source\PSoC5/UART_1.c ****         #endif /* End UART_1_TXBUFFERSIZE > UART_1_FIFO_LENGTH */
1425:Generated_Source\PSoC5/UART_1.c ****     }
 1281              		.loc 1 1425 0
 1282 0036 0837     		adds	r7, r7, #8
 1283              		.cfi_def_cfa_offset 8
 1284 0038 BD46     		mov	sp, r7
 1285              		.cfi_def_cfa_register 13
 1286              		@ sp needed
 1287 003a 80BD     		pop	{r7, pc}
 1288              	.L90:
 1289              		.align	2
 1290              	.L89:
 1291 003c 99640040 		.word	1073767577
 1292              		.cfi_endproc
 1293              	.LFE24:
 1294              		.size	UART_1_ClearTxBuffer, .-UART_1_ClearTxBuffer
 1295              		.section	.text.UART_1_SendBreak,"ax",%progbits
 1296              		.align	2
 1297              		.global	UART_1_SendBreak
 1298              		.thumb
 1299              		.thumb_func
 1300              		.type	UART_1_SendBreak, %function
 1301              	UART_1_SendBreak:
 1302              	.LFB25:
1426:Generated_Source\PSoC5/UART_1.c **** 
1427:Generated_Source\PSoC5/UART_1.c **** 
1428:Generated_Source\PSoC5/UART_1.c ****     /*******************************************************************************
1429:Generated_Source\PSoC5/UART_1.c ****     * Function Name: UART_1_SendBreak
1430:Generated_Source\PSoC5/UART_1.c ****     ********************************************************************************
1431:Generated_Source\PSoC5/UART_1.c ****     *
1432:Generated_Source\PSoC5/UART_1.c ****     * Summary:
ARM GAS  C:\Users\LOCALA~1\AppData\Local\Temp\cc30l4Zv.s 			page 49


1433:Generated_Source\PSoC5/UART_1.c ****     *  Write a Break command to the UART
1434:Generated_Source\PSoC5/UART_1.c ****     *
1435:Generated_Source\PSoC5/UART_1.c ****     * Parameters:
1436:Generated_Source\PSoC5/UART_1.c ****     *  uint8 retMode:  Wait mode,
1437:Generated_Source\PSoC5/UART_1.c ****     *   0 - Initialize registers for Break, sends the Break signal and return
1438:Generated_Source\PSoC5/UART_1.c ****     *       imediately.
1439:Generated_Source\PSoC5/UART_1.c ****     *   1 - Wait until Break sending is complete, reinitialize registers to normal
1440:Generated_Source\PSoC5/UART_1.c ****     *       transmission mode then return.
1441:Generated_Source\PSoC5/UART_1.c ****     *   2 - Reinitialize registers to normal transmission mode then return.
1442:Generated_Source\PSoC5/UART_1.c ****     *   3 - both steps: 0 and 1
1443:Generated_Source\PSoC5/UART_1.c ****     *       init registers for Break, send Break signal
1444:Generated_Source\PSoC5/UART_1.c ****     *       wait until Break sending is complete, reinit registers to normal
1445:Generated_Source\PSoC5/UART_1.c ****     *       transmission mode then return.
1446:Generated_Source\PSoC5/UART_1.c ****     *
1447:Generated_Source\PSoC5/UART_1.c ****     * Return:
1448:Generated_Source\PSoC5/UART_1.c ****     *  None.
1449:Generated_Source\PSoC5/UART_1.c ****     *
1450:Generated_Source\PSoC5/UART_1.c ****     * Global Variables:
1451:Generated_Source\PSoC5/UART_1.c ****     *  UART_1_initVar - checked to identify that the component has been
1452:Generated_Source\PSoC5/UART_1.c ****     *     initialized.
1453:Generated_Source\PSoC5/UART_1.c ****     *  tx_period - static variable, used for keeping TX period configuration.
1454:Generated_Source\PSoC5/UART_1.c ****     *
1455:Generated_Source\PSoC5/UART_1.c ****     * Reentrant:
1456:Generated_Source\PSoC5/UART_1.c ****     *  No.
1457:Generated_Source\PSoC5/UART_1.c ****     *
1458:Generated_Source\PSoC5/UART_1.c ****     * Theory:
1459:Generated_Source\PSoC5/UART_1.c ****     *  SendBreak function initializes registers to send 13-bit break signal. It is
1460:Generated_Source\PSoC5/UART_1.c ****     *  important to return the registers configuration to normal for continue 8-bit
1461:Generated_Source\PSoC5/UART_1.c ****     *  operation.
1462:Generated_Source\PSoC5/UART_1.c ****     *  Trere are 3 variants for this API usage:
1463:Generated_Source\PSoC5/UART_1.c ****     *  1) SendBreak(3) - function will send the Break signal and take care on the
1464:Generated_Source\PSoC5/UART_1.c ****     *     configuration returning. Funcition will block CPU untill transmition
1465:Generated_Source\PSoC5/UART_1.c ****     *     complete.
1466:Generated_Source\PSoC5/UART_1.c ****     *  2) User may want to use bloking time if UART configured to the low speed
1467:Generated_Source\PSoC5/UART_1.c ****     *     operation
1468:Generated_Source\PSoC5/UART_1.c ****     *     Emample for this case:
1469:Generated_Source\PSoC5/UART_1.c ****     *     SendBreak(0);     - init Break signal transmition
1470:Generated_Source\PSoC5/UART_1.c ****     *         Add your code here to use CPU time
1471:Generated_Source\PSoC5/UART_1.c ****     *     SendBreak(1);     - complete Break operation
1472:Generated_Source\PSoC5/UART_1.c ****     *  3) Same to 2) but user may want to init and use the interrupt for complete
1473:Generated_Source\PSoC5/UART_1.c ****     *     break operation.
1474:Generated_Source\PSoC5/UART_1.c ****     *     Example for this case:
1475:Generated_Source\PSoC5/UART_1.c ****     *     Init TX interrupt whith "TX - On TX Complete" parameter
1476:Generated_Source\PSoC5/UART_1.c ****     *     SendBreak(0);     - init Break signal transmition
1477:Generated_Source\PSoC5/UART_1.c ****     *         Add your code here to use CPU time
1478:Generated_Source\PSoC5/UART_1.c ****     *     When interrupt appear with UART_TX_STS_COMPLETE status:
1479:Generated_Source\PSoC5/UART_1.c ****     *     SendBreak(2);     - complete Break operation
1480:Generated_Source\PSoC5/UART_1.c ****     *
1481:Generated_Source\PSoC5/UART_1.c ****     * Side Effects:
1482:Generated_Source\PSoC5/UART_1.c ****     *   Uses static variable to keep registers configuration.
1483:Generated_Source\PSoC5/UART_1.c ****     *
1484:Generated_Source\PSoC5/UART_1.c ****     *******************************************************************************/
1485:Generated_Source\PSoC5/UART_1.c ****     void UART_1_SendBreak(uint8 retMode) 
1486:Generated_Source\PSoC5/UART_1.c ****     {
 1303              		.loc 1 1486 0
 1304              		.cfi_startproc
 1305              		@ args = 0, pretend = 0, frame = 16
ARM GAS  C:\Users\LOCALA~1\AppData\Local\Temp\cc30l4Zv.s 			page 50


 1306              		@ frame_needed = 1, uses_anonymous_args = 0
 1307              		@ link register save eliminated.
 1308 0000 80B4     		push	{r7}
 1309              		.cfi_def_cfa_offset 4
 1310              		.cfi_offset 7, -4
 1311 0002 85B0     		sub	sp, sp, #20
 1312              		.cfi_def_cfa_offset 24
 1313 0004 00AF     		add	r7, sp, #0
 1314              		.cfi_def_cfa_register 7
 1315 0006 0346     		mov	r3, r0
 1316 0008 FB71     		strb	r3, [r7, #7]
1487:Generated_Source\PSoC5/UART_1.c **** 
1488:Generated_Source\PSoC5/UART_1.c ****         /* If not Initialized then skip this function*/
1489:Generated_Source\PSoC5/UART_1.c ****         if(UART_1_initVar != 0u)
 1317              		.loc 1 1489 0
 1318 000a 1F4B     		ldr	r3, .L99
 1319 000c 1B78     		ldrb	r3, [r3]	@ zero_extendqisi2
 1320 000e 002B     		cmp	r3, #0
 1321 0010 35D0     		beq	.L91
 1322              	.LBB2:
1490:Generated_Source\PSoC5/UART_1.c ****         {
1491:Generated_Source\PSoC5/UART_1.c ****             /*Set the Counter to 13-bits and transmit a 00 byte*/
1492:Generated_Source\PSoC5/UART_1.c ****             /*When that is done then reset the counter value back*/
1493:Generated_Source\PSoC5/UART_1.c ****             uint8 tmpStat;
1494:Generated_Source\PSoC5/UART_1.c **** 
1495:Generated_Source\PSoC5/UART_1.c ****             #if(UART_1_HD_ENABLED) /* Half Duplex mode*/
1496:Generated_Source\PSoC5/UART_1.c **** 
1497:Generated_Source\PSoC5/UART_1.c ****                 if( (retMode == UART_1_SEND_BREAK) ||
1498:Generated_Source\PSoC5/UART_1.c ****                     (retMode == UART_1_SEND_WAIT_REINIT ) )
1499:Generated_Source\PSoC5/UART_1.c ****                 {
1500:Generated_Source\PSoC5/UART_1.c ****                     /* CTRL_HD_SEND_BREAK - sends break bits in HD mode*/
1501:Generated_Source\PSoC5/UART_1.c ****                     UART_1_WriteControlRegister(UART_1_ReadControlRegister() |
1502:Generated_Source\PSoC5/UART_1.c ****                                                           UART_1_CTRL_HD_SEND_BREAK);
1503:Generated_Source\PSoC5/UART_1.c ****                     /* Send zeros*/
1504:Generated_Source\PSoC5/UART_1.c ****                     UART_1_TXDATA_REG = 0u;
1505:Generated_Source\PSoC5/UART_1.c **** 
1506:Generated_Source\PSoC5/UART_1.c ****                     do /*wait until transmit starts*/
1507:Generated_Source\PSoC5/UART_1.c ****                     {
1508:Generated_Source\PSoC5/UART_1.c ****                         tmpStat = UART_1_TXSTATUS_REG;
1509:Generated_Source\PSoC5/UART_1.c ****                     }while((tmpStat & UART_1_TX_STS_FIFO_EMPTY) != 0u);
1510:Generated_Source\PSoC5/UART_1.c ****                 }
1511:Generated_Source\PSoC5/UART_1.c **** 
1512:Generated_Source\PSoC5/UART_1.c ****                 if( (retMode == UART_1_WAIT_FOR_COMPLETE_REINIT) ||
1513:Generated_Source\PSoC5/UART_1.c ****                     (retMode == UART_1_SEND_WAIT_REINIT) )
1514:Generated_Source\PSoC5/UART_1.c ****                 {
1515:Generated_Source\PSoC5/UART_1.c ****                     do /*wait until transmit complete*/
1516:Generated_Source\PSoC5/UART_1.c ****                     {
1517:Generated_Source\PSoC5/UART_1.c ****                         tmpStat = UART_1_TXSTATUS_REG;
1518:Generated_Source\PSoC5/UART_1.c ****                     }while(((uint8)~tmpStat & UART_1_TX_STS_COMPLETE) != 0u);
1519:Generated_Source\PSoC5/UART_1.c ****                 }
1520:Generated_Source\PSoC5/UART_1.c **** 
1521:Generated_Source\PSoC5/UART_1.c ****                 if( (retMode == UART_1_WAIT_FOR_COMPLETE_REINIT) ||
1522:Generated_Source\PSoC5/UART_1.c ****                     (retMode == UART_1_REINIT) ||
1523:Generated_Source\PSoC5/UART_1.c ****                     (retMode == UART_1_SEND_WAIT_REINIT) )
1524:Generated_Source\PSoC5/UART_1.c ****                 {
1525:Generated_Source\PSoC5/UART_1.c ****                     UART_1_WriteControlRegister(UART_1_ReadControlRegister() &
1526:Generated_Source\PSoC5/UART_1.c ****                                                   (uint8)~UART_1_CTRL_HD_SEND_BREAK);
ARM GAS  C:\Users\LOCALA~1\AppData\Local\Temp\cc30l4Zv.s 			page 51


1527:Generated_Source\PSoC5/UART_1.c ****                 }
1528:Generated_Source\PSoC5/UART_1.c **** 
1529:Generated_Source\PSoC5/UART_1.c ****             #else /* UART_1_HD_ENABLED Full Duplex mode */
1530:Generated_Source\PSoC5/UART_1.c **** 
1531:Generated_Source\PSoC5/UART_1.c ****                 static uint8 tx_period;
1532:Generated_Source\PSoC5/UART_1.c **** 
1533:Generated_Source\PSoC5/UART_1.c ****                 if( (retMode == UART_1_SEND_BREAK) ||
 1323              		.loc 1 1533 0
 1324 0012 FB79     		ldrb	r3, [r7, #7]	@ zero_extendqisi2
 1325 0014 002B     		cmp	r3, #0
 1326 0016 02D0     		beq	.L93
 1327              		.loc 1 1533 0 is_stmt 0 discriminator 1
 1328 0018 FB79     		ldrb	r3, [r7, #7]	@ zero_extendqisi2
 1329 001a 032B     		cmp	r3, #3
 1330 001c 12D1     		bne	.L94
 1331              	.L93:
1534:Generated_Source\PSoC5/UART_1.c ****                     (retMode == UART_1_SEND_WAIT_REINIT) )
1535:Generated_Source\PSoC5/UART_1.c ****                 {
1536:Generated_Source\PSoC5/UART_1.c ****                     /* CTRL_HD_SEND_BREAK - skip to send parity bit at Break signal in Full Duplex 
1537:Generated_Source\PSoC5/UART_1.c ****                     #if( (UART_1_PARITY_TYPE != UART_1__B_UART__NONE_REVB) || \
1538:Generated_Source\PSoC5/UART_1.c ****                                         (UART_1_PARITY_TYPE_SW != 0u) )
1539:Generated_Source\PSoC5/UART_1.c ****                         UART_1_WriteControlRegister(UART_1_ReadControlRegister() |
1540:Generated_Source\PSoC5/UART_1.c ****                                                               UART_1_CTRL_HD_SEND_BREAK);
1541:Generated_Source\PSoC5/UART_1.c ****                     #endif /* End UART_1_PARITY_TYPE != UART_1__B_UART__NONE_REVB  */
1542:Generated_Source\PSoC5/UART_1.c **** 
1543:Generated_Source\PSoC5/UART_1.c ****                     #if(UART_1_TXCLKGEN_DP)
1544:Generated_Source\PSoC5/UART_1.c ****                         tx_period = UART_1_TXBITCLKTX_COMPLETE_REG;
 1332              		.loc 1 1544 0 is_stmt 1
 1333 001e 1B4B     		ldr	r3, .L99+4
 1334 0020 1B78     		ldrb	r3, [r3]
 1335 0022 DAB2     		uxtb	r2, r3
 1336 0024 1A4B     		ldr	r3, .L99+8
 1337 0026 1A70     		strb	r2, [r3]
1545:Generated_Source\PSoC5/UART_1.c ****                         UART_1_TXBITCLKTX_COMPLETE_REG = UART_1_TXBITCTR_BREAKBITS;
 1338              		.loc 1 1545 0
 1339 0028 184B     		ldr	r3, .L99+4
 1340 002a 6722     		movs	r2, #103
 1341 002c 1A70     		strb	r2, [r3]
1546:Generated_Source\PSoC5/UART_1.c ****                     #else
1547:Generated_Source\PSoC5/UART_1.c ****                         tx_period = UART_1_TXBITCTR_PERIOD_REG;
1548:Generated_Source\PSoC5/UART_1.c ****                         UART_1_TXBITCTR_PERIOD_REG = UART_1_TXBITCTR_BREAKBITS8X;
1549:Generated_Source\PSoC5/UART_1.c ****                     #endif /* End UART_1_TXCLKGEN_DP */
1550:Generated_Source\PSoC5/UART_1.c **** 
1551:Generated_Source\PSoC5/UART_1.c ****                     /* Send zeros*/
1552:Generated_Source\PSoC5/UART_1.c ****                     UART_1_TXDATA_REG = 0u;
 1342              		.loc 1 1552 0
 1343 002e 194B     		ldr	r3, .L99+12
 1344 0030 0022     		movs	r2, #0
 1345 0032 1A70     		strb	r2, [r3]
 1346              	.L95:
1553:Generated_Source\PSoC5/UART_1.c **** 
1554:Generated_Source\PSoC5/UART_1.c ****                     do /* wait until transmit starts */
1555:Generated_Source\PSoC5/UART_1.c ****                     {
1556:Generated_Source\PSoC5/UART_1.c ****                         tmpStat = UART_1_TXSTATUS_REG;
 1347              		.loc 1 1556 0 discriminator 1
 1348 0034 184B     		ldr	r3, .L99+16
 1349 0036 1B78     		ldrb	r3, [r3]
ARM GAS  C:\Users\LOCALA~1\AppData\Local\Temp\cc30l4Zv.s 			page 52


 1350 0038 FB73     		strb	r3, [r7, #15]
1557:Generated_Source\PSoC5/UART_1.c ****                     }while((tmpStat & UART_1_TX_STS_FIFO_EMPTY) != 0u);
 1351              		.loc 1 1557 0 discriminator 1
 1352 003a FB7B     		ldrb	r3, [r7, #15]	@ zero_extendqisi2
 1353 003c 03F00203 		and	r3, r3, #2
 1354 0040 002B     		cmp	r3, #0
 1355 0042 F7D1     		bne	.L95
 1356              	.L94:
1558:Generated_Source\PSoC5/UART_1.c ****                 }
1559:Generated_Source\PSoC5/UART_1.c **** 
1560:Generated_Source\PSoC5/UART_1.c ****                 if( (retMode == UART_1_WAIT_FOR_COMPLETE_REINIT) ||
 1357              		.loc 1 1560 0
 1358 0044 FB79     		ldrb	r3, [r7, #7]	@ zero_extendqisi2
 1359 0046 012B     		cmp	r3, #1
 1360 0048 02D0     		beq	.L96
 1361              		.loc 1 1560 0 is_stmt 0 discriminator 1
 1362 004a FB79     		ldrb	r3, [r7, #7]	@ zero_extendqisi2
 1363 004c 032B     		cmp	r3, #3
 1364 004e 09D1     		bne	.L97
 1365              	.L96:
1561:Generated_Source\PSoC5/UART_1.c ****                     (retMode == UART_1_SEND_WAIT_REINIT) )
1562:Generated_Source\PSoC5/UART_1.c ****                 {
1563:Generated_Source\PSoC5/UART_1.c ****                     do /*wait until transmit complete*/
1564:Generated_Source\PSoC5/UART_1.c ****                     {
1565:Generated_Source\PSoC5/UART_1.c ****                         tmpStat = UART_1_TXSTATUS_REG;
 1366              		.loc 1 1565 0 is_stmt 1 discriminator 1
 1367 0050 114B     		ldr	r3, .L99+16
 1368 0052 1B78     		ldrb	r3, [r3]
 1369 0054 FB73     		strb	r3, [r7, #15]
1566:Generated_Source\PSoC5/UART_1.c ****                     }while(((uint8)~tmpStat & UART_1_TX_STS_COMPLETE) != 0u);
 1370              		.loc 1 1566 0 discriminator 1
 1371 0056 FB7B     		ldrb	r3, [r7, #15]
 1372 0058 DB43     		mvns	r3, r3
 1373 005a DBB2     		uxtb	r3, r3
 1374 005c 03F00103 		and	r3, r3, #1
 1375 0060 002B     		cmp	r3, #0
 1376 0062 F5D1     		bne	.L96
 1377              	.L97:
1567:Generated_Source\PSoC5/UART_1.c ****                 }
1568:Generated_Source\PSoC5/UART_1.c **** 
1569:Generated_Source\PSoC5/UART_1.c ****                 if( (retMode == UART_1_WAIT_FOR_COMPLETE_REINIT) ||
 1378              		.loc 1 1569 0
 1379 0064 FB79     		ldrb	r3, [r7, #7]	@ zero_extendqisi2
 1380 0066 012B     		cmp	r3, #1
 1381 0068 05D0     		beq	.L98
 1382              		.loc 1 1569 0 is_stmt 0 discriminator 1
 1383 006a FB79     		ldrb	r3, [r7, #7]	@ zero_extendqisi2
 1384 006c 022B     		cmp	r3, #2
 1385 006e 02D0     		beq	.L98
1570:Generated_Source\PSoC5/UART_1.c ****                     (retMode == UART_1_REINIT) ||
 1386              		.loc 1 1570 0 is_stmt 1
 1387 0070 FB79     		ldrb	r3, [r7, #7]	@ zero_extendqisi2
 1388 0072 032B     		cmp	r3, #3
 1389 0074 03D1     		bne	.L91
 1390              	.L98:
1571:Generated_Source\PSoC5/UART_1.c ****                     (retMode == UART_1_SEND_WAIT_REINIT) )
1572:Generated_Source\PSoC5/UART_1.c ****                 {
ARM GAS  C:\Users\LOCALA~1\AppData\Local\Temp\cc30l4Zv.s 			page 53


1573:Generated_Source\PSoC5/UART_1.c **** 
1574:Generated_Source\PSoC5/UART_1.c ****                     #if(UART_1_TXCLKGEN_DP)
1575:Generated_Source\PSoC5/UART_1.c ****                         UART_1_TXBITCLKTX_COMPLETE_REG = tx_period;
 1391              		.loc 1 1575 0
 1392 0076 054B     		ldr	r3, .L99+4
 1393 0078 054A     		ldr	r2, .L99+8
 1394 007a 1278     		ldrb	r2, [r2]	@ zero_extendqisi2
 1395 007c 1A70     		strb	r2, [r3]
 1396              	.L91:
 1397              	.LBE2:
1576:Generated_Source\PSoC5/UART_1.c ****                     #else
1577:Generated_Source\PSoC5/UART_1.c ****                         UART_1_TXBITCTR_PERIOD_REG = tx_period;
1578:Generated_Source\PSoC5/UART_1.c ****                     #endif /* End UART_1_TXCLKGEN_DP */
1579:Generated_Source\PSoC5/UART_1.c **** 
1580:Generated_Source\PSoC5/UART_1.c ****                     #if( (UART_1_PARITY_TYPE != UART_1__B_UART__NONE_REVB) || \
1581:Generated_Source\PSoC5/UART_1.c ****                          (UART_1_PARITY_TYPE_SW != 0u) )
1582:Generated_Source\PSoC5/UART_1.c ****                         UART_1_WriteControlRegister(UART_1_ReadControlRegister() &
1583:Generated_Source\PSoC5/UART_1.c ****                                                       (uint8)~UART_1_CTRL_HD_SEND_BREAK);
1584:Generated_Source\PSoC5/UART_1.c ****                     #endif /* End UART_1_PARITY_TYPE != NONE */
1585:Generated_Source\PSoC5/UART_1.c ****                 }
1586:Generated_Source\PSoC5/UART_1.c ****             #endif    /* End UART_1_HD_ENABLED */
1587:Generated_Source\PSoC5/UART_1.c ****         }
1588:Generated_Source\PSoC5/UART_1.c ****     }
 1398              		.loc 1 1588 0
 1399 007e 1437     		adds	r7, r7, #20
 1400              		.cfi_def_cfa_offset 4
 1401 0080 BD46     		mov	sp, r7
 1402              		.cfi_def_cfa_register 13
 1403              		@ sp needed
 1404 0082 5DF8047B 		ldr	r7, [sp], #4
 1405              		.cfi_restore 7
 1406              		.cfi_def_cfa_offset 0
 1407 0086 7047     		bx	lr
 1408              	.L100:
 1409              		.align	2
 1410              	.L99:
 1411 0088 00000000 		.word	UART_1_initVar
 1412 008c 3A640040 		.word	1073767482
 1413 0090 01000000 		.word	tx_period.4946
 1414 0094 49640040 		.word	1073767497
 1415 0098 69640040 		.word	1073767529
 1416              		.cfi_endproc
 1417              	.LFE25:
 1418              		.size	UART_1_SendBreak, .-UART_1_SendBreak
 1419              		.section	.text.UART_1_SetTxAddressMode,"ax",%progbits
 1420              		.align	2
 1421              		.global	UART_1_SetTxAddressMode
 1422              		.thumb
 1423              		.thumb_func
 1424              		.type	UART_1_SetTxAddressMode, %function
 1425              	UART_1_SetTxAddressMode:
 1426              	.LFB26:
1589:Generated_Source\PSoC5/UART_1.c **** 
1590:Generated_Source\PSoC5/UART_1.c **** 
1591:Generated_Source\PSoC5/UART_1.c ****     /*******************************************************************************
1592:Generated_Source\PSoC5/UART_1.c ****     * Function Name: UART_1_SetTxAddressMode
1593:Generated_Source\PSoC5/UART_1.c ****     ********************************************************************************
ARM GAS  C:\Users\LOCALA~1\AppData\Local\Temp\cc30l4Zv.s 			page 54


1594:Generated_Source\PSoC5/UART_1.c ****     *
1595:Generated_Source\PSoC5/UART_1.c ****     * Summary:
1596:Generated_Source\PSoC5/UART_1.c ****     *  Set the transmit addressing mode
1597:Generated_Source\PSoC5/UART_1.c ****     *
1598:Generated_Source\PSoC5/UART_1.c ****     * Parameters:
1599:Generated_Source\PSoC5/UART_1.c ****     *  addressMode: 0 -> Space
1600:Generated_Source\PSoC5/UART_1.c ****     *               1 -> Mark
1601:Generated_Source\PSoC5/UART_1.c ****     *
1602:Generated_Source\PSoC5/UART_1.c ****     * Return:
1603:Generated_Source\PSoC5/UART_1.c ****     *  None.
1604:Generated_Source\PSoC5/UART_1.c ****     *
1605:Generated_Source\PSoC5/UART_1.c ****     *******************************************************************************/
1606:Generated_Source\PSoC5/UART_1.c ****     void UART_1_SetTxAddressMode(uint8 addressMode) 
1607:Generated_Source\PSoC5/UART_1.c ****     {
 1427              		.loc 1 1607 0
 1428              		.cfi_startproc
 1429              		@ args = 0, pretend = 0, frame = 8
 1430              		@ frame_needed = 1, uses_anonymous_args = 0
 1431              		@ link register save eliminated.
 1432 0000 80B4     		push	{r7}
 1433              		.cfi_def_cfa_offset 4
 1434              		.cfi_offset 7, -4
 1435 0002 83B0     		sub	sp, sp, #12
 1436              		.cfi_def_cfa_offset 16
 1437 0004 00AF     		add	r7, sp, #0
 1438              		.cfi_def_cfa_register 7
 1439 0006 0346     		mov	r3, r0
 1440 0008 FB71     		strb	r3, [r7, #7]
1608:Generated_Source\PSoC5/UART_1.c ****         /* Mark/Space sending enable*/
1609:Generated_Source\PSoC5/UART_1.c ****         if(addressMode != 0u)
1610:Generated_Source\PSoC5/UART_1.c ****         {
1611:Generated_Source\PSoC5/UART_1.c ****             #if( UART_1_CONTROL_REG_REMOVED == 0u )
1612:Generated_Source\PSoC5/UART_1.c ****                 UART_1_WriteControlRegister(UART_1_ReadControlRegister() |
1613:Generated_Source\PSoC5/UART_1.c ****                                                       UART_1_CTRL_MARK);
1614:Generated_Source\PSoC5/UART_1.c ****             #endif /* End UART_1_CONTROL_REG_REMOVED == 0u */
1615:Generated_Source\PSoC5/UART_1.c ****         }
1616:Generated_Source\PSoC5/UART_1.c ****         else
1617:Generated_Source\PSoC5/UART_1.c ****         {
1618:Generated_Source\PSoC5/UART_1.c ****             #if( UART_1_CONTROL_REG_REMOVED == 0u )
1619:Generated_Source\PSoC5/UART_1.c ****                 UART_1_WriteControlRegister(UART_1_ReadControlRegister() &
1620:Generated_Source\PSoC5/UART_1.c ****                                                     (uint8)~UART_1_CTRL_MARK);
1621:Generated_Source\PSoC5/UART_1.c ****             #endif /* End UART_1_CONTROL_REG_REMOVED == 0u */
1622:Generated_Source\PSoC5/UART_1.c ****         }
1623:Generated_Source\PSoC5/UART_1.c ****     }
 1441              		.loc 1 1623 0
 1442 000a 0C37     		adds	r7, r7, #12
 1443              		.cfi_def_cfa_offset 4
 1444 000c BD46     		mov	sp, r7
 1445              		.cfi_def_cfa_register 13
 1446              		@ sp needed
 1447 000e 5DF8047B 		ldr	r7, [sp], #4
 1448              		.cfi_restore 7
 1449              		.cfi_def_cfa_offset 0
 1450 0012 7047     		bx	lr
 1451              		.cfi_endproc
 1452              	.LFE26:
 1453              		.size	UART_1_SetTxAddressMode, .-UART_1_SetTxAddressMode
ARM GAS  C:\Users\LOCALA~1\AppData\Local\Temp\cc30l4Zv.s 			page 55


 1454              		.bss
 1455              	tx_period.4946:
 1456 0001 00       		.space	1
 1457              		.text
 1458              	.Letext0:
 1459              		.file 2 "Generated_Source\\PSoC5\\cytypes.h"